
Proto2.elf:     file format elf32-avr32

Sections:
Idx Name          Size      VMA       LMA       File off  Algn
  0 .reset        0000200c  80000000  80000000  00000400  2**2
                  CONTENTS, ALLOC, LOAD, READONLY, CODE
  1 .rela.got     00000000  8000200c  8000200c  0000240c  2**2
                  CONTENTS, ALLOC, LOAD, READONLY, DATA
  2 .init         0000001a  8000200c  8000200c  0000240c  2**2
                  CONTENTS, ALLOC, LOAD, READONLY, CODE
  3 .text         000074ac  80002028  80002028  00002428  2**2
                  CONTENTS, ALLOC, LOAD, READONLY, CODE
  4 .exception    00000200  80009600  80009600  00009a00  2**9
                  CONTENTS, ALLOC, LOAD, READONLY, CODE
  5 .fini         00000018  80009800  80009800  00009c00  2**2
                  CONTENTS, ALLOC, LOAD, READONLY, CODE
  6 .rodata       00000854  80009818  80009818  00009c18  2**2
                  CONTENTS, ALLOC, LOAD, READONLY, DATA
  7 .lalign       00000004  8000a06c  8000a06c  0000a46c  2**0
                  ALLOC
  8 .dalign       00000004  00000004  00000004  00000000  2**0
                  ALLOC
  9 .ctors        00000008  00000008  8000a070  0000a808  2**2
                  CONTENTS, ALLOC, LOAD, DATA
 10 .dtors        00000008  00000010  8000a078  0000a810  2**2
                  CONTENTS, ALLOC, LOAD, DATA
 11 .jcr          00000004  00000018  8000a080  0000a818  2**2
                  CONTENTS, ALLOC, LOAD, DATA
 12 .got          00000000  0000001c  8000a084  0000a81c  2**2
                  CONTENTS, ALLOC, LOAD, DATA
 13 .data         00000514  0000001c  8000a084  0000a81c  2**2
                  CONTENTS, ALLOC, LOAD, DATA
 14 .balign       00000000  00000530  8000a598  0000ad30  2**0
                  ALLOC
 15 .bss          000002b0  00000530  00000530  00000000  2**2
                  ALLOC
 16 .heap         0000e820  000007e0  000007e0  00000000  2**0
                  ALLOC
 17 .comment      00000030  00000000  00000000  0000ad30  2**0
                  CONTENTS, READONLY
 18 .debug_aranges 00000740  00000000  00000000  0000ad60  2**0
                  CONTENTS, READONLY, DEBUGGING
 19 .debug_pubnames 00000a74  00000000  00000000  0000b4a0  2**0
                  CONTENTS, READONLY, DEBUGGING
 20 .debug_info   00015c61  00000000  00000000  0000bf14  2**0
                  CONTENTS, READONLY, DEBUGGING
 21 .debug_abbrev 00003eb3  00000000  00000000  00021b75  2**0
                  CONTENTS, READONLY, DEBUGGING
 22 .debug_line   00008944  00000000  00000000  00025a28  2**0
                  CONTENTS, READONLY, DEBUGGING
 23 .debug_frame  00002920  00000000  00000000  0002e36c  2**2
                  CONTENTS, READONLY, DEBUGGING
 24 .debug_str    00002353  00000000  00000000  00030c8c  2**0
                  CONTENTS, READONLY, DEBUGGING
 25 .debug_loc    00007eca  00000000  00000000  00032fdf  2**0
                  CONTENTS, READONLY, DEBUGGING
 26 .stack        00001000  0000f000  0000f000  00000000  2**0
                  ALLOC
 27 .debug_ranges 00000858  00000000  00000000  0003aea9  2**0
                  CONTENTS, READONLY, DEBUGGING

Disassembly of section .reset:

80000000 <_start>:
80000000:	48 1f       	lddpc	pc,80000004 <_start+0x4>
80000002:	d7 03       	nop
80000004:	80 00       	ld.sh	r0,r0[0x0]
80000006:	20 28       	sub	r8,2

80000008 <_trampoline>:
80000008:	e0 8f 10 00 	bral	80002008 <program_start>
	...

80002008 <program_start>:
80002008:	fe cf ff e0 	sub	pc,pc,-32

Disassembly of section .init:

8000200c <_init>:
8000200c:	eb cd 40 40 	pushm	r6,lr
80002010:	48 26       	lddpc	r6,80002018 <_init+0xc>
80002012:	1e 26       	rsub	r6,pc
80002014:	c0 48       	rjmp	8000201c <_init+0x10>
80002016:	d7 03       	nop
80002018:	80 00       	ld.sh	r0,r0[0x0]
8000201a:	1f f6       	ld.ub	r6,pc[0x7]
8000201c:	c5 4c       	rcall	800020c4 <frame_dummy>
8000201e:	e0 a0 3a 51 	rcall	800094c0 <__do_global_ctors_aux>
80002022:	e3 cd 80 40 	ldm	sp++,r6,pc

Disassembly of section .text:

80002028 <_stext>:
80002028:	30 07       	mov	r7,0
8000202a:	e0 7a 00 00 	mov	r10,65536
8000202e:	5b fa       	cp.w	r10,-1
80002030:	f4 0d 17 10 	movne	sp,r10
80002034:	49 4b       	lddpc	r11,80002084 <_stext+0x5c>
80002036:	30 8c       	mov	r12,8
80002038:	18 3b       	cp.w	r11,r12
8000203a:	c0 70       	breq	80002048 <_stext+0x20>
8000203c:	e0 6a 05 30 	mov	r10,1328
80002040:	b7 09       	ld.d	r8,r11++
80002042:	b9 28       	st.d	r12++,r8
80002044:	14 3c       	cp.w	r12,r10
80002046:	cf d5       	brlt	80002040 <_stext+0x18>
80002048:	e0 6a 07 e0 	mov	r10,2016
8000204c:	e0 6c 05 30 	mov	r12,1328
80002050:	30 08       	mov	r8,0
80002052:	30 09       	mov	r9,0
80002054:	b9 28       	st.d	r12++,r8
80002056:	14 3c       	cp.w	r12,r10
80002058:	cf e5       	brlt	80002054 <_stext+0x2c>
8000205a:	e0 a0 07 e5 	rcall	80003024 <_init_startup>
8000205e:	fe cc 88 5e 	sub	r12,pc,-30626
80002062:	e0 a0 11 6d 	rcall	8000433c <atexit>
80002066:	cd 3f       	rcall	8000200c <_init>
80002068:	1a 9c       	mov	r12,sp
8000206a:	30 0b       	mov	r11,0
8000206c:	e0 a0 15 f6 	rcall	80004c58 <_init_argv>
80002070:	5b fc       	cp.w	r12,-1
80002072:	f9 bc 00 00 	moveq	r12,0
80002076:	f9 ba 00 00 	moveq	r10,0
8000207a:	14 1d       	sub	sp,r10
8000207c:	e0 a0 04 5e 	rcall	80002938 <main>
80002080:	e0 a0 11 66 	rcall	8000434c <exit>
80002084:	80 00       	ld.sh	r0,r0[0x0]
80002086:	a0 70       	st.h	r0[0xe],r0

80002088 <__do_global_dtors_aux>:
80002088:	d4 21       	pushm	r4-r7,lr
8000208a:	e0 68 05 30 	mov	r8,1328
8000208e:	11 89       	ld.ub	r9,r8[0x0]
80002090:	30 08       	mov	r8,0
80002092:	f0 09 18 00 	cp.b	r9,r8
80002096:	c1 61       	brne	800020c2 <__do_global_dtors_aux+0x3a>
80002098:	31 08       	mov	r8,16
8000209a:	31 46       	mov	r6,20
8000209c:	10 95       	mov	r5,r8
8000209e:	10 16       	sub	r6,r8
800020a0:	e0 67 05 34 	mov	r7,1332
800020a4:	a3 46       	asr	r6,0x2
800020a6:	20 16       	sub	r6,1
800020a8:	c0 68       	rjmp	800020b4 <__do_global_dtors_aux+0x2c>
800020aa:	2f f8       	sub	r8,-1
800020ac:	8f 08       	st.w	r7[0x0],r8
800020ae:	ea 08 03 28 	ld.w	r8,r5[r8<<0x2]
800020b2:	5d 18       	icall	r8
800020b4:	6e 08       	ld.w	r8,r7[0x0]
800020b6:	0c 38       	cp.w	r8,r6
800020b8:	cf 93       	brcs	800020aa <__do_global_dtors_aux+0x22>
800020ba:	30 19       	mov	r9,1
800020bc:	e0 68 05 30 	mov	r8,1328
800020c0:	b0 89       	st.b	r8[0x0],r9
800020c2:	d8 22       	popm	r4-r7,pc

800020c4 <frame_dummy>:
800020c4:	d4 01       	pushm	lr
800020c6:	31 8c       	mov	r12,24
800020c8:	78 08       	ld.w	r8,r12[0x0]
800020ca:	58 08       	cp.w	r8,0
800020cc:	c0 50       	breq	800020d6 <frame_dummy+0x12>
800020ce:	48 38       	lddpc	r8,800020d8 <frame_dummy+0x14>
800020d0:	58 08       	cp.w	r8,0
800020d2:	c0 20       	breq	800020d6 <frame_dummy+0x12>
800020d4:	5d 18       	icall	r8
800020d6:	d8 02       	popm	pc
800020d8:	00 00       	add	r0,r0
	...

800020dc <dip204_select>:
800020dc:	d4 01       	pushm	lr
800020de:	30 2b       	mov	r11,2
800020e0:	fe 7c 28 00 	mov	r12,-55296
800020e4:	e0 a0 02 0c 	rcall	800024fc <spi_selectChip>
800020e8:	d8 02       	popm	pc
800020ea:	d7 03       	nop

800020ec <dip204_write_byte>:
800020ec:	d4 21       	pushm	r4-r7,lr
800020ee:	30 69       	mov	r9,6
800020f0:	18 9b       	mov	r11,r12
800020f2:	f8 c8 ff f8 	sub	r8,r12,-8
800020f6:	f2 08 18 00 	cp.b	r8,r9
800020fa:	e0 8b 00 08 	brhi	8000210a <dip204_write_byte+0x1e>
800020fe:	30 19       	mov	r9,1
80002100:	f2 08 09 48 	lsl	r8,r9,r8
80002104:	e2 18 00 55 	andl	r8,0x55,COH
80002108:	c0 f1       	brne	80002126 <dip204_write_byte+0x3a>
8000210a:	16 97       	mov	r7,r11
8000210c:	fe 7c 28 00 	mov	r12,-55296
80002110:	5c 97       	brev	r7
80002112:	b9 87       	lsr	r7,0x18
80002114:	0e 9b       	mov	r11,r7
80002116:	e2 1b 00 f0 	andl	r11,0xf0,COH
8000211a:	e0 a0 02 80 	rcall	8000261a <spi_write>
8000211e:	ee 0b 15 04 	lsl	r11,r7,0x4
80002122:	e2 1b 00 f0 	andl	r11,0xf0,COH
80002126:	fe 7c 28 00 	mov	r12,-55296
8000212a:	e0 a0 02 78 	rcall	8000261a <spi_write>
8000212e:	d8 22       	popm	r4-r7,pc

80002130 <dip204_read_byte>:
80002130:	d4 21       	pushm	r4-r7,lr
80002132:	20 1d       	sub	sp,4
80002134:	30 08       	mov	r8,0
80002136:	fa c7 ff fc 	sub	r7,sp,-4
8000213a:	18 96       	mov	r6,r12
8000213c:	0e e8       	st.h	--r7,r8
8000213e:	30 0b       	mov	r11,0
80002140:	fe 7c 28 00 	mov	r12,-55296
80002144:	e0 a0 02 6b 	rcall	8000261a <spi_write>
80002148:	0e 9b       	mov	r11,r7
8000214a:	fe 7c 28 00 	mov	r12,-55296
8000214e:	e0 a0 02 74 	rcall	80002636 <spi_read>
80002152:	1b b8       	ld.ub	r8,sp[0x3]
80002154:	5c 98       	brev	r8
80002156:	b9 88       	lsr	r8,0x18
80002158:	ac 88       	st.b	r6[0x0],r8
8000215a:	2f fd       	sub	sp,-4
8000215c:	d8 22       	popm	r4-r7,pc
8000215e:	d7 03       	nop

80002160 <dip204_wait_busy>:
80002160:	d4 21       	pushm	r4-r7,lr
80002162:	20 1d       	sub	sp,4
80002164:	30 08       	mov	r8,0
80002166:	fa c7 ff fc 	sub	r7,sp,-4
8000216a:	10 96       	mov	r6,r8
8000216c:	0e f8       	st.b	--r7,r8
8000216e:	e0 6c 00 fc 	mov	r12,252
80002172:	cb df       	rcall	800020ec <dip204_write_byte>
80002174:	0e 9c       	mov	r12,r7
80002176:	cd df       	rcall	80002130 <dip204_read_byte>
80002178:	1b b8       	ld.ub	r8,sp[0x3]
8000217a:	ec 08 18 00 	cp.b	r8,r6
8000217e:	cf b5       	brlt	80002174 <dip204_wait_busy+0x14>
80002180:	2f fd       	sub	sp,-4
80002182:	d8 22       	popm	r4-r7,pc

80002184 <dip204_unselect>:
80002184:	d4 01       	pushm	lr
80002186:	30 2b       	mov	r11,2
80002188:	fe 7c 28 00 	mov	r12,-55296
8000218c:	ce 0d       	rcall	8000254c <spi_unselectChip>
8000218e:	d8 02       	popm	pc

80002190 <dip204_write_string>:
80002190:	d4 21       	pushm	r4-r7,lr
80002192:	30 07       	mov	r7,0
80002194:	18 94       	mov	r4,r12
80002196:	0e 95       	mov	r5,r7
80002198:	ca 2f       	rcall	800020dc <dip204_select>
8000219a:	c0 78       	rjmp	800021a8 <dip204_write_string+0x18>
8000219c:	ca 8f       	rcall	800020ec <dip204_write_byte>
8000219e:	0d 8c       	ld.ub	r12,r6[0x0]
800021a0:	ca 6f       	rcall	800020ec <dip204_write_byte>
800021a2:	2f f7       	sub	r7,-1
800021a4:	5c 57       	castu.b	r7
800021a6:	cd df       	rcall	80002160 <dip204_wait_busy>
800021a8:	e8 07 00 06 	add	r6,r4,r7
800021ac:	e0 6c 00 fa 	mov	r12,250
800021b0:	0d 88       	ld.ub	r8,r6[0x0]
800021b2:	ea 08 18 00 	cp.b	r8,r5
800021b6:	cf 31       	brne	8000219c <dip204_write_string+0xc>
800021b8:	ce 6f       	rcall	80002184 <dip204_unselect>
800021ba:	d8 22       	popm	r4-r7,pc

800021bc <dip204_set_cursor_position>:
800021bc:	d4 21       	pushm	r4-r7,lr
800021be:	18 97       	mov	r7,r12
800021c0:	16 96       	mov	r6,r11
800021c2:	c8 df       	rcall	800020dc <dip204_select>
800021c4:	30 48       	mov	r8,4
800021c6:	f0 06 18 00 	cp.b	r6,r8
800021ca:	5f 89       	srls	r9
800021cc:	31 48       	mov	r8,20
800021ce:	f0 07 18 00 	cp.b	r7,r8
800021d2:	5f 88       	srls	r8
800021d4:	f3 e8 00 08 	and	r8,r9,r8
800021d8:	c0 31       	brne	800021de <dip204_set_cursor_position+0x22>
800021da:	30 07       	mov	r7,0
800021dc:	c0 68       	rjmp	800021e8 <dip204_set_cursor_position+0x2c>
800021de:	28 17       	sub	r7,-127
800021e0:	20 16       	sub	r6,1
800021e2:	a5 76       	lsl	r6,0x5
800021e4:	0c 07       	add	r7,r6
800021e6:	5c 57       	castu.b	r7
800021e8:	e0 6c 00 f8 	mov	r12,248
800021ec:	c8 0f       	rcall	800020ec <dip204_write_byte>
800021ee:	0e 9c       	mov	r12,r7
800021f0:	c7 ef       	rcall	800020ec <dip204_write_byte>
800021f2:	cb 7f       	rcall	80002160 <dip204_wait_busy>
800021f4:	cc 8f       	rcall	80002184 <dip204_unselect>
800021f6:	d8 22       	popm	r4-r7,pc

800021f8 <dip204_hide_cursor>:
800021f8:	d4 01       	pushm	lr
800021fa:	c7 1f       	rcall	800020dc <dip204_select>
800021fc:	e0 6c 00 f8 	mov	r12,248
80002200:	c7 6f       	rcall	800020ec <dip204_write_byte>
80002202:	30 cc       	mov	r12,12
80002204:	c7 4f       	rcall	800020ec <dip204_write_byte>
80002206:	ca df       	rcall	80002160 <dip204_wait_busy>
80002208:	cb ef       	rcall	80002184 <dip204_unselect>
8000220a:	d8 02       	popm	pc

8000220c <dip204_init>:
8000220c:	d4 21       	pushm	r4-r7,lr
8000220e:	20 4d       	sub	sp,16
80002210:	18 95       	mov	r5,r12
80002212:	16 96       	mov	r6,r11
80002214:	58 1c       	cp.w	r12,1
80002216:	c2 d1       	brne	80002270 <dip204_init+0x64>
80002218:	30 68       	mov	r8,6
8000221a:	31 c7       	mov	r7,28
8000221c:	30 2b       	mov	r11,2
8000221e:	8f 08       	st.w	r7[0x0],r8
80002220:	33 2c       	mov	r12,50
80002222:	e0 a0 02 3d 	rcall	8000269c <gpio_enable_module_pin>
80002226:	30 04       	mov	r4,0
80002228:	1a 9c       	mov	r12,sp
8000222a:	50 14       	stdsp	sp[0x4],r4
8000222c:	50 04       	stdsp	sp[0x0],r4
8000222e:	50 34       	stdsp	sp[0xc],r4
80002230:	50 24       	stdsp	sp[0x8],r4
80002232:	cf fc       	rcall	80002430 <pwm_init>
80002234:	e0 6a 05 58 	mov	r10,1368
80002238:	e0 68 05 38 	mov	r8,1336
8000223c:	08 36       	cp.w	r6,r4
8000223e:	f9 b6 01 31 	movne	r6,49
80002242:	f9 b6 00 01 	moveq	r6,1
80002246:	70 09       	ld.w	r9,r8[0x0]
80002248:	b4 06       	st.h	r10[0x0],r6
8000224a:	e0 19 fc ff 	andl	r9,0xfcff
8000224e:	30 8a       	mov	r10,8
80002250:	ab a9       	sbr	r9,0xa
80002252:	f3 da d0 04 	bfins	r9,r10,0x0,0x4
80002256:	91 09       	st.w	r8[0x0],r9
80002258:	33 29       	mov	r9,50
8000225a:	91 16       	st.w	r8[0x4],r6
8000225c:	91 44       	st.w	r8[0x10],r4
8000225e:	10 9b       	mov	r11,r8
80002260:	91 29       	st.w	r8[0x8],r9
80002262:	6e 0c       	ld.w	r12,r7[0x0]
80002264:	cc 5c       	rcall	800023ee <pwm_channel_init>
80002266:	6e 0c       	ld.w	r12,r7[0x0]
80002268:	ea 0c 09 4c 	lsl	r12,r5,r12
8000226c:	cd 9c       	rcall	8000241e <pwm_start_channels>
8000226e:	c0 a8       	rjmp	80002282 <dip204_init+0x76>
80002270:	58 0b       	cp.w	r11,0
80002272:	c0 50       	breq	8000227c <dip204_init+0x70>
80002274:	33 2c       	mov	r12,50
80002276:	e0 a0 02 58 	rcall	80002726 <gpio_clr_gpio_pin>
8000227a:	c0 48       	rjmp	80002282 <dip204_init+0x76>
8000227c:	33 2c       	mov	r12,50
8000227e:	e0 a0 02 47 	rcall	8000270c <gpio_set_gpio_pin>
80002282:	e1 b8 00 42 	mfsr	r8,0x108
80002286:	f0 ca f7 00 	sub	r10,r8,-2304
8000228a:	e1 b9 00 42 	mfsr	r9,0x108
8000228e:	14 38       	cp.w	r8,r10
80002290:	e0 88 00 05 	brls	8000229a <dip204_init+0x8e>
80002294:	10 39       	cp.w	r9,r8
80002296:	cf a2       	brcc	8000228a <dip204_init+0x7e>
80002298:	c0 38       	rjmp	8000229e <dip204_init+0x92>
8000229a:	10 39       	cp.w	r9,r8
8000229c:	c5 a3       	brcs	80002350 <dip204_init+0x144>
8000229e:	14 39       	cp.w	r9,r10
800022a0:	e0 8b 00 58 	brhi	80002350 <dip204_init+0x144>
800022a4:	cf 3b       	rjmp	8000228a <dip204_init+0x7e>
800022a6:	e1 b9 00 42 	mfsr	r9,0x108
800022aa:	14 38       	cp.w	r8,r10
800022ac:	e0 88 00 05 	brls	800022b6 <dip204_init+0xaa>
800022b0:	10 39       	cp.w	r9,r8
800022b2:	cf a2       	brcc	800022a6 <dip204_init+0x9a>
800022b4:	c0 38       	rjmp	800022ba <dip204_init+0xae>
800022b6:	10 39       	cp.w	r9,r8
800022b8:	c5 73       	brcs	80002366 <dip204_init+0x15a>
800022ba:	14 39       	cp.w	r9,r10
800022bc:	e0 8b 00 55 	brhi	80002366 <dip204_init+0x15a>
800022c0:	cf 3b       	rjmp	800022a6 <dip204_init+0x9a>
800022c2:	e1 b9 00 42 	mfsr	r9,0x108
800022c6:	14 38       	cp.w	r8,r10
800022c8:	e0 88 00 05 	brls	800022d2 <dip204_init+0xc6>
800022cc:	10 39       	cp.w	r9,r8
800022ce:	cf a2       	brcc	800022c2 <dip204_init+0xb6>
800022d0:	c0 38       	rjmp	800022d6 <dip204_init+0xca>
800022d2:	10 39       	cp.w	r9,r8
800022d4:	c5 03       	brcs	80002374 <dip204_init+0x168>
800022d6:	14 39       	cp.w	r9,r10
800022d8:	e0 8b 00 4e 	brhi	80002374 <dip204_init+0x168>
800022dc:	cf 3b       	rjmp	800022c2 <dip204_init+0xb6>
800022de:	e1 b9 00 42 	mfsr	r9,0x108
800022e2:	14 38       	cp.w	r8,r10
800022e4:	e0 88 00 05 	brls	800022ee <dip204_init+0xe2>
800022e8:	10 39       	cp.w	r9,r8
800022ea:	cf a2       	brcc	800022de <dip204_init+0xd2>
800022ec:	c0 38       	rjmp	800022f2 <dip204_init+0xe6>
800022ee:	10 39       	cp.w	r9,r8
800022f0:	c4 93       	brcs	80002382 <dip204_init+0x176>
800022f2:	14 39       	cp.w	r9,r10
800022f4:	e0 8b 00 47 	brhi	80002382 <dip204_init+0x176>
800022f8:	cf 3b       	rjmp	800022de <dip204_init+0xd2>
800022fa:	e1 b9 00 42 	mfsr	r9,0x108
800022fe:	14 38       	cp.w	r8,r10
80002300:	e0 88 00 05 	brls	8000230a <dip204_init+0xfe>
80002304:	10 39       	cp.w	r9,r8
80002306:	cf a2       	brcc	800022fa <dip204_init+0xee>
80002308:	c0 38       	rjmp	8000230e <dip204_init+0x102>
8000230a:	10 39       	cp.w	r9,r8
8000230c:	c4 23       	brcs	80002390 <dip204_init+0x184>
8000230e:	14 39       	cp.w	r9,r10
80002310:	e0 8b 00 40 	brhi	80002390 <dip204_init+0x184>
80002314:	cf 3b       	rjmp	800022fa <dip204_init+0xee>
80002316:	e1 b9 00 42 	mfsr	r9,0x108
8000231a:	14 38       	cp.w	r8,r10
8000231c:	e0 88 00 06 	brls	80002328 <dip204_init+0x11c>
80002320:	10 39       	cp.w	r9,r8
80002322:	cf a2       	brcc	80002316 <dip204_init+0x10a>
80002324:	c0 48       	rjmp	8000232c <dip204_init+0x120>
80002326:	d7 03       	nop
80002328:	10 39       	cp.w	r9,r8
8000232a:	c3 a3       	brcs	8000239e <dip204_init+0x192>
8000232c:	14 39       	cp.w	r9,r10
8000232e:	e0 8b 00 38 	brhi	8000239e <dip204_init+0x192>
80002332:	cf 2b       	rjmp	80002316 <dip204_init+0x10a>
80002334:	e1 b9 00 42 	mfsr	r9,0x108
80002338:	14 38       	cp.w	r8,r10
8000233a:	e0 88 00 05 	brls	80002344 <dip204_init+0x138>
8000233e:	10 39       	cp.w	r9,r8
80002340:	cf a2       	brcc	80002334 <dip204_init+0x128>
80002342:	c0 38       	rjmp	80002348 <dip204_init+0x13c>
80002344:	10 39       	cp.w	r9,r8
80002346:	c3 33       	brcs	800023ac <dip204_init+0x1a0>
80002348:	14 39       	cp.w	r9,r10
8000234a:	e0 8b 00 31 	brhi	800023ac <dip204_init+0x1a0>
8000234e:	cf 3b       	rjmp	80002334 <dip204_init+0x128>
80002350:	cc 6e       	rcall	800020dc <dip204_select>
80002352:	e0 6c 00 f8 	mov	r12,248
80002356:	cc be       	rcall	800020ec <dip204_write_byte>
80002358:	33 4c       	mov	r12,52
8000235a:	cc 9e       	rcall	800020ec <dip204_write_byte>
8000235c:	e1 b8 00 42 	mfsr	r8,0x108
80002360:	f0 ca ff 8c 	sub	r10,r8,-116
80002364:	ca 1b       	rjmp	800022a6 <dip204_init+0x9a>
80002366:	30 9c       	mov	r12,9
80002368:	cc 2e       	rcall	800020ec <dip204_write_byte>
8000236a:	e1 b8 00 42 	mfsr	r8,0x108
8000236e:	f0 ca ff 8c 	sub	r10,r8,-116
80002372:	ca 8b       	rjmp	800022c2 <dip204_init+0xb6>
80002374:	33 0c       	mov	r12,48
80002376:	cb be       	rcall	800020ec <dip204_write_byte>
80002378:	e1 b8 00 42 	mfsr	r8,0x108
8000237c:	f0 ca ff 8c 	sub	r10,r8,-116
80002380:	ca fb       	rjmp	800022de <dip204_init+0xd2>
80002382:	30 fc       	mov	r12,15
80002384:	cb 4e       	rcall	800020ec <dip204_write_byte>
80002386:	e1 b8 00 42 	mfsr	r8,0x108
8000238a:	f0 ca ff 8c 	sub	r10,r8,-116
8000238e:	cb 6b       	rjmp	800022fa <dip204_init+0xee>
80002390:	30 1c       	mov	r12,1
80002392:	ca de       	rcall	800020ec <dip204_write_byte>
80002394:	e1 b8 00 42 	mfsr	r8,0x108
80002398:	f0 ca fd c0 	sub	r10,r8,-576
8000239c:	cb db       	rjmp	80002316 <dip204_init+0x10a>
8000239e:	30 6c       	mov	r12,6
800023a0:	ca 6e       	rcall	800020ec <dip204_write_byte>
800023a2:	e1 b8 00 42 	mfsr	r8,0x108
800023a6:	f0 ca ff 8c 	sub	r10,r8,-116
800023aa:	cc 5b       	rjmp	80002334 <dip204_init+0x128>
800023ac:	cd ae       	rcall	80002160 <dip204_wait_busy>
800023ae:	ce be       	rcall	80002184 <dip204_unselect>
800023b0:	2f cd       	sub	sp,-16
800023b2:	d8 22       	popm	r4-r7,pc

800023b4 <adc_configure>:
800023b4:	78 18       	ld.w	r8,r12[0x4]
800023b6:	ea 18 0f 00 	orh	r8,0xf00
800023ba:	99 18       	st.w	r12[0x4],r8
800023bc:	78 18       	ld.w	r8,r12[0x4]
800023be:	ea 18 00 1f 	orh	r8,0x1f
800023c2:	99 18       	st.w	r12[0x4],r8
800023c4:	5e fc       	retal	r12

800023c6 <adc_start>:
800023c6:	30 28       	mov	r8,2
800023c8:	99 08       	st.w	r12[0x0],r8
800023ca:	5e fc       	retal	r12

800023cc <adc_enable>:
800023cc:	30 18       	mov	r8,1
800023ce:	f0 0b 09 48 	lsl	r8,r8,r11
800023d2:	99 48       	st.w	r12[0x10],r8
800023d4:	5e fc       	retal	r12

800023d6 <adc_get_value>:
800023d6:	30 18       	mov	r8,1
800023d8:	f0 0b 09 48 	lsl	r8,r8,r11
800023dc:	78 79       	ld.w	r9,r12[0x1c]
800023de:	f1 e9 00 09 	and	r9,r8,r9
800023e2:	cf d0       	breq	800023dc <adc_get_value+0x6>
800023e4:	5c 7b       	castu.h	r11
800023e6:	2d 0c       	sub	r12,-48
800023e8:	f8 0b 03 2c 	ld.w	r12,r12[r11<<0x2]
800023ec:	5e fc       	retal	r12

800023ee <pwm_channel_init>:
800023ee:	58 0b       	cp.w	r11,0
800023f0:	c1 60       	breq	8000241c <pwm_channel_init+0x2e>
800023f2:	58 6c       	cp.w	r12,6
800023f4:	e0 8b 00 14 	brhi	8000241c <pwm_channel_init+0x2e>
800023f8:	76 09       	ld.w	r9,r11[0x0]
800023fa:	f8 08 15 05 	lsl	r8,r12,0x5
800023fe:	e0 28 ce 00 	sub	r8,52736
80002402:	91 09       	st.w	r8[0x0],r9
80002404:	a5 7c       	lsl	r12,0x5
80002406:	76 19       	ld.w	r9,r11[0x4]
80002408:	fe 7a 32 04 	mov	r10,-52732
8000240c:	f8 0a 00 08 	add	r8,r12,r10
80002410:	e0 2c cd f8 	sub	r12,52728
80002414:	91 09       	st.w	r8[0x0],r9
80002416:	76 28       	ld.w	r8,r11[0x8]
80002418:	99 08       	st.w	r12[0x0],r8
8000241a:	5e fd       	retal	0
8000241c:	5e ff       	retal	1

8000241e <pwm_start_channels>:
8000241e:	18 98       	mov	r8,r12
80002420:	e0 1c ff 80 	andl	r12,0xff80
80002424:	c0 20       	breq	80002428 <pwm_start_channels+0xa>
80002426:	5e ff       	retal	1
80002428:	fe 79 30 00 	mov	r9,-53248
8000242c:	93 18       	st.w	r9[0x4],r8
8000242e:	5e fc       	retal	r12

80002430 <pwm_init>:
80002430:	e1 b8 00 00 	mfsr	r8,0x0
80002434:	58 0c       	cp.w	r12,0
80002436:	c0 21       	brne	8000243a <pwm_init+0xa>
80002438:	5e ff       	retal	1
8000243a:	ee 18 00 01 	eorh	r8,0x1
8000243e:	f1 d8 c2 01 	bfextu	r8,r8,0x10,0x1
80002442:	c0 20       	breq	80002446 <pwm_init+0x16>
80002444:	d3 03       	ssrf	0x10
80002446:	fe 79 30 00 	mov	r9,-53248
8000244a:	37 fa       	mov	r10,127
8000244c:	93 5a       	st.w	r9[0x14],r10
8000244e:	72 79       	ld.w	r9,r9[0x1c]
80002450:	58 08       	cp.w	r8,0
80002452:	c0 20       	breq	80002456 <pwm_init+0x26>
80002454:	d5 03       	csrf	0x10
80002456:	78 28       	ld.w	r8,r12[0x8]
80002458:	78 0a       	ld.w	r10,r12[0x0]
8000245a:	78 39       	ld.w	r9,r12[0xc]
8000245c:	a9 69       	lsl	r9,0x8
8000245e:	f3 ea 11 09 	or	r9,r9,r10<<0x10
80002462:	78 1a       	ld.w	r10,r12[0x4]
80002464:	30 0c       	mov	r12,0
80002466:	14 49       	or	r9,r10
80002468:	f3 e8 11 89 	or	r9,r9,r8<<0x18
8000246c:	fe 78 30 00 	mov	r8,-53248
80002470:	91 09       	st.w	r8[0x0],r9
80002472:	5e fc       	retal	r12

80002474 <getBaudDiv>:
80002474:	f8 c8 00 01 	sub	r8,r12,1
80002478:	f0 0b 00 0b 	add	r11,r8,r11
8000247c:	f6 0c 0d 0a 	divu	r10,r11,r12
80002480:	14 9c       	mov	r12,r10
80002482:	f4 c8 00 01 	sub	r8,r10,1
80002486:	e0 48 00 fe 	cp.w	r8,254
8000248a:	e0 88 00 03 	brls	80002490 <getBaudDiv+0x1c>
8000248e:	5e fe       	retal	-1
80002490:	5c 8c       	casts.h	r12
80002492:	5e fc       	retal	r12

80002494 <spi_initMaster>:
80002494:	d4 01       	pushm	lr
80002496:	30 18       	mov	r8,1
80002498:	18 99       	mov	r9,r12
8000249a:	f7 3a 00 0d 	ld.ub	r10,r11[13]
8000249e:	f0 0a 18 00 	cp.b	r10,r8
800024a2:	e0 88 00 04 	brls	800024aa <spi_initMaster+0x16>
800024a6:	30 2c       	mov	r12,2
800024a8:	d8 02       	popm	pc
800024aa:	30 0a       	mov	r10,0
800024ac:	e0 68 00 80 	mov	r8,128
800024b0:	99 08       	st.w	r12[0x0],r8
800024b2:	30 1e       	mov	lr,1
800024b4:	78 18       	ld.w	r8,r12[0x4]
800024b6:	f7 3b 00 0d 	ld.ub	r11,r11[13]
800024ba:	14 9c       	mov	r12,r10
800024bc:	f1 de d0 01 	bfins	r8,lr,0x0,0x1
800024c0:	f1 db d0 81 	bfins	r8,r11,0x4,0x1
800024c4:	f1 da d0 e1 	bfins	r8,r10,0x7,0x1
800024c8:	30 fa       	mov	r10,15
800024ca:	f1 da d2 04 	bfins	r8,r10,0x10,0x4
800024ce:	93 18       	st.w	r9[0x4],r8
800024d0:	d8 02       	popm	pc

800024d2 <spi_selectionMode>:
800024d2:	d4 01       	pushm	lr
800024d4:	30 18       	mov	r8,1
800024d6:	f0 0b 18 00 	cp.b	r11,r8
800024da:	5f be       	srhi	lr
800024dc:	f0 0a 18 00 	cp.b	r10,r8
800024e0:	5f b8       	srhi	r8
800024e2:	1c 48       	or	r8,lr
800024e4:	c0 30       	breq	800024ea <spi_selectionMode+0x18>
800024e6:	30 2c       	mov	r12,2
800024e8:	d8 02       	popm	pc
800024ea:	78 18       	ld.w	r8,r12[0x4]
800024ec:	f1 db d0 21 	bfins	r8,r11,0x1,0x1
800024f0:	f1 da d0 41 	bfins	r8,r10,0x2,0x1
800024f4:	f1 d9 d3 08 	bfins	r8,r9,0x18,0x8
800024f8:	99 18       	st.w	r12[0x4],r8
800024fa:	d8 0a       	popm	pc,r12=0

800024fc <spi_selectChip>:
800024fc:	78 19       	ld.w	r9,r12[0x4]
800024fe:	18 98       	mov	r8,r12
80002500:	ea 19 00 0f 	orh	r9,0xf
80002504:	99 19       	st.w	r12[0x4],r9
80002506:	78 1c       	ld.w	r12,r12[0x4]
80002508:	e2 1c 00 04 	andl	r12,0x4,COH
8000250c:	c1 00       	breq	8000252c <spi_selectChip+0x30>
8000250e:	30 e9       	mov	r9,14
80002510:	f2 0b 18 00 	cp.b	r11,r9
80002514:	e0 8b 00 1a 	brhi	80002548 <spi_selectChip+0x4c>
80002518:	70 19       	ld.w	r9,r8[0x4]
8000251a:	b1 6b       	lsl	r11,0x10
8000251c:	30 0c       	mov	r12,0
8000251e:	ea 1b ff f0 	orh	r11,0xfff0
80002522:	e8 1b ff ff 	orl	r11,0xffff
80002526:	12 6b       	and	r11,r9
80002528:	91 1b       	st.w	r8[0x4],r11
8000252a:	5e fc       	retal	r12
8000252c:	30 39       	mov	r9,3
8000252e:	f2 0b 18 00 	cp.b	r11,r9
80002532:	e0 8b 00 0b 	brhi	80002548 <spi_selectChip+0x4c>
80002536:	70 19       	ld.w	r9,r8[0x4]
80002538:	2f 0b       	sub	r11,-16
8000253a:	30 1a       	mov	r10,1
8000253c:	f4 0b 09 4b 	lsl	r11,r10,r11
80002540:	5c db       	com	r11
80002542:	12 6b       	and	r11,r9
80002544:	91 1b       	st.w	r8[0x4],r11
80002546:	5e fc       	retal	r12
80002548:	30 2c       	mov	r12,2
8000254a:	5e fc       	retal	r12

8000254c <spi_unselectChip>:
8000254c:	e0 68 3a 98 	mov	r8,15000
80002550:	c0 58       	rjmp	8000255a <spi_unselectChip+0xe>
80002552:	58 08       	cp.w	r8,0
80002554:	c0 21       	brne	80002558 <spi_unselectChip+0xc>
80002556:	5e ff       	retal	1
80002558:	20 18       	sub	r8,1
8000255a:	78 49       	ld.w	r9,r12[0x10]
8000255c:	ed b9 00 09 	bld	r9,0x9
80002560:	cf 91       	brne	80002552 <spi_unselectChip+0x6>
80002562:	78 18       	ld.w	r8,r12[0x4]
80002564:	ea 18 00 0f 	orh	r8,0xf
80002568:	99 18       	st.w	r12[0x4],r8
8000256a:	fc 18 01 00 	movh	r8,0x100
8000256e:	99 08       	st.w	r12[0x0],r8
80002570:	5e fd       	retal	0
80002572:	d7 03       	nop

80002574 <spi_setupChipReg>:
80002574:	d4 31       	pushm	r0-r7,lr
80002576:	30 32       	mov	r2,3
80002578:	16 97       	mov	r7,r11
8000257a:	18 96       	mov	r6,r12
8000257c:	f7 34 00 0c 	ld.ub	r4,r11[12]
80002580:	e4 04 18 00 	cp.b	r4,r2
80002584:	e0 8b 00 46 	brhi	80002610 <spi_setupChipReg+0x9c>
80002588:	f7 31 00 0b 	ld.ub	r1,r11[11]
8000258c:	30 15       	mov	r5,1
8000258e:	ea 01 18 00 	cp.b	r1,r5
80002592:	e0 8b 00 3f 	brhi	80002610 <spi_setupChipReg+0x9c>
80002596:	f7 33 00 08 	ld.ub	r3,r11[8]
8000259a:	30 78       	mov	r8,7
8000259c:	f0 03 18 00 	cp.b	r3,r8
800025a0:	e0 88 00 38 	brls	80002610 <spi_setupChipReg+0x9c>
800025a4:	31 08       	mov	r8,16
800025a6:	f0 03 18 00 	cp.b	r3,r8
800025aa:	e0 8b 00 33 	brhi	80002610 <spi_setupChipReg+0x9c>
800025ae:	14 9b       	mov	r11,r10
800025b0:	6e 1c       	ld.w	r12,r7[0x4]
800025b2:	c6 1f       	rcall	80002474 <getBaudDiv>
800025b4:	c2 e5       	brlt	80002610 <spi_setupChipReg+0x9c>
800025b6:	08 9a       	mov	r10,r4
800025b8:	ec 1a 00 01 	eorl	r10,0x1
800025bc:	30 08       	mov	r8,0
800025be:	a1 94       	lsr	r4,0x1
800025c0:	f1 d4 d0 01 	bfins	r8,r4,0x0,0x1
800025c4:	f1 da d0 21 	bfins	r8,r10,0x1,0x1
800025c8:	ef 3a 00 09 	ld.ub	r10,r7[9]
800025cc:	20 83       	sub	r3,8
800025ce:	f1 d1 d0 61 	bfins	r8,r1,0x3,0x1
800025d2:	0f 89       	ld.ub	r9,r7[0x0]
800025d4:	f1 d3 d0 84 	bfins	r8,r3,0x4,0x4
800025d8:	f1 dc d1 08 	bfins	r8,r12,0x8,0x8
800025dc:	f1 da d2 08 	bfins	r8,r10,0x10,0x8
800025e0:	ef 3a 00 0a 	ld.ub	r10,r7[10]
800025e4:	f1 da d3 08 	bfins	r8,r10,0x18,0x8
800025e8:	ea 09 18 00 	cp.b	r9,r5
800025ec:	c0 c0       	breq	80002604 <spi_setupChipReg+0x90>
800025ee:	c0 93       	brcs	80002600 <spi_setupChipReg+0x8c>
800025f0:	30 2a       	mov	r10,2
800025f2:	f4 09 18 00 	cp.b	r9,r10
800025f6:	c0 90       	breq	80002608 <spi_setupChipReg+0x94>
800025f8:	e4 09 18 00 	cp.b	r9,r2
800025fc:	c0 a1       	brne	80002610 <spi_setupChipReg+0x9c>
800025fe:	c0 78       	rjmp	8000260c <spi_setupChipReg+0x98>
80002600:	8d c8       	st.w	r6[0x30],r8
80002602:	c0 68       	rjmp	8000260e <spi_setupChipReg+0x9a>
80002604:	8d d8       	st.w	r6[0x34],r8
80002606:	c0 48       	rjmp	8000260e <spi_setupChipReg+0x9a>
80002608:	8d e8       	st.w	r6[0x38],r8
8000260a:	c0 28       	rjmp	8000260e <spi_setupChipReg+0x9a>
8000260c:	8d f8       	st.w	r6[0x3c],r8
8000260e:	d8 3a       	popm	r0-r7,pc,r12=0
80002610:	30 2c       	mov	r12,2
80002612:	d8 32       	popm	r0-r7,pc

80002614 <spi_enable>:
80002614:	30 18       	mov	r8,1
80002616:	99 08       	st.w	r12[0x0],r8
80002618:	5e fc       	retal	r12

8000261a <spi_write>:
8000261a:	e0 68 3a 98 	mov	r8,15000
8000261e:	c0 58       	rjmp	80002628 <spi_write+0xe>
80002620:	58 08       	cp.w	r8,0
80002622:	c0 21       	brne	80002626 <spi_write+0xc>
80002624:	5e ff       	retal	1
80002626:	20 18       	sub	r8,1
80002628:	78 49       	ld.w	r9,r12[0x10]
8000262a:	ed b9 00 01 	bld	r9,0x1
8000262e:	cf 91       	brne	80002620 <spi_write+0x6>
80002630:	5c 7b       	castu.h	r11
80002632:	99 3b       	st.w	r12[0xc],r11
80002634:	5e fd       	retal	0

80002636 <spi_read>:
80002636:	e0 68 3a 98 	mov	r8,15000
8000263a:	c0 58       	rjmp	80002644 <spi_read+0xe>
8000263c:	58 08       	cp.w	r8,0
8000263e:	c0 21       	brne	80002642 <spi_read+0xc>
80002640:	5e ff       	retal	1
80002642:	20 18       	sub	r8,1
80002644:	78 49       	ld.w	r9,r12[0x10]
80002646:	e2 19 02 01 	andl	r9,0x201,COH
8000264a:	e0 49 02 01 	cp.w	r9,513
8000264e:	cf 71       	brne	8000263c <spi_read+0x6>
80002650:	78 28       	ld.w	r8,r12[0x8]
80002652:	30 0c       	mov	r12,0
80002654:	b6 08       	st.h	r11[0x0],r8
80002656:	5e fc       	retal	r12

80002658 <LED_Display>:
80002658:	d4 01       	pushm	lr
8000265a:	fe c8 8e 42 	sub	r8,pc,-29118
8000265e:	f9 dc c0 08 	bfextu	r12,r12,0x0,0x8
80002662:	f0 cb ff 7c 	sub	r11,r8,-132
80002666:	32 09       	mov	r9,32
80002668:	2f c8       	sub	r8,-4
8000266a:	93 0c       	st.w	r9[0x0],r12
8000266c:	c1 58       	rjmp	80002696 <LED_Display+0x3e>
8000266e:	f0 f9 ff fc 	ld.w	r9,r8[-4]
80002672:	70 0a       	ld.w	r10,r8[0x0]
80002674:	fd dc c0 01 	bfextu	lr,r12,0x0,0x1
80002678:	a9 69       	lsl	r9,0x8
8000267a:	e0 29 f0 00 	sub	r9,61440
8000267e:	58 0e       	cp.w	lr,0
80002680:	f3 fa 1a 16 	st.wne	r9[0x58],r10
80002684:	f3 fa 0a 15 	st.weq	r9[0x54],r10
80002688:	70 0a       	ld.w	r10,r8[0x0]
8000268a:	f3 4a 00 44 	st.w	r9[68],r10
8000268e:	a1 9c       	lsr	r12,0x1
80002690:	70 0a       	ld.w	r10,r8[0x0]
80002692:	2f 08       	sub	r8,-16
80002694:	93 1a       	st.w	r9[0x4],r10
80002696:	16 38       	cp.w	r8,r11
80002698:	ce b1       	brne	8000266e <LED_Display+0x16>
8000269a:	d8 02       	popm	pc

8000269c <gpio_enable_module_pin>:
8000269c:	f8 08 16 05 	lsr	r8,r12,0x5
800026a0:	a9 68       	lsl	r8,0x8
800026a2:	e0 28 f0 00 	sub	r8,61440
800026a6:	58 1b       	cp.w	r11,1
800026a8:	c0 d0       	breq	800026c2 <gpio_enable_module_pin+0x26>
800026aa:	c0 63       	brcs	800026b6 <gpio_enable_module_pin+0x1a>
800026ac:	58 2b       	cp.w	r11,2
800026ae:	c0 f0       	breq	800026cc <gpio_enable_module_pin+0x30>
800026b0:	58 3b       	cp.w	r11,3
800026b2:	c1 20       	breq	800026d6 <gpio_enable_module_pin+0x3a>
800026b4:	5e ff       	retal	1
800026b6:	30 19       	mov	r9,1
800026b8:	f2 0c 09 49 	lsl	r9,r9,r12
800026bc:	91 69       	st.w	r8[0x18],r9
800026be:	91 a9       	st.w	r8[0x28],r9
800026c0:	c1 08       	rjmp	800026e0 <gpio_enable_module_pin+0x44>
800026c2:	f6 0c 09 4b 	lsl	r11,r11,r12
800026c6:	91 5b       	st.w	r8[0x14],r11
800026c8:	91 ab       	st.w	r8[0x28],r11
800026ca:	c0 b8       	rjmp	800026e0 <gpio_enable_module_pin+0x44>
800026cc:	30 19       	mov	r9,1
800026ce:	f2 0c 09 49 	lsl	r9,r9,r12
800026d2:	91 69       	st.w	r8[0x18],r9
800026d4:	c0 58       	rjmp	800026de <gpio_enable_module_pin+0x42>
800026d6:	30 19       	mov	r9,1
800026d8:	f2 0c 09 49 	lsl	r9,r9,r12
800026dc:	91 59       	st.w	r8[0x14],r9
800026de:	91 99       	st.w	r8[0x24],r9
800026e0:	30 19       	mov	r9,1
800026e2:	f2 0c 09 4c 	lsl	r12,r9,r12
800026e6:	91 2c       	st.w	r8[0x8],r12
800026e8:	5e fd       	retal	0
800026ea:	d7 03       	nop

800026ec <gpio_enable_module>:
800026ec:	d4 21       	pushm	r4-r7,lr
800026ee:	30 07       	mov	r7,0
800026f0:	18 96       	mov	r6,r12
800026f2:	16 94       	mov	r4,r11
800026f4:	0e 95       	mov	r5,r7
800026f6:	c0 78       	rjmp	80002704 <gpio_enable_module+0x18>
800026f8:	6c 1b       	ld.w	r11,r6[0x4]
800026fa:	6c 0c       	ld.w	r12,r6[0x0]
800026fc:	2f f7       	sub	r7,-1
800026fe:	2f 86       	sub	r6,-8
80002700:	cc ef       	rcall	8000269c <gpio_enable_module_pin>
80002702:	18 45       	or	r5,r12
80002704:	08 37       	cp.w	r7,r4
80002706:	cf 93       	brcs	800026f8 <gpio_enable_module+0xc>
80002708:	0a 9c       	mov	r12,r5
8000270a:	d8 22       	popm	r4-r7,pc

8000270c <gpio_set_gpio_pin>:
8000270c:	30 18       	mov	r8,1
8000270e:	f0 0c 09 48 	lsl	r8,r8,r12
80002712:	a5 9c       	lsr	r12,0x5
80002714:	a9 6c       	lsl	r12,0x8
80002716:	e0 2c f0 00 	sub	r12,61440
8000271a:	f9 48 00 54 	st.w	r12[84],r8
8000271e:	f9 48 00 44 	st.w	r12[68],r8
80002722:	99 18       	st.w	r12[0x4],r8
80002724:	5e fc       	retal	r12

80002726 <gpio_clr_gpio_pin>:
80002726:	30 18       	mov	r8,1
80002728:	f0 0c 09 48 	lsl	r8,r8,r12
8000272c:	a5 9c       	lsr	r12,0x5
8000272e:	a9 6c       	lsl	r12,0x8
80002730:	e0 2c f0 00 	sub	r12,61440
80002734:	f9 48 00 58 	st.w	r12[88],r8
80002738:	f9 48 00 44 	st.w	r12[68],r8
8000273c:	99 18       	st.w	r12[0x4],r8
8000273e:	5e fc       	retal	r12

80002740 <_unhandled_interrupt>:
80002740:	c0 08       	rjmp	80002740 <_unhandled_interrupt>
80002742:	d7 03       	nop

80002744 <INTC_register_interrupt>:
80002744:	f3 db c0 05 	bfextu	r9,r11,0x0,0x5
80002748:	fe c8 8e b0 	sub	r8,pc,-29008
8000274c:	a5 9b       	lsr	r11,0x5
8000274e:	f0 0b 00 38 	add	r8,r8,r11<<0x3
80002752:	70 18       	ld.w	r8,r8[0x4]
80002754:	f0 09 09 2c 	st.w	r8[r9<<0x2],r12
80002758:	58 0a       	cp.w	r10,0
8000275a:	c0 c1       	brne	80002772 <INTC_register_interrupt+0x2e>
8000275c:	fe 78 08 00 	mov	r8,-63488
80002760:	fe c9 91 60 	sub	r9,pc,-28320
80002764:	fe ca 90 60 	sub	r10,pc,-28576
80002768:	f4 09 01 09 	sub	r9,r10,r9
8000276c:	f0 0b 09 29 	st.w	r8[r11<<0x2],r9
80002770:	5e fc       	retal	r12
80002772:	58 1a       	cp.w	r10,1
80002774:	c0 91       	brne	80002786 <INTC_register_interrupt+0x42>
80002776:	fe c8 91 76 	sub	r8,pc,-28298
8000277a:	fe c9 90 68 	sub	r9,pc,-28568
8000277e:	f2 08 01 08 	sub	r8,r9,r8
80002782:	bf a8       	sbr	r8,0x1e
80002784:	c1 18       	rjmp	800027a6 <INTC_register_interrupt+0x62>
80002786:	fe c8 91 86 	sub	r8,pc,-28282
8000278a:	58 2a       	cp.w	r10,2
8000278c:	c0 71       	brne	8000279a <INTC_register_interrupt+0x56>
8000278e:	fe c9 90 6e 	sub	r9,pc,-28562
80002792:	f2 08 01 08 	sub	r8,r9,r8
80002796:	bf b8       	sbr	r8,0x1f
80002798:	c0 78       	rjmp	800027a6 <INTC_register_interrupt+0x62>
8000279a:	fe c9 90 6c 	sub	r9,pc,-28564
8000279e:	f2 08 01 08 	sub	r8,r9,r8
800027a2:	ea 18 c0 00 	orh	r8,0xc000
800027a6:	fe 79 08 00 	mov	r9,-63488
800027aa:	f2 0b 09 28 	st.w	r9[r11<<0x2],r8
800027ae:	5e fc       	retal	r12

800027b0 <INTC_init_interrupts>:
800027b0:	d4 21       	pushm	r4-r7,lr
800027b2:	fe c8 91 b2 	sub	r8,pc,-28238
800027b6:	e3 b8 00 01 	mtsr	0x4,r8
800027ba:	fe ce 90 b6 	sub	lr,pc,-28490
800027be:	fe c9 8f 26 	sub	r9,pc,-28890
800027c2:	10 1e       	sub	lr,r8
800027c4:	fe cc 00 84 	sub	r12,pc,132
800027c8:	30 08       	mov	r8,0
800027ca:	fe 7b 08 00 	mov	r11,-63488
800027ce:	c0 e8       	rjmp	800027ea <INTC_init_interrupts+0x3a>
800027d0:	72 16       	ld.w	r6,r9[0x4]
800027d2:	ec 0a 00 26 	add	r6,r6,r10<<0x2
800027d6:	2f fa       	sub	r10,-1
800027d8:	8d 0c       	st.w	r6[0x0],r12
800027da:	0e 3a       	cp.w	r10,r7
800027dc:	cf a3       	brcs	800027d0 <INTC_init_interrupts+0x20>
800027de:	f6 08 09 2e 	st.w	r11[r8<<0x2],lr
800027e2:	2f 89       	sub	r9,-8
800027e4:	2f f8       	sub	r8,-1
800027e6:	59 48       	cp.w	r8,20
800027e8:	c0 40       	breq	800027f0 <INTC_init_interrupts+0x40>
800027ea:	30 0a       	mov	r10,0
800027ec:	72 07       	ld.w	r7,r9[0x0]
800027ee:	cf 6b       	rjmp	800027da <INTC_init_interrupts+0x2a>
800027f0:	d8 22       	popm	r4-r7,pc
800027f2:	d7 03       	nop

800027f4 <_get_interrupt_handler>:
800027f4:	e0 68 00 83 	mov	r8,131
800027f8:	fe 79 08 00 	mov	r9,-63488
800027fc:	f0 0c 01 0c 	sub	r12,r8,r12
80002800:	f2 0c 03 28 	ld.w	r8,r9[r12<<0x2]
80002804:	f0 ca ff c0 	sub	r10,r8,-64
80002808:	f2 0a 03 2c 	ld.w	r12,r9[r10<<0x2]
8000280c:	58 0c       	cp.w	r12,0
8000280e:	5e 0c       	reteq	r12
80002810:	fe c9 8f 78 	sub	r9,pc,-28808
80002814:	f8 0c 12 00 	clz	r12,r12
80002818:	f2 08 00 38 	add	r8,r9,r8<<0x3
8000281c:	f8 0c 11 1f 	rsub	r12,r12,31
80002820:	70 18       	ld.w	r8,r8[0x4]
80002822:	f0 0c 03 2c 	ld.w	r12,r8[r12<<0x2]
80002826:	5e fc       	retal	r12

80002828 <pm_switch_to_osc0>:
80002828:	ec 5b bb 9f 	cp.w	r11,899999
8000282c:	e0 8b 00 04 	brhi	80002834 <pm_switch_to_osc0+0xc>
80002830:	30 4b       	mov	r11,4
80002832:	c1 38       	rjmp	80002858 <pm_switch_to_osc0+0x30>
80002834:	e0 68 c6 bf 	mov	r8,50879
80002838:	ea 18 00 2d 	orh	r8,0x2d
8000283c:	10 3b       	cp.w	r11,r8
8000283e:	e0 8b 00 04 	brhi	80002846 <pm_switch_to_osc0+0x1e>
80002842:	30 5b       	mov	r11,5
80002844:	c0 a8       	rjmp	80002858 <pm_switch_to_osc0+0x30>
80002846:	e0 68 12 00 	mov	r8,4608
8000284a:	ea 18 00 7a 	orh	r8,0x7a
8000284e:	10 3b       	cp.w	r11,r8
80002850:	f9 bb 03 06 	movlo	r11,6
80002854:	f9 bb 02 07 	movhs	r11,7
80002858:	78 a8       	ld.w	r8,r12[0x28]
8000285a:	f1 db d0 03 	bfins	r8,r11,0x0,0x3
8000285e:	99 a8       	st.w	r12[0x28],r8
80002860:	78 a8       	ld.w	r8,r12[0x28]
80002862:	f1 da d1 03 	bfins	r8,r10,0x8,0x3
80002866:	99 a8       	st.w	r12[0x28],r8
80002868:	78 08       	ld.w	r8,r12[0x0]
8000286a:	a3 a8       	sbr	r8,0x2
8000286c:	99 08       	st.w	r12[0x0],r8
8000286e:	79 58       	ld.w	r8,r12[0x54]
80002870:	ed b8 00 07 	bld	r8,0x7
80002874:	cf d1       	brne	8000286e <pm_switch_to_osc0+0x46>
80002876:	78 08       	ld.w	r8,r12[0x0]
80002878:	30 19       	mov	r9,1
8000287a:	f1 d9 d0 02 	bfins	r8,r9,0x0,0x2
8000287e:	99 08       	st.w	r12[0x0],r8
80002880:	5e fc       	retal	r12
80002882:	d7 03       	nop

80002884 <pcl_switch_to_osc>:
80002884:	d4 21       	pushm	r4-r7,lr
80002886:	18 97       	mov	r7,r12
80002888:	58 0c       	cp.w	r12,0
8000288a:	c0 40       	breq	80002892 <pcl_switch_to_osc+0xe>
8000288c:	fe 7c d8 f0 	mov	r12,-10000
80002890:	d8 22       	popm	r4-r7,pc
80002892:	fe 7c 0c 00 	mov	r12,-62464
80002896:	cc 9f       	rcall	80002828 <pm_switch_to_osc0>
80002898:	0e 9c       	mov	r12,r7
8000289a:	d8 22       	popm	r4-r7,pc

8000289c <usart_putchar>:
8000289c:	e0 68 27 10 	mov	r8,10000
800028a0:	20 18       	sub	r8,1
800028a2:	5b f8       	cp.w	r8,-1
800028a4:	c0 21       	brne	800028a8 <usart_putchar+0xc>
800028a6:	5e f8       	retal	r8
800028a8:	78 59       	ld.w	r9,r12[0x14]
800028aa:	ed b9 00 01 	bld	r9,0x1
800028ae:	cf 91       	brne	800028a0 <usart_putchar+0x4>
800028b0:	f7 db c0 09 	bfextu	r11,r11,0x0,0x9
800028b4:	99 7b       	st.w	r12[0x1c],r11
800028b6:	5e fd       	retal	0

800028b8 <usart_getchar>:
800028b8:	78 58       	ld.w	r8,r12[0x14]
800028ba:	e2 18 00 e0 	andl	r8,0xe0,COH
800028be:	c0 20       	breq	800028c2 <usart_getchar+0xa>
800028c0:	5e fe       	retal	-1
800028c2:	78 58       	ld.w	r8,r12[0x14]
800028c4:	ed b8 00 00 	bld	r8,0x0
800028c8:	cf 81       	brne	800028b8 <usart_getchar>
800028ca:	78 6c       	ld.w	r12,r12[0x18]
800028cc:	f9 dc c0 09 	bfextu	r12,r12,0x0,0x9
800028d0:	5e fc       	retal	r12
800028d2:	d7 03       	nop

800028d4 <initialiseLCD>:
800028d4:	d4 21       	pushm	r4-r7,lr
800028d6:	20 4d       	sub	sp,16
800028d8:	d3 03       	ssrf	0x10
800028da:	c6 bf       	rcall	800027b0 <INTC_init_interrupts>
800028dc:	d5 03       	csrf	0x10
800028de:	fe c8 8f 6a 	sub	r8,pc,-28822
800028e2:	f0 ea 00 08 	ld.d	r10,r8[8]
800028e6:	fa eb 00 08 	st.d	sp[8],r10
800028ea:	f0 e8 00 00 	ld.d	r8,r8[0]
800028ee:	1a 97       	mov	r7,sp
800028f0:	fa e9 00 00 	st.d	sp[0],r8
800028f4:	30 4b       	mov	r11,4
800028f6:	fe cc 8f a2 	sub	r12,pc,-28766
800028fa:	cf 9e       	rcall	800026ec <gpio_enable_module>
800028fc:	1a 9b       	mov	r11,sp
800028fe:	fe 7c 28 00 	mov	r12,-55296
80002902:	fe b0 fd c9 	rcall	80002494 <spi_initMaster>
80002906:	30 09       	mov	r9,0
80002908:	fe 7c 28 00 	mov	r12,-55296
8000290c:	12 9a       	mov	r10,r9
8000290e:	12 9b       	mov	r11,r9
80002910:	fe b0 fd e1 	rcall	800024d2 <spi_selectionMode>
80002914:	fe 7c 28 00 	mov	r12,-55296
80002918:	c7 ee       	rcall	80002614 <spi_enable>
8000291a:	1a 9b       	mov	r11,sp
8000291c:	e0 6a 1b 00 	mov	r10,6912
80002920:	ea 1a 00 b7 	orh	r10,0xb7
80002924:	fe 7c 28 00 	mov	r12,-55296
80002928:	c2 6e       	rcall	80002574 <spi_setupChipReg>
8000292a:	30 1b       	mov	r11,1
8000292c:	16 9c       	mov	r12,r11
8000292e:	fe b0 fc 6f 	rcall	8000220c <dip204_init>
80002932:	2f cd       	sub	sp,-16
80002934:	d8 22       	popm	r4-r7,pc
80002936:	d7 03       	nop

80002938 <main>:
80002938:	d4 21       	pushm	r4-r7,lr
8000293a:	30 3a       	mov	r10,3
8000293c:	e0 6b 1b 00 	mov	r11,6912
80002940:	ea 1b 00 b7 	orh	r11,0xb7
80002944:	30 0c       	mov	r12,0
80002946:	c9 ff       	rcall	80002884 <pcl_switch_to_osc>
80002948:	30 0c       	mov	r12,0
8000294a:	c8 7e       	rcall	80002658 <LED_Display>
8000294c:	cc 4f       	rcall	800028d4 <initialiseLCD>
8000294e:	30 1b       	mov	r11,1
80002950:	16 9c       	mov	r12,r11
80002952:	e0 a0 05 3d 	rcall	800033cc <xQueueCreateCountingSemaphore>
80002956:	e0 68 06 58 	mov	r8,1624
8000295a:	30 1b       	mov	r11,1
8000295c:	91 0c       	st.w	r8[0x0],r12
8000295e:	16 9c       	mov	r12,r11
80002960:	e0 a0 05 36 	rcall	800033cc <xQueueCreateCountingSemaphore>
80002964:	e0 68 06 48 	mov	r8,1608
80002968:	30 1b       	mov	r11,1
8000296a:	91 0c       	st.w	r8[0x0],r12
8000296c:	16 9c       	mov	r12,r11
8000296e:	e0 a0 05 2f 	rcall	800033cc <xQueueCreateCountingSemaphore>
80002972:	e0 6e 06 5c 	mov	lr,1628
80002976:	30 07       	mov	r7,0
80002978:	1a d7       	st.w	--sp,r7
8000297a:	1a d7       	st.w	--sp,r7
8000297c:	1a d7       	st.w	--sp,r7
8000297e:	9d 0c       	st.w	lr[0x0],r12
80002980:	0e 98       	mov	r8,r7
80002982:	0e 99       	mov	r9,r7
80002984:	e0 6a 03 00 	mov	r10,768
80002988:	fe cb 8f 14 	sub	r11,pc,-28908
8000298c:	fe cc fe 30 	sub	r12,pc,-464
80002990:	e0 a0 07 6e 	rcall	8000386c <xTaskGenericCreate>
80002994:	0e 99       	mov	r9,r7
80002996:	1a d7       	st.w	--sp,r7
80002998:	30 28       	mov	r8,2
8000299a:	1a d7       	st.w	--sp,r7
8000299c:	e0 6a 01 00 	mov	r10,256
800029a0:	1a d7       	st.w	--sp,r7
800029a2:	fe cb 8f 26 	sub	r11,pc,-28890
800029a6:	fe cc fe f6 	sub	r12,pc,-266
800029aa:	e0 a0 07 61 	rcall	8000386c <xTaskGenericCreate>
800029ae:	30 18       	mov	r8,1
800029b0:	1a d7       	st.w	--sp,r7
800029b2:	0e 99       	mov	r9,r7
800029b4:	1a d7       	st.w	--sp,r7
800029b6:	e0 6a 01 00 	mov	r10,256
800029ba:	1a d7       	st.w	--sp,r7
800029bc:	fe cb 8f 38 	sub	r11,pc,-28872
800029c0:	fe cc ff ec 	sub	r12,pc,-20
800029c4:	e0 a0 07 54 	rcall	8000386c <xTaskGenericCreate>
800029c8:	2f 7d       	sub	sp,-36
800029ca:	e0 a0 08 11 	rcall	800039ec <vTaskStartScheduler>
800029ce:	0e 9c       	mov	r12,r7
800029d0:	d8 22       	popm	r4-r7,pc
800029d2:	d7 03       	nop

800029d4 <vReadingADC>:
800029d4:	d4 21       	pushm	r4-r7,lr
800029d6:	30 1b       	mov	r11,1
800029d8:	fe cc 8f 08 	sub	r12,pc,-28920
800029dc:	c8 8e       	rcall	800026ec <gpio_enable_module>
800029de:	fe 77 3c 00 	mov	r7,-50176
800029e2:	6e 18       	ld.w	r8,r7[0x4]
800029e4:	a9 a8       	sbr	r8,0x8
800029e6:	0e 9c       	mov	r12,r7
800029e8:	8f 18       	st.w	r7[0x4],r8
800029ea:	fe b0 fc e5 	rcall	800023b4 <adc_configure>
800029ee:	0e 9c       	mov	r12,r7
800029f0:	30 1b       	mov	r11,1
800029f2:	fe b0 fc ed 	rcall	800023cc <adc_enable>
800029f6:	0e 9c       	mov	r12,r7
800029f8:	30 0b       	mov	r11,0
800029fa:	e0 65 06 50 	mov	r5,1616
800029fe:	fe b0 fc e7 	rcall	800023cc <adc_enable>
80002a02:	e0 67 06 48 	mov	r7,1608
80002a06:	fe 7c 3c 00 	mov	r12,-50176
80002a0a:	fe b0 fc de 	rcall	800023c6 <adc_start>
80002a0e:	30 1b       	mov	r11,1
80002a10:	fe 7c 3c 00 	mov	r12,-50176
80002a14:	fe b0 fc e1 	rcall	800023d6 <adc_get_value>
80002a18:	30 0b       	mov	r11,0
80002a1a:	18 94       	mov	r4,r12
80002a1c:	fe 7c 3c 00 	mov	r12,-50176
80002a20:	fe b0 fc db 	rcall	800023d6 <adc_get_value>
80002a24:	30 09       	mov	r9,0
80002a26:	18 96       	mov	r6,r12
80002a28:	12 9b       	mov	r11,r9
80002a2a:	3f fa       	mov	r10,-1
80002a2c:	6e 0c       	ld.w	r12,r7[0x0]
80002a2e:	e0 a0 03 87 	rcall	8000313c <xQueueGenericReceive>
80002a32:	08 9c       	mov	r12,r4
80002a34:	e0 a0 0a 4f 	rcall	80003ed2 <__avr32_u32_to_f64>
80002a38:	30 08       	mov	r8,0
80002a3a:	e0 69 f8 00 	mov	r9,63488
80002a3e:	ea 19 40 8f 	orh	r9,0x408f
80002a42:	e0 a0 0a f1 	rcall	80004024 <__avr32_f64_div>
80002a46:	fc 19 40 39 	movh	r9,0x4039
80002a4a:	30 08       	mov	r8,0
80002a4c:	e0 a0 07 ec 	rcall	80003a24 <__avr32_f64_mul>
80002a50:	e0 a0 0a 2e 	rcall	80003eac <__avr32_f64_to_s32>
80002a54:	2f bc       	sub	r12,-5
80002a56:	30 09       	mov	r9,0
80002a58:	8b 0c       	st.w	r5[0x0],r12
80002a5a:	12 9a       	mov	r10,r9
80002a5c:	6e 0c       	ld.w	r12,r7[0x0]
80002a5e:	12 9b       	mov	r11,r9
80002a60:	e0 a0 04 22 	rcall	800032a4 <xQueueGenericSend>
80002a64:	e0 46 03 b4 	cp.w	r6,948
80002a68:	e0 88 00 04 	brls	80002a70 <vReadingADC+0x9c>
80002a6c:	3e c6       	mov	r6,-20
80002a6e:	c0 b8       	rjmp	80002a84 <vReadingADC+0xb0>
80002a70:	fe c9 90 ec 	sub	r9,pc,-28436
80002a74:	30 08       	mov	r8,0
80002a76:	2f f8       	sub	r8,-1
80002a78:	13 2a       	ld.uh	r10,r9++
80002a7a:	0c 3a       	cp.w	r10,r6
80002a7c:	fe 9b ff fd 	brhi	80002a76 <vReadingADC+0xa2>
80002a80:	f0 c6 00 15 	sub	r6,r8,21
80002a84:	e0 64 06 5c 	mov	r4,1628
80002a88:	30 09       	mov	r9,0
80002a8a:	3f fa       	mov	r10,-1
80002a8c:	12 9b       	mov	r11,r9
80002a8e:	68 0c       	ld.w	r12,r4[0x0]
80002a90:	e0 a0 03 56 	rcall	8000313c <xQueueGenericReceive>
80002a94:	e0 68 06 4c 	mov	r8,1612
80002a98:	30 09       	mov	r9,0
80002a9a:	68 0c       	ld.w	r12,r4[0x0]
80002a9c:	91 06       	st.w	r8[0x0],r6
80002a9e:	12 9a       	mov	r10,r9
80002aa0:	12 9b       	mov	r11,r9
80002aa2:	e0 a0 04 01 	rcall	800032a4 <xQueueGenericSend>
80002aa6:	e0 6c 00 fa 	mov	r12,250
80002aaa:	e0 a0 06 79 	rcall	8000379c <vTaskDelay>
80002aae:	ca cb       	rjmp	80002a06 <vReadingADC+0x32>

80002ab0 <vCalculatePower>:
80002ab0:	d4 31       	pushm	r0-r7,lr
80002ab2:	e0 66 06 48 	mov	r6,1608
80002ab6:	e0 63 06 50 	mov	r3,1616
80002aba:	e0 67 06 5c 	mov	r7,1628
80002abe:	e0 62 06 4c 	mov	r2,1612
80002ac2:	30 09       	mov	r9,0
80002ac4:	3f fa       	mov	r10,-1
80002ac6:	12 9b       	mov	r11,r9
80002ac8:	6c 0c       	ld.w	r12,r6[0x0]
80002aca:	e0 a0 03 39 	rcall	8000313c <xQueueGenericReceive>
80002ace:	30 09       	mov	r9,0
80002ad0:	66 04       	ld.w	r4,r3[0x0]
80002ad2:	12 9a       	mov	r10,r9
80002ad4:	12 9b       	mov	r11,r9
80002ad6:	6c 0c       	ld.w	r12,r6[0x0]
80002ad8:	e0 a0 03 e6 	rcall	800032a4 <xQueueGenericSend>
80002adc:	30 09       	mov	r9,0
80002ade:	3f fa       	mov	r10,-1
80002ae0:	12 9b       	mov	r11,r9
80002ae2:	6e 0c       	ld.w	r12,r7[0x0]
80002ae4:	e0 a0 03 2c 	rcall	8000313c <xQueueGenericReceive>
80002ae8:	30 09       	mov	r9,0
80002aea:	64 05       	ld.w	r5,r2[0x0]
80002aec:	12 9a       	mov	r10,r9
80002aee:	12 9b       	mov	r11,r9
80002af0:	6e 0c       	ld.w	r12,r7[0x0]
80002af2:	e0 a0 03 d9 	rcall	800032a4 <xQueueGenericSend>
80002af6:	e8 05 01 08 	sub	r8,r4,r5
80002afa:	0a 34       	cp.w	r4,r5
80002afc:	e0 89 00 04 	brgt	80002b04 <vCalculatePower+0x54>
80002b00:	30 05       	mov	r5,0
80002b02:	c1 68       	rjmp	80002b2e <vCalculatePower+0x7e>
80002b04:	10 9c       	mov	r12,r8
80002b06:	58 68       	cp.w	r8,6
80002b08:	e0 8a 00 04 	brle	80002b10 <vCalculatePower+0x60>
80002b0c:	36 45       	mov	r5,100
80002b0e:	c1 08       	rjmp	80002b2e <vCalculatePower+0x7e>
80002b10:	e0 a0 09 e5 	rcall	80003eda <__avr32_s32_to_f64>
80002b14:	30 08       	mov	r8,0
80002b16:	fc 19 40 18 	movh	r9,0x4018
80002b1a:	e0 a0 0a 85 	rcall	80004024 <__avr32_f64_div>
80002b1e:	30 08       	mov	r8,0
80002b20:	fc 19 40 59 	movh	r9,0x4059
80002b24:	e0 a0 07 80 	rcall	80003a24 <__avr32_f64_mul>
80002b28:	e0 a0 09 c2 	rcall	80003eac <__avr32_f64_to_s32>
80002b2c:	18 95       	mov	r5,r12
80002b2e:	e0 64 06 58 	mov	r4,1624
80002b32:	30 09       	mov	r9,0
80002b34:	3f fa       	mov	r10,-1
80002b36:	12 9b       	mov	r11,r9
80002b38:	68 0c       	ld.w	r12,r4[0x0]
80002b3a:	e0 a0 03 01 	rcall	8000313c <xQueueGenericReceive>
80002b3e:	e0 68 06 54 	mov	r8,1620
80002b42:	30 09       	mov	r9,0
80002b44:	68 0c       	ld.w	r12,r4[0x0]
80002b46:	91 05       	st.w	r8[0x0],r5
80002b48:	12 9a       	mov	r10,r9
80002b4a:	12 9b       	mov	r11,r9
80002b4c:	e0 a0 03 ac 	rcall	800032a4 <xQueueGenericSend>
80002b50:	e0 6c 03 e8 	mov	r12,1000
80002b54:	e0 a0 06 24 	rcall	8000379c <vTaskDelay>
80002b58:	cb 5b       	rjmp	80002ac2 <vCalculatePower+0x12>
80002b5a:	d7 03       	nop

80002b5c <vOutputLCD>:
80002b5c:	d4 31       	pushm	r0-r7,lr
80002b5e:	20 2d       	sub	sp,8
80002b60:	30 1b       	mov	r11,1
80002b62:	16 9c       	mov	r12,r11
80002b64:	fe b0 fb 2c 	rcall	800021bc <dip204_set_cursor_position>
80002b68:	fe cc 90 dc 	sub	r12,pc,-28452
80002b6c:	fe b0 fb 12 	rcall	80002190 <dip204_write_string>
80002b70:	30 2b       	mov	r11,2
80002b72:	30 1c       	mov	r12,1
80002b74:	fe b0 fb 24 	rcall	800021bc <dip204_set_cursor_position>
80002b78:	fe cc 90 dc 	sub	r12,pc,-28452
80002b7c:	fe b0 fb 0a 	rcall	80002190 <dip204_write_string>
80002b80:	30 3b       	mov	r11,3
80002b82:	30 1c       	mov	r12,1
80002b84:	fe b0 fb 1c 	rcall	800021bc <dip204_set_cursor_position>
80002b88:	fe cc 90 dc 	sub	r12,pc,-28452
80002b8c:	30 16       	mov	r6,1
80002b8e:	fe b0 fb 01 	rcall	80002190 <dip204_write_string>
80002b92:	0c 93       	mov	r3,r6
80002b94:	fe b0 fb 32 	rcall	800021f8 <dip204_hide_cursor>
80002b98:	e0 62 06 48 	mov	r2,1608
80002b9c:	30 07       	mov	r7,0
80002b9e:	30 1b       	mov	r11,1
80002ba0:	30 fc       	mov	r12,15
80002ba2:	fe b0 fb 0d 	rcall	800021bc <dip204_set_cursor_position>
80002ba6:	fe cc 90 ee 	sub	r12,pc,-28434
80002baa:	fe b0 fa f3 	rcall	80002190 <dip204_write_string>
80002bae:	30 1b       	mov	r11,1
80002bb0:	30 fc       	mov	r12,15
80002bb2:	fe b0 fb 05 	rcall	800021bc <dip204_set_cursor_position>
80002bb6:	30 09       	mov	r9,0
80002bb8:	3f fa       	mov	r10,-1
80002bba:	12 9b       	mov	r11,r9
80002bbc:	64 0c       	ld.w	r12,r2[0x0]
80002bbe:	e0 a0 02 bf 	rcall	8000313c <xQueueGenericReceive>
80002bc2:	e0 68 06 50 	mov	r8,1616
80002bc6:	70 08       	ld.w	r8,r8[0x0]
80002bc8:	1a 95       	mov	r5,sp
80002bca:	fe cb 91 0a 	sub	r11,pc,-28406
80002bce:	1a d8       	st.w	--sp,r8
80002bd0:	0a 9c       	mov	r12,r5
80002bd2:	e0 a0 10 15 	rcall	80004bfc <sprintf>
80002bd6:	30 09       	mov	r9,0
80002bd8:	64 0c       	ld.w	r12,r2[0x0]
80002bda:	12 9a       	mov	r10,r9
80002bdc:	12 9b       	mov	r11,r9
80002bde:	e0 a0 03 63 	rcall	800032a4 <xQueueGenericSend>
80002be2:	0a 9c       	mov	r12,r5
80002be4:	fe b0 fa d6 	rcall	80002190 <dip204_write_string>
80002be8:	30 2b       	mov	r11,2
80002bea:	30 dc       	mov	r12,13
80002bec:	fe b0 fa e8 	rcall	800021bc <dip204_set_cursor_position>
80002bf0:	fe cc 91 38 	sub	r12,pc,-28360
80002bf4:	fe b0 fa ce 	rcall	80002190 <dip204_write_string>
80002bf8:	30 2b       	mov	r11,2
80002bfa:	30 dc       	mov	r12,13
80002bfc:	fe b0 fa e0 	rcall	800021bc <dip204_set_cursor_position>
80002c00:	30 09       	mov	r9,0
80002c02:	3f fa       	mov	r10,-1
80002c04:	12 9b       	mov	r11,r9
80002c06:	e0 64 06 5c 	mov	r4,1628
80002c0a:	68 0c       	ld.w	r12,r4[0x0]
80002c0c:	e0 a0 02 98 	rcall	8000313c <xQueueGenericReceive>
80002c10:	e0 68 06 4c 	mov	r8,1612
80002c14:	70 08       	ld.w	r8,r8[0x0]
80002c16:	fe cb 91 56 	sub	r11,pc,-28330
80002c1a:	1a d8       	st.w	--sp,r8
80002c1c:	0a 9c       	mov	r12,r5
80002c1e:	e0 a0 0f ef 	rcall	80004bfc <sprintf>
80002c22:	30 09       	mov	r9,0
80002c24:	68 0c       	ld.w	r12,r4[0x0]
80002c26:	12 9a       	mov	r10,r9
80002c28:	12 9b       	mov	r11,r9
80002c2a:	e0 a0 03 3d 	rcall	800032a4 <xQueueGenericSend>
80002c2e:	0a 9c       	mov	r12,r5
80002c30:	fe b0 fa b0 	rcall	80002190 <dip204_write_string>
80002c34:	30 3b       	mov	r11,3
80002c36:	30 8c       	mov	r12,8
80002c38:	fe b0 fa c2 	rcall	800021bc <dip204_set_cursor_position>
80002c3c:	fe cc 91 84 	sub	r12,pc,-28284
80002c40:	fe b0 fa a8 	rcall	80002190 <dip204_write_string>
80002c44:	30 3b       	mov	r11,3
80002c46:	30 8c       	mov	r12,8
80002c48:	fe b0 fa ba 	rcall	800021bc <dip204_set_cursor_position>
80002c4c:	30 09       	mov	r9,0
80002c4e:	e0 64 06 58 	mov	r4,1624
80002c52:	12 9b       	mov	r11,r9
80002c54:	3f fa       	mov	r10,-1
80002c56:	68 0c       	ld.w	r12,r4[0x0]
80002c58:	e0 a0 02 72 	rcall	8000313c <xQueueGenericReceive>
80002c5c:	e0 68 06 54 	mov	r8,1620
80002c60:	30 09       	mov	r9,0
80002c62:	68 0c       	ld.w	r12,r4[0x0]
80002c64:	12 9b       	mov	r11,r9
80002c66:	70 04       	ld.w	r4,r8[0x0]
80002c68:	12 9a       	mov	r10,r9
80002c6a:	e0 a0 03 1d 	rcall	800032a4 <xQueueGenericSend>
80002c6e:	fe cb 91 a6 	sub	r11,pc,-28250
80002c72:	1a d4       	st.w	--sp,r4
80002c74:	0a 9c       	mov	r12,r5
80002c76:	e0 a0 0f c3 	rcall	80004bfc <sprintf>
80002c7a:	c0 18       	rjmp	80002c7c <vOutputLCD+0x120>
80002c7c:	0a 9c       	mov	r12,r5
80002c7e:	fe b0 fa 89 	rcall	80002190 <dip204_write_string>
80002c82:	2f dd       	sub	sp,-12
80002c84:	58 06       	cp.w	r6,0
80002c86:	c5 f0       	breq	80002d44 <vOutputLCD+0x1e8>
80002c88:	58 67       	cp.w	r7,6
80002c8a:	e0 8b 00 5d 	brhi	80002d44 <vOutputLCD+0x1e8>
80002c8e:	fe c8 93 56 	sub	r8,pc,-27818
80002c92:	f0 07 03 2f 	ld.w	pc,r8[r7<<0x2]
80002c96:	33 bc       	mov	r12,59
80002c98:	fe b0 fd 3a 	rcall	8000270c <gpio_set_gpio_pin>
80002c9c:	c0 48       	rjmp	80002ca4 <vOutputLCD+0x148>
80002c9e:	33 bc       	mov	r12,59
80002ca0:	fe b0 fd 43 	rcall	80002726 <gpio_clr_gpio_pin>
80002ca4:	33 cc       	mov	r12,60
80002ca6:	fe b0 fd 33 	rcall	8000270c <gpio_set_gpio_pin>
80002caa:	33 dc       	mov	r12,61
80002cac:	fe b0 fd 30 	rcall	8000270c <gpio_set_gpio_pin>
80002cb0:	33 ec       	mov	r12,62
80002cb2:	fe b0 fd 2d 	rcall	8000270c <gpio_set_gpio_pin>
80002cb6:	33 3c       	mov	r12,51
80002cb8:	fe b0 fd 2a 	rcall	8000270c <gpio_set_gpio_pin>
80002cbc:	33 5c       	mov	r12,53
80002cbe:	fe b0 fd 27 	rcall	8000270c <gpio_set_gpio_pin>
80002cc2:	c4 18       	rjmp	80002d44 <vOutputLCD+0x1e8>
80002cc4:	33 bc       	mov	r12,59
80002cc6:	fe b0 fd 30 	rcall	80002726 <gpio_clr_gpio_pin>
80002cca:	33 cc       	mov	r12,60
80002ccc:	fe b0 fd 2d 	rcall	80002726 <gpio_clr_gpio_pin>
80002cd0:	ce db       	rjmp	80002caa <vOutputLCD+0x14e>
80002cd2:	33 bc       	mov	r12,59
80002cd4:	fe b0 fd 29 	rcall	80002726 <gpio_clr_gpio_pin>
80002cd8:	33 cc       	mov	r12,60
80002cda:	fe b0 fd 26 	rcall	80002726 <gpio_clr_gpio_pin>
80002cde:	33 dc       	mov	r12,61
80002ce0:	fe b0 fd 23 	rcall	80002726 <gpio_clr_gpio_pin>
80002ce4:	ce 6b       	rjmp	80002cb0 <vOutputLCD+0x154>
80002ce6:	33 bc       	mov	r12,59
80002ce8:	fe b0 fd 1f 	rcall	80002726 <gpio_clr_gpio_pin>
80002cec:	33 cc       	mov	r12,60
80002cee:	fe b0 fd 1c 	rcall	80002726 <gpio_clr_gpio_pin>
80002cf2:	33 dc       	mov	r12,61
80002cf4:	fe b0 fd 19 	rcall	80002726 <gpio_clr_gpio_pin>
80002cf8:	33 ec       	mov	r12,62
80002cfa:	fe b0 fd 16 	rcall	80002726 <gpio_clr_gpio_pin>
80002cfe:	cd cb       	rjmp	80002cb6 <vOutputLCD+0x15a>
80002d00:	33 bc       	mov	r12,59
80002d02:	fe b0 fd 12 	rcall	80002726 <gpio_clr_gpio_pin>
80002d06:	33 cc       	mov	r12,60
80002d08:	fe b0 fd 0f 	rcall	80002726 <gpio_clr_gpio_pin>
80002d0c:	33 dc       	mov	r12,61
80002d0e:	fe b0 fd 0c 	rcall	80002726 <gpio_clr_gpio_pin>
80002d12:	33 ec       	mov	r12,62
80002d14:	fe b0 fd 09 	rcall	80002726 <gpio_clr_gpio_pin>
80002d18:	33 3c       	mov	r12,51
80002d1a:	fe b0 fd 06 	rcall	80002726 <gpio_clr_gpio_pin>
80002d1e:	cc fb       	rjmp	80002cbc <vOutputLCD+0x160>
80002d20:	33 bc       	mov	r12,59
80002d22:	fe b0 fd 02 	rcall	80002726 <gpio_clr_gpio_pin>
80002d26:	33 cc       	mov	r12,60
80002d28:	fe b0 fc ff 	rcall	80002726 <gpio_clr_gpio_pin>
80002d2c:	33 dc       	mov	r12,61
80002d2e:	fe b0 fc fc 	rcall	80002726 <gpio_clr_gpio_pin>
80002d32:	33 ec       	mov	r12,62
80002d34:	fe b0 fc f9 	rcall	80002726 <gpio_clr_gpio_pin>
80002d38:	33 3c       	mov	r12,51
80002d3a:	fe b0 fc f6 	rcall	80002726 <gpio_clr_gpio_pin>
80002d3e:	33 5c       	mov	r12,53
80002d40:	fe b0 fc f3 	rcall	80002726 <gpio_clr_gpio_pin>
80002d44:	31 09       	mov	r9,16
80002d46:	e8 09 0c 08 	divs	r8,r4,r9
80002d4a:	5c 58       	castu.b	r8
80002d4c:	10 37       	cp.w	r7,r8
80002d4e:	c0 41       	brne	80002d56 <vOutputLCD+0x1fa>
80002d50:	30 03       	mov	r3,0
80002d52:	06 96       	mov	r6,r3
80002d54:	c0 c8       	rjmp	80002d6c <vOutputLCD+0x210>
80002d56:	10 37       	cp.w	r7,r8
80002d58:	e0 89 00 07 	brgt	80002d66 <vOutputLCD+0x20a>
80002d5c:	c0 c4       	brge	80002d74 <vOutputLCD+0x218>
80002d5e:	30 16       	mov	r6,1
80002d60:	2f f7       	sub	r7,-1
80002d62:	0c 93       	mov	r3,r6
80002d64:	c0 48       	rjmp	80002d6c <vOutputLCD+0x210>
80002d66:	20 17       	sub	r7,1
80002d68:	30 16       	mov	r6,1
80002d6a:	30 03       	mov	r3,0
80002d6c:	36 4c       	mov	r12,100
80002d6e:	e0 a0 05 17 	rcall	8000379c <vTaskDelay>
80002d72:	c1 6b       	rjmp	80002b9e <vOutputLCD+0x42>
80002d74:	58 03       	cp.w	r3,0
80002d76:	cf 41       	brne	80002d5e <vOutputLCD+0x202>
80002d78:	cf 7b       	rjmp	80002d66 <vOutputLCD+0x20a>
80002d7a:	d7 03       	nop

80002d7c <vListInitialise>:
80002d7c:	3f f8       	mov	r8,-1
80002d7e:	99 28       	st.w	r12[0x8],r8
80002d80:	f8 c8 ff f8 	sub	r8,r12,-8
80002d84:	99 38       	st.w	r12[0xc],r8
80002d86:	99 48       	st.w	r12[0x10],r8
80002d88:	99 18       	st.w	r12[0x4],r8
80002d8a:	30 08       	mov	r8,0
80002d8c:	99 08       	st.w	r12[0x0],r8
80002d8e:	5e fc       	retal	r12

80002d90 <vListInitialiseItem>:
80002d90:	30 08       	mov	r8,0
80002d92:	99 48       	st.w	r12[0x10],r8
80002d94:	5e fc       	retal	r12

80002d96 <vListInsertEnd>:
80002d96:	78 18       	ld.w	r8,r12[0x4]
80002d98:	70 19       	ld.w	r9,r8[0x4]
80002d9a:	97 19       	st.w	r11[0x4],r9
80002d9c:	78 19       	ld.w	r9,r12[0x4]
80002d9e:	97 29       	st.w	r11[0x8],r9
80002da0:	70 19       	ld.w	r9,r8[0x4]
80002da2:	93 2b       	st.w	r9[0x8],r11
80002da4:	91 1b       	st.w	r8[0x4],r11
80002da6:	99 1b       	st.w	r12[0x4],r11
80002da8:	97 4c       	st.w	r11[0x10],r12
80002daa:	78 08       	ld.w	r8,r12[0x0]
80002dac:	2f f8       	sub	r8,-1
80002dae:	99 08       	st.w	r12[0x0],r8
80002db0:	5e fc       	retal	r12

80002db2 <vListInsert>:
80002db2:	76 09       	ld.w	r9,r11[0x0]
80002db4:	5b f9       	cp.w	r9,-1
80002db6:	c0 31       	brne	80002dbc <vListInsert+0xa>
80002db8:	78 48       	ld.w	r8,r12[0x10]
80002dba:	c0 a8       	rjmp	80002dce <vListInsert+0x1c>
80002dbc:	f8 c8 ff f8 	sub	r8,r12,-8
80002dc0:	c0 28       	rjmp	80002dc4 <vListInsert+0x12>
80002dc2:	70 18       	ld.w	r8,r8[0x4]
80002dc4:	70 1a       	ld.w	r10,r8[0x4]
80002dc6:	74 0a       	ld.w	r10,r10[0x0]
80002dc8:	12 3a       	cp.w	r10,r9
80002dca:	fe 98 ff fc 	brls	80002dc2 <vListInsert+0x10>
80002dce:	70 19       	ld.w	r9,r8[0x4]
80002dd0:	97 19       	st.w	r11[0x4],r9
80002dd2:	93 2b       	st.w	r9[0x8],r11
80002dd4:	97 28       	st.w	r11[0x8],r8
80002dd6:	91 1b       	st.w	r8[0x4],r11
80002dd8:	97 4c       	st.w	r11[0x10],r12
80002dda:	78 08       	ld.w	r8,r12[0x0]
80002ddc:	2f f8       	sub	r8,-1
80002dde:	99 08       	st.w	r12[0x0],r8
80002de0:	5e fc       	retal	r12

80002de2 <vListRemove>:
80002de2:	78 18       	ld.w	r8,r12[0x4]
80002de4:	78 29       	ld.w	r9,r12[0x8]
80002de6:	91 29       	st.w	r8[0x8],r9
80002de8:	78 28       	ld.w	r8,r12[0x8]
80002dea:	78 19       	ld.w	r9,r12[0x4]
80002dec:	91 19       	st.w	r8[0x4],r9
80002dee:	78 48       	ld.w	r8,r12[0x10]
80002df0:	70 19       	ld.w	r9,r8[0x4]
80002df2:	18 39       	cp.w	r9,r12
80002df4:	f9 f9 00 02 	ld.weq	r9,r12[0x8]
80002df8:	f1 f9 0a 01 	st.weq	r8[0x4],r9
80002dfc:	30 09       	mov	r9,0
80002dfe:	99 49       	st.w	r12[0x10],r9
80002e00:	70 09       	ld.w	r9,r8[0x0]
80002e02:	20 19       	sub	r9,1
80002e04:	91 09       	st.w	r8[0x0],r9
80002e06:	5e fc       	retal	r12

80002e08 <pxPortInitialiseStack>:
80002e08:	e0 68 08 08 	mov	r8,2056
80002e0c:	ea 18 08 08 	orh	r8,0x808
80002e10:	18 d8       	st.w	--r12,r8
80002e12:	e0 68 09 09 	mov	r8,2313
80002e16:	ea 18 09 09 	orh	r8,0x909
80002e1a:	18 d8       	st.w	--r12,r8
80002e1c:	e0 68 0a 0a 	mov	r8,2570
80002e20:	ea 18 0a 0a 	orh	r8,0xa0a
80002e24:	18 d8       	st.w	--r12,r8
80002e26:	e0 68 0b 0b 	mov	r8,2827
80002e2a:	ea 18 0b 0b 	orh	r8,0xb0b
80002e2e:	18 d8       	st.w	--r12,r8
80002e30:	e0 68 be ef 	mov	r8,48879
80002e34:	ea 18 de ad 	orh	r8,0xdead
80002e38:	18 da       	st.w	--r12,r10
80002e3a:	18 d8       	st.w	--r12,r8
80002e3c:	fc 18 00 40 	movh	r8,0x40
80002e40:	18 db       	st.w	--r12,r11
80002e42:	18 d8       	st.w	--r12,r8
80002e44:	e0 68 00 ff 	mov	r8,255
80002e48:	ea 18 ff 00 	orh	r8,0xff00
80002e4c:	18 d8       	st.w	--r12,r8
80002e4e:	e0 68 01 01 	mov	r8,257
80002e52:	ea 18 01 01 	orh	r8,0x101
80002e56:	18 d8       	st.w	--r12,r8
80002e58:	e0 68 02 02 	mov	r8,514
80002e5c:	ea 18 02 02 	orh	r8,0x202
80002e60:	18 d8       	st.w	--r12,r8
80002e62:	e0 68 03 03 	mov	r8,771
80002e66:	ea 18 03 03 	orh	r8,0x303
80002e6a:	18 d8       	st.w	--r12,r8
80002e6c:	e0 68 04 04 	mov	r8,1028
80002e70:	ea 18 04 04 	orh	r8,0x404
80002e74:	18 d8       	st.w	--r12,r8
80002e76:	e0 68 05 05 	mov	r8,1285
80002e7a:	ea 18 05 05 	orh	r8,0x505
80002e7e:	18 d8       	st.w	--r12,r8
80002e80:	e0 68 06 06 	mov	r8,1542
80002e84:	ea 18 06 06 	orh	r8,0x606
80002e88:	18 d8       	st.w	--r12,r8
80002e8a:	e0 68 07 07 	mov	r8,1799
80002e8e:	ea 18 07 07 	orh	r8,0x707
80002e92:	18 d8       	st.w	--r12,r8
80002e94:	30 08       	mov	r8,0
80002e96:	18 d8       	st.w	--r12,r8
80002e98:	5e fc       	retal	r12
80002e9a:	d7 03       	nop

80002e9c <vPortEnterCritical>:
80002e9c:	d3 03       	ssrf	0x10
80002e9e:	32 48       	mov	r8,36
80002ea0:	70 09       	ld.w	r9,r8[0x0]
80002ea2:	2f f9       	sub	r9,-1
80002ea4:	91 09       	st.w	r8[0x0],r9
80002ea6:	5e fc       	retal	r12

80002ea8 <xPortStartScheduler>:
80002ea8:	d4 01       	pushm	lr
80002eaa:	d3 03       	ssrf	0x10
80002eac:	30 0a       	mov	r10,0
80002eae:	fe cc fe fe 	sub	r12,pc,-258
80002eb2:	14 9b       	mov	r11,r10
80002eb4:	fe b0 fc 48 	rcall	80002744 <INTC_register_interrupt>
80002eb8:	e0 68 2e e0 	mov	r8,12000
80002ebc:	e3 b8 00 43 	mtsr	0x10c,r8
80002ec0:	30 08       	mov	r8,0
80002ec2:	e3 b8 00 42 	mtsr	0x108,r8
80002ec6:	e0 68 07 30 	mov	r8,1840
80002eca:	ea 18 00 00 	orh	r8,0x0
80002ece:	70 00       	ld.w	r0,r8[0x0]
80002ed0:	60 0d       	ld.w	sp,r0[0x0]
80002ed2:	1b 00       	ld.w	r0,sp++
80002ed4:	e0 68 00 24 	mov	r8,36
80002ed8:	ea 18 00 00 	orh	r8,0x0
80002edc:	91 00       	st.w	r8[0x0],r0
80002ede:	e3 cd 00 ff 	ldm	sp++,r0-r7
80002ee2:	2f ed       	sub	sp,-8
80002ee4:	e3 cd 5f 00 	ldm	sp++,r8-r12,lr
80002ee8:	fa f0 ff e0 	ld.w	r0,sp[-32]
80002eec:	e3 b0 00 00 	mtsr	0x0,r0
80002ef0:	fa f0 ff dc 	ld.w	r0,sp[-36]
80002ef4:	fa ff ff e4 	ld.w	pc,sp[-28]
80002ef8:	d8 0a       	popm	pc,r12=0
80002efa:	d7 03       	nop

80002efc <SCALLYield>:
80002efc:	20 6d       	sub	sp,24
80002efe:	eb cd 00 ff 	pushm	r0-r7
80002f02:	fa c7 ff c0 	sub	r7,sp,-64
80002f06:	ee f0 ff f8 	ld.w	r0,r7[-8]
80002f0a:	ef 40 ff e0 	st.w	r7[-32],r0
80002f0e:	ee f0 ff fc 	ld.w	r0,r7[-4]
80002f12:	ef 40 ff e4 	st.w	r7[-28],r0
80002f16:	eb c7 5f 00 	stm	--r7,r8-r12,lr
80002f1a:	e0 68 00 24 	mov	r8,36
80002f1e:	ea 18 00 00 	orh	r8,0x0
80002f22:	70 00       	ld.w	r0,r8[0x0]
80002f24:	1a d0       	st.w	--sp,r0
80002f26:	cb bf       	rcall	80002e9c <vPortEnterCritical>
80002f28:	e0 68 07 30 	mov	r8,1840
80002f2c:	ea 18 00 00 	orh	r8,0x0
80002f30:	70 00       	ld.w	r0,r8[0x0]
80002f32:	81 0d       	st.w	r0[0x0],sp
80002f34:	e0 a0 02 5a 	rcall	800033e8 <vTaskSwitchContext>
80002f38:	e0 68 07 30 	mov	r8,1840
80002f3c:	ea 18 00 00 	orh	r8,0x0
80002f40:	70 00       	ld.w	r0,r8[0x0]
80002f42:	60 0d       	ld.w	sp,r0[0x0]
80002f44:	1b 00       	ld.w	r0,sp++
80002f46:	e0 68 00 24 	mov	r8,36
80002f4a:	ea 18 00 00 	orh	r8,0x0
80002f4e:	91 00       	st.w	r8[0x0],r0
80002f50:	fa c7 ff d8 	sub	r7,sp,-40
80002f54:	e3 c7 5f 00 	ldm	r7++,r8-r12,lr
80002f58:	ee f0 ff e0 	ld.w	r0,r7[-32]
80002f5c:	e0 61 00 24 	mov	r1,36
80002f60:	ea 11 00 00 	orh	r1,0x0
80002f64:	62 02       	ld.w	r2,r1[0x0]
80002f66:	58 02       	cp.w	r2,0
80002f68:	c0 70       	breq	80002f76 <LABEL_RET_SCALL_260>
80002f6a:	e4 c2 00 01 	sub	r2,r2,1
80002f6e:	83 02       	st.w	r1[0x0],r2
80002f70:	58 02       	cp.w	r2,0
80002f72:	c0 21       	brne	80002f76 <LABEL_RET_SCALL_260>
80002f74:	b1 c0       	cbr	r0,0x10

80002f76 <LABEL_RET_SCALL_260>:
80002f76:	ef 40 ff f8 	st.w	r7[-8],r0
80002f7a:	ee f0 ff e4 	ld.w	r0,r7[-28]
80002f7e:	ef 40 ff fc 	st.w	r7[-4],r0
80002f82:	e3 cd 00 ff 	ldm	sp++,r0-r7
80002f86:	2f ad       	sub	sp,-24
80002f88:	d6 13       	rets
80002f8a:	d7 03       	nop

80002f8c <prvClearCcInt>:
80002f8c:	e1 b8 00 43 	mfsr	r8,0x10c
80002f90:	e3 b8 00 43 	mtsr	0x10c,r8
80002f94:	5e fc       	retal	r12
80002f96:	d7 03       	nop

80002f98 <vPortExitCritical>:
80002f98:	32 48       	mov	r8,36
80002f9a:	70 09       	ld.w	r9,r8[0x0]
80002f9c:	58 09       	cp.w	r9,0
80002f9e:	5e 0c       	reteq	r12
80002fa0:	70 09       	ld.w	r9,r8[0x0]
80002fa2:	20 19       	sub	r9,1
80002fa4:	91 09       	st.w	r8[0x0],r9
80002fa6:	70 08       	ld.w	r8,r8[0x0]
80002fa8:	58 08       	cp.w	r8,0
80002faa:	5e 1c       	retne	r12
80002fac:	d5 03       	csrf	0x10
80002fae:	5e fc       	retal	r12

80002fb0 <vTick>:
80002fb0:	eb cd 00 ff 	pushm	r0-r7
80002fb4:	e0 68 00 24 	mov	r8,36
80002fb8:	ea 18 00 00 	orh	r8,0x0
80002fbc:	70 00       	ld.w	r0,r8[0x0]
80002fbe:	1a d0       	st.w	--sp,r0
80002fc0:	7a 90       	ld.w	r0,sp[0x24]
80002fc2:	e1 d0 c2 c3 	bfextu	r0,r0,0x16,0x3
80002fc6:	58 10       	cp.w	r0,1
80002fc8:	e0 8b 00 08 	brhi	80002fd8 <LABEL_INT_SKIP_SAVE_CONTEXT_234>
80002fcc:	e0 68 07 30 	mov	r8,1840
80002fd0:	ea 18 00 00 	orh	r8,0x0
80002fd4:	70 00       	ld.w	r0,r8[0x0]
80002fd6:	81 0d       	st.w	r0[0x0],sp

80002fd8 <LABEL_INT_SKIP_SAVE_CONTEXT_234>:
80002fd8:	cd af       	rcall	80002f8c <prvClearCcInt>
80002fda:	c6 1f       	rcall	80002e9c <vPortEnterCritical>
80002fdc:	e0 a0 02 d0 	rcall	8000357c <vTaskIncrementTick>
80002fe0:	cd cf       	rcall	80002f98 <vPortExitCritical>
80002fe2:	7a 90       	ld.w	r0,sp[0x24]
80002fe4:	e1 d0 c2 c3 	bfextu	r0,r0,0x16,0x3
80002fe8:	58 10       	cp.w	r0,1
80002fea:	e0 8b 00 0b 	brhi	80003000 <LABEL_INT_SKIP_RESTORE_CONTEXT_251>
80002fee:	c5 7f       	rcall	80002e9c <vPortEnterCritical>
80002ff0:	cf cd       	rcall	800033e8 <vTaskSwitchContext>
80002ff2:	cd 3f       	rcall	80002f98 <vPortExitCritical>
80002ff4:	e0 68 07 30 	mov	r8,1840
80002ff8:	ea 18 00 00 	orh	r8,0x0
80002ffc:	70 00       	ld.w	r0,r8[0x0]
80002ffe:	60 0d       	ld.w	sp,r0[0x0]

80003000 <LABEL_INT_SKIP_RESTORE_CONTEXT_251>:
80003000:	1b 00       	ld.w	r0,sp++
80003002:	e0 68 00 24 	mov	r8,36
80003006:	ea 18 00 00 	orh	r8,0x0
8000300a:	91 00       	st.w	r8[0x0],r0
8000300c:	e3 cd 00 ff 	ldm	sp++,r0-r7
80003010:	d6 03       	rete
80003012:	d7 03       	nop

80003014 <__malloc_lock>:
80003014:	d4 01       	pushm	lr
80003016:	ce 3d       	rcall	800033dc <vTaskSuspendAll>
80003018:	d8 02       	popm	pc
8000301a:	d7 03       	nop

8000301c <__malloc_unlock>:
8000301c:	d4 01       	pushm	lr
8000301e:	e0 a0 03 45 	rcall	800036a8 <xTaskResumeAll>
80003022:	d8 02       	popm	pc

80003024 <_init_startup>:
80003024:	d4 01       	pushm	lr
80003026:	fe c8 9a 26 	sub	r8,pc,-26074
8000302a:	e3 b8 00 01 	mtsr	0x4,r8
8000302e:	d5 53       	csrf	0x15
80003030:	fe b0 fb c0 	rcall	800027b0 <INTC_init_interrupts>
80003034:	da 0a       	popm	pc,r12=1
80003036:	d7 03       	nop

80003038 <_read>:
80003038:	d4 21       	pushm	r4-r7,lr
8000303a:	16 97       	mov	r7,r11
8000303c:	14 94       	mov	r4,r10
8000303e:	58 0c       	cp.w	r12,0
80003040:	c0 30       	breq	80003046 <_read+0xe>
80003042:	3f f6       	mov	r6,-1
80003044:	c1 18       	rjmp	80003066 <_read+0x2e>
80003046:	18 96       	mov	r6,r12
80003048:	e0 65 07 d4 	mov	r5,2004
8000304c:	c0 88       	rjmp	8000305c <_read+0x24>
8000304e:	6a 0c       	ld.w	r12,r5[0x0]
80003050:	fe b0 fc 34 	rcall	800028b8 <usart_getchar>
80003054:	c0 95       	brlt	80003066 <_read+0x2e>
80003056:	ee 06 0b 0c 	st.b	r7[r6],r12
8000305a:	2f f6       	sub	r6,-1
8000305c:	e8 06 01 08 	sub	r8,r4,r6
80003060:	58 08       	cp.w	r8,0
80003062:	fe 99 ff f6 	brgt	8000304e <_read+0x16>
80003066:	0c 9c       	mov	r12,r6
80003068:	d8 22       	popm	r4-r7,pc
8000306a:	d7 03       	nop

8000306c <_write>:
8000306c:	d4 21       	pushm	r4-r7,lr
8000306e:	16 97       	mov	r7,r11
80003070:	14 94       	mov	r4,r10
80003072:	20 1c       	sub	r12,1
80003074:	58 2c       	cp.w	r12,2
80003076:	e0 8b 00 10 	brhi	80003096 <_write+0x2a>
8000307a:	30 06       	mov	r6,0
8000307c:	e0 65 07 d4 	mov	r5,2004
80003080:	c0 88       	rjmp	80003090 <_write+0x24>
80003082:	ee 06 07 0b 	ld.ub	r11,r7[r6]
80003086:	6a 0c       	ld.w	r12,r5[0x0]
80003088:	2f f6       	sub	r6,-1
8000308a:	fe b0 fc 09 	rcall	8000289c <usart_putchar>
8000308e:	c0 45       	brlt	80003096 <_write+0x2a>
80003090:	0c 34       	cp.w	r4,r6
80003092:	cf 81       	brne	80003082 <_write+0x16>
80003094:	c0 28       	rjmp	80003098 <_write+0x2c>
80003096:	3f f6       	mov	r6,-1
80003098:	0c 9c       	mov	r12,r6
8000309a:	d8 22       	popm	r4-r7,pc

8000309c <vPortFree>:
8000309c:	d4 01       	pushm	lr
8000309e:	20 1d       	sub	sp,4
800030a0:	58 0c       	cp.w	r12,0
800030a2:	c0 80       	breq	800030b2 <vPortFree+0x16>
800030a4:	50 0c       	stdsp	sp[0x0],r12
800030a6:	c9 bd       	rcall	800033dc <vTaskSuspendAll>
800030a8:	40 0c       	lddsp	r12,sp[0x0]
800030aa:	e0 a0 09 61 	rcall	8000436c <free>
800030ae:	e0 a0 02 fd 	rcall	800036a8 <xTaskResumeAll>
800030b2:	2f fd       	sub	sp,-4
800030b4:	d8 02       	popm	pc
800030b6:	d7 03       	nop

800030b8 <pvPortMalloc>:
800030b8:	d4 21       	pushm	r4-r7,lr
800030ba:	20 1d       	sub	sp,4
800030bc:	50 0c       	stdsp	sp[0x0],r12
800030be:	c8 fd       	rcall	800033dc <vTaskSuspendAll>
800030c0:	40 0c       	lddsp	r12,sp[0x0]
800030c2:	e0 a0 09 5d 	rcall	8000437c <malloc>
800030c6:	18 97       	mov	r7,r12
800030c8:	e0 a0 02 f0 	rcall	800036a8 <xTaskResumeAll>
800030cc:	0e 9c       	mov	r12,r7
800030ce:	2f fd       	sub	sp,-4
800030d0:	d8 22       	popm	r4-r7,pc
800030d2:	d7 03       	nop

800030d4 <prvUnlockQueue>:
800030d4:	d4 21       	pushm	r4-r7,lr
800030d6:	18 97       	mov	r7,r12
800030d8:	ce 2e       	rcall	80002e9c <vPortEnterCritical>
800030da:	ee c6 ff dc 	sub	r6,r7,-36
800030de:	c0 d8       	rjmp	800030f8 <prvUnlockQueue+0x24>
800030e0:	6e 98       	ld.w	r8,r7[0x24]
800030e2:	58 08       	cp.w	r8,0
800030e4:	c0 e0       	breq	80003100 <prvUnlockQueue+0x2c>
800030e6:	0c 9c       	mov	r12,r6
800030e8:	e0 a0 02 1c 	rcall	80003520 <xTaskRemoveFromEventList>
800030ec:	c0 20       	breq	800030f0 <prvUnlockQueue+0x1c>
800030ee:	cb 9d       	rcall	80003460 <vTaskMissedYield>
800030f0:	6f 28       	ld.w	r8,r7[0x48]
800030f2:	20 18       	sub	r8,1
800030f4:	ef 48 00 48 	st.w	r7[72],r8
800030f8:	6f 28       	ld.w	r8,r7[0x48]
800030fa:	58 08       	cp.w	r8,0
800030fc:	fe 99 ff f2 	brgt	800030e0 <prvUnlockQueue+0xc>
80003100:	3f f8       	mov	r8,-1
80003102:	ee c6 ff f0 	sub	r6,r7,-16
80003106:	ef 48 00 48 	st.w	r7[72],r8
8000310a:	c4 7f       	rcall	80002f98 <vPortExitCritical>
8000310c:	cc 8e       	rcall	80002e9c <vPortEnterCritical>
8000310e:	c0 d8       	rjmp	80003128 <prvUnlockQueue+0x54>
80003110:	6e 48       	ld.w	r8,r7[0x10]
80003112:	58 08       	cp.w	r8,0
80003114:	c0 e0       	breq	80003130 <prvUnlockQueue+0x5c>
80003116:	0c 9c       	mov	r12,r6
80003118:	e0 a0 02 04 	rcall	80003520 <xTaskRemoveFromEventList>
8000311c:	c0 20       	breq	80003120 <prvUnlockQueue+0x4c>
8000311e:	ca 1d       	rcall	80003460 <vTaskMissedYield>
80003120:	6f 18       	ld.w	r8,r7[0x44]
80003122:	20 18       	sub	r8,1
80003124:	ef 48 00 44 	st.w	r7[68],r8
80003128:	6f 18       	ld.w	r8,r7[0x44]
8000312a:	58 08       	cp.w	r8,0
8000312c:	fe 99 ff f2 	brgt	80003110 <prvUnlockQueue+0x3c>
80003130:	3f f8       	mov	r8,-1
80003132:	ef 48 00 44 	st.w	r7[68],r8
80003136:	c3 1f       	rcall	80002f98 <vPortExitCritical>
80003138:	d8 22       	popm	r4-r7,pc
8000313a:	d7 03       	nop

8000313c <xQueueGenericReceive>:
8000313c:	d4 31       	pushm	r0-r7,lr
8000313e:	20 4d       	sub	sp,16
80003140:	30 00       	mov	r0,0
80003142:	50 1a       	stdsp	sp[0x4],r10
80003144:	18 97       	mov	r7,r12
80003146:	16 93       	mov	r3,r11
80003148:	12 94       	mov	r4,r9
8000314a:	f8 c6 ff dc 	sub	r6,r12,-36
8000314e:	fa c2 ff f8 	sub	r2,sp,-8
80003152:	00 95       	mov	r5,r0
80003154:	fa c1 ff fc 	sub	r1,sp,-4
80003158:	c0 28       	rjmp	8000315c <xQueueGenericReceive+0x20>
8000315a:	30 10       	mov	r0,1
8000315c:	ca 0e       	rcall	80002e9c <vPortEnterCritical>
8000315e:	6e e8       	ld.w	r8,r7[0x38]
80003160:	58 08       	cp.w	r8,0
80003162:	c3 00       	breq	800031c2 <xQueueGenericReceive+0x86>
80003164:	6e 35       	ld.w	r5,r7[0xc]
80003166:	6e 08       	ld.w	r8,r7[0x0]
80003168:	58 08       	cp.w	r8,0
8000316a:	c0 e0       	breq	80003186 <xQueueGenericReceive+0x4a>
8000316c:	6e 1a       	ld.w	r10,r7[0x4]
8000316e:	6f 09       	ld.w	r9,r7[0x40]
80003170:	ea 09 00 09 	add	r9,r5,r9
80003174:	8f 39       	st.w	r7[0xc],r9
80003176:	14 39       	cp.w	r9,r10
80003178:	ef f8 2a 03 	st.wcc	r7[0xc],r8
8000317c:	06 9c       	mov	r12,r3
8000317e:	6f 0a       	ld.w	r10,r7[0x40]
80003180:	6e 3b       	ld.w	r11,r7[0xc]
80003182:	e0 a0 0b 21 	rcall	800047c4 <memcpy>
80003186:	58 04       	cp.w	r4,0
80003188:	c1 21       	brne	800031ac <xQueueGenericReceive+0x70>
8000318a:	6e e8       	ld.w	r8,r7[0x38]
8000318c:	20 18       	sub	r8,1
8000318e:	8f e8       	st.w	r7[0x38],r8
80003190:	6e 08       	ld.w	r8,r7[0x0]
80003192:	58 08       	cp.w	r8,0
80003194:	c0 31       	brne	8000319a <xQueueGenericReceive+0x5e>
80003196:	c6 bd       	rcall	8000346c <xTaskGetCurrentTaskHandle>
80003198:	8f 1c       	st.w	r7[0x4],r12
8000319a:	6e 48       	ld.w	r8,r7[0x10]
8000319c:	58 08       	cp.w	r8,0
8000319e:	c0 f0       	breq	800031bc <xQueueGenericReceive+0x80>
800031a0:	ee cc ff f0 	sub	r12,r7,-16
800031a4:	cb ed       	rcall	80003520 <xTaskRemoveFromEventList>
800031a6:	58 1c       	cp.w	r12,1
800031a8:	c0 a1       	brne	800031bc <xQueueGenericReceive+0x80>
800031aa:	c0 88       	rjmp	800031ba <xQueueGenericReceive+0x7e>
800031ac:	8f 35       	st.w	r7[0xc],r5
800031ae:	6e 98       	ld.w	r8,r7[0x24]
800031b0:	58 08       	cp.w	r8,0
800031b2:	c0 50       	breq	800031bc <xQueueGenericReceive+0x80>
800031b4:	0c 9c       	mov	r12,r6
800031b6:	cb 5d       	rcall	80003520 <xTaskRemoveFromEventList>
800031b8:	c0 20       	breq	800031bc <xQueueGenericReceive+0x80>
800031ba:	d7 33       	scall
800031bc:	ce ee       	rcall	80002f98 <vPortExitCritical>
800031be:	30 1c       	mov	r12,1
800031c0:	c3 e8       	rjmp	8000323c <xQueueGenericReceive+0x100>
800031c2:	40 1c       	lddsp	r12,sp[0x4]
800031c4:	58 0c       	cp.w	r12,0
800031c6:	c0 51       	brne	800031d0 <xQueueGenericReceive+0x94>
800031c8:	50 0c       	stdsp	sp[0x0],r12
800031ca:	ce 7e       	rcall	80002f98 <vPortExitCritical>
800031cc:	40 0c       	lddsp	r12,sp[0x0]
800031ce:	c3 78       	rjmp	8000323c <xQueueGenericReceive+0x100>
800031d0:	58 00       	cp.w	r0,0
800031d2:	c0 31       	brne	800031d8 <xQueueGenericReceive+0x9c>
800031d4:	04 9c       	mov	r12,r2
800031d6:	c3 bd       	rcall	8000344c <vTaskSetTimeOutState>
800031d8:	ce 0e       	rcall	80002f98 <vPortExitCritical>
800031da:	c0 1d       	rcall	800033dc <vTaskSuspendAll>
800031dc:	c6 0e       	rcall	80002e9c <vPortEnterCritical>
800031de:	6f 18       	ld.w	r8,r7[0x44]
800031e0:	5b f8       	cp.w	r8,-1
800031e2:	ef f5 0a 11 	st.weq	r7[0x44],r5
800031e6:	6f 28       	ld.w	r8,r7[0x48]
800031e8:	5b f8       	cp.w	r8,-1
800031ea:	ef f5 0a 12 	st.weq	r7[0x48],r5
800031ee:	cd 5e       	rcall	80002f98 <vPortExitCritical>
800031f0:	02 9b       	mov	r11,r1
800031f2:	04 9c       	mov	r12,r2
800031f4:	e0 a0 02 2c 	rcall	8000364c <xTaskCheckForTimeOut>
800031f8:	c1 d1       	brne	80003232 <xQueueGenericReceive+0xf6>
800031fa:	c5 1e       	rcall	80002e9c <vPortEnterCritical>
800031fc:	6e e0       	ld.w	r0,r7[0x38]
800031fe:	cc de       	rcall	80002f98 <vPortExitCritical>
80003200:	58 00       	cp.w	r0,0
80003202:	c1 31       	brne	80003228 <xQueueGenericReceive+0xec>
80003204:	6e 08       	ld.w	r8,r7[0x0]
80003206:	58 08       	cp.w	r8,0
80003208:	c0 51       	brne	80003212 <xQueueGenericReceive+0xd6>
8000320a:	c4 9e       	rcall	80002e9c <vPortEnterCritical>
8000320c:	6e 1c       	ld.w	r12,r7[0x4]
8000320e:	c5 5d       	rcall	800034b8 <vTaskPriorityInherit>
80003210:	cc 4e       	rcall	80002f98 <vPortExitCritical>
80003212:	40 1b       	lddsp	r11,sp[0x4]
80003214:	0c 9c       	mov	r12,r6
80003216:	e0 a0 02 dd 	rcall	800037d0 <vTaskPlaceOnEventList>
8000321a:	0e 9c       	mov	r12,r7
8000321c:	c5 cf       	rcall	800030d4 <prvUnlockQueue>
8000321e:	e0 a0 02 45 	rcall	800036a8 <xTaskResumeAll>
80003222:	c9 c1       	brne	8000315a <xQueueGenericReceive+0x1e>
80003224:	d7 33       	scall
80003226:	c9 ab       	rjmp	8000315a <xQueueGenericReceive+0x1e>
80003228:	0e 9c       	mov	r12,r7
8000322a:	c5 5f       	rcall	800030d4 <prvUnlockQueue>
8000322c:	e0 a0 02 3e 	rcall	800036a8 <xTaskResumeAll>
80003230:	c9 5b       	rjmp	8000315a <xQueueGenericReceive+0x1e>
80003232:	0e 9c       	mov	r12,r7
80003234:	c5 0f       	rcall	800030d4 <prvUnlockQueue>
80003236:	e0 a0 02 39 	rcall	800036a8 <xTaskResumeAll>
8000323a:	30 0c       	mov	r12,0
8000323c:	2f cd       	sub	sp,-16
8000323e:	d8 32       	popm	r0-r7,pc

80003240 <prvCopyDataToQueue>:
80003240:	d4 21       	pushm	r4-r7,lr
80003242:	14 98       	mov	r8,r10
80003244:	18 97       	mov	r7,r12
80003246:	79 0a       	ld.w	r10,r12[0x40]
80003248:	58 0a       	cp.w	r10,0
8000324a:	c0 81       	brne	8000325a <prvCopyDataToQueue+0x1a>
8000324c:	78 06       	ld.w	r6,r12[0x0]
8000324e:	58 06       	cp.w	r6,0
80003250:	c2 51       	brne	8000329a <prvCopyDataToQueue+0x5a>
80003252:	78 1c       	ld.w	r12,r12[0x4]
80003254:	c1 0d       	rcall	80003474 <vTaskPriorityDisinherit>
80003256:	8f 16       	st.w	r7[0x4],r6
80003258:	c2 18       	rjmp	8000329a <prvCopyDataToQueue+0x5a>
8000325a:	58 08       	cp.w	r8,0
8000325c:	c0 f1       	brne	8000327a <prvCopyDataToQueue+0x3a>
8000325e:	78 2c       	ld.w	r12,r12[0x8]
80003260:	e0 a0 0a b2 	rcall	800047c4 <memcpy>
80003264:	6e 29       	ld.w	r9,r7[0x8]
80003266:	6f 08       	ld.w	r8,r7[0x40]
80003268:	f2 08 00 08 	add	r8,r9,r8
8000326c:	8f 28       	st.w	r7[0x8],r8
8000326e:	6e 19       	ld.w	r9,r7[0x4]
80003270:	12 38       	cp.w	r8,r9
80003272:	c1 43       	brcs	8000329a <prvCopyDataToQueue+0x5a>
80003274:	6e 08       	ld.w	r8,r7[0x0]
80003276:	8f 28       	st.w	r7[0x8],r8
80003278:	c1 18       	rjmp	8000329a <prvCopyDataToQueue+0x5a>
8000327a:	78 3c       	ld.w	r12,r12[0xc]
8000327c:	e0 a0 0a a4 	rcall	800047c4 <memcpy>
80003280:	6e 39       	ld.w	r9,r7[0xc]
80003282:	6f 08       	ld.w	r8,r7[0x40]
80003284:	5c 38       	neg	r8
80003286:	10 09       	add	r9,r8
80003288:	8f 39       	st.w	r7[0xc],r9
8000328a:	6e 0a       	ld.w	r10,r7[0x0]
8000328c:	14 39       	cp.w	r9,r10
8000328e:	ef f9 30 01 	ld.wcs	r9,r7[0x4]
80003292:	f3 d8 e3 08 	addcs	r8,r9,r8
80003296:	ef f8 3a 03 	st.wcs	r7[0xc],r8
8000329a:	6e e8       	ld.w	r8,r7[0x38]
8000329c:	2f f8       	sub	r8,-1
8000329e:	8f e8       	st.w	r7[0x38],r8
800032a0:	d8 22       	popm	r4-r7,pc
800032a2:	d7 03       	nop

800032a4 <xQueueGenericSend>:
800032a4:	d4 31       	pushm	r0-r7,lr
800032a6:	20 4d       	sub	sp,16
800032a8:	30 00       	mov	r0,0
800032aa:	50 1a       	stdsp	sp[0x4],r10
800032ac:	18 97       	mov	r7,r12
800032ae:	16 96       	mov	r6,r11
800032b0:	12 93       	mov	r3,r9
800032b2:	f8 c1 ff f0 	sub	r1,r12,-16
800032b6:	fa c4 ff f8 	sub	r4,sp,-8
800032ba:	00 95       	mov	r5,r0
800032bc:	fa c2 ff fc 	sub	r2,sp,-4
800032c0:	c0 28       	rjmp	800032c4 <xQueueGenericSend+0x20>
800032c2:	30 10       	mov	r0,1
800032c4:	fe b0 fd ec 	rcall	80002e9c <vPortEnterCritical>
800032c8:	6e e9       	ld.w	r9,r7[0x38]
800032ca:	6e f8       	ld.w	r8,r7[0x3c]
800032cc:	10 39       	cp.w	r9,r8
800032ce:	c1 12       	brcc	800032f0 <xQueueGenericSend+0x4c>
800032d0:	06 9a       	mov	r10,r3
800032d2:	0c 9b       	mov	r11,r6
800032d4:	0e 9c       	mov	r12,r7
800032d6:	cb 5f       	rcall	80003240 <prvCopyDataToQueue>
800032d8:	6e 98       	ld.w	r8,r7[0x24]
800032da:	58 08       	cp.w	r8,0
800032dc:	c0 70       	breq	800032ea <xQueueGenericSend+0x46>
800032de:	ee cc ff dc 	sub	r12,r7,-36
800032e2:	c1 fd       	rcall	80003520 <xTaskRemoveFromEventList>
800032e4:	58 1c       	cp.w	r12,1
800032e6:	c0 21       	brne	800032ea <xQueueGenericSend+0x46>
800032e8:	d7 33       	scall
800032ea:	c5 7e       	rcall	80002f98 <vPortExitCritical>
800032ec:	30 1c       	mov	r12,1
800032ee:	c3 88       	rjmp	8000335e <xQueueGenericSend+0xba>
800032f0:	40 1c       	lddsp	r12,sp[0x4]
800032f2:	58 0c       	cp.w	r12,0
800032f4:	c0 51       	brne	800032fe <xQueueGenericSend+0x5a>
800032f6:	50 0c       	stdsp	sp[0x0],r12
800032f8:	c5 0e       	rcall	80002f98 <vPortExitCritical>
800032fa:	40 0c       	lddsp	r12,sp[0x0]
800032fc:	c3 18       	rjmp	8000335e <xQueueGenericSend+0xba>
800032fe:	58 00       	cp.w	r0,0
80003300:	c0 31       	brne	80003306 <xQueueGenericSend+0x62>
80003302:	08 9c       	mov	r12,r4
80003304:	ca 4c       	rcall	8000344c <vTaskSetTimeOutState>
80003306:	c4 9e       	rcall	80002f98 <vPortExitCritical>
80003308:	c6 ac       	rcall	800033dc <vTaskSuspendAll>
8000330a:	fe b0 fd c9 	rcall	80002e9c <vPortEnterCritical>
8000330e:	6f 18       	ld.w	r8,r7[0x44]
80003310:	5b f8       	cp.w	r8,-1
80003312:	ef f5 0a 11 	st.weq	r7[0x44],r5
80003316:	6f 28       	ld.w	r8,r7[0x48]
80003318:	5b f8       	cp.w	r8,-1
8000331a:	ef f5 0a 12 	st.weq	r7[0x48],r5
8000331e:	c3 de       	rcall	80002f98 <vPortExitCritical>
80003320:	04 9b       	mov	r11,r2
80003322:	08 9c       	mov	r12,r4
80003324:	c9 4d       	rcall	8000364c <xTaskCheckForTimeOut>
80003326:	c1 81       	brne	80003356 <xQueueGenericSend+0xb2>
80003328:	fe b0 fd ba 	rcall	80002e9c <vPortEnterCritical>
8000332c:	6e e8       	ld.w	r8,r7[0x38]
8000332e:	6e f0       	ld.w	r0,r7[0x3c]
80003330:	50 08       	stdsp	sp[0x0],r8
80003332:	c3 3e       	rcall	80002f98 <vPortExitCritical>
80003334:	40 08       	lddsp	r8,sp[0x0]
80003336:	00 38       	cp.w	r8,r0
80003338:	c0 b1       	brne	8000334e <xQueueGenericSend+0xaa>
8000333a:	40 1b       	lddsp	r11,sp[0x4]
8000333c:	02 9c       	mov	r12,r1
8000333e:	e0 a0 02 49 	rcall	800037d0 <vTaskPlaceOnEventList>
80003342:	0e 9c       	mov	r12,r7
80003344:	cc 8e       	rcall	800030d4 <prvUnlockQueue>
80003346:	cb 1d       	rcall	800036a8 <xTaskResumeAll>
80003348:	cb d1       	brne	800032c2 <xQueueGenericSend+0x1e>
8000334a:	d7 33       	scall
8000334c:	cb bb       	rjmp	800032c2 <xQueueGenericSend+0x1e>
8000334e:	0e 9c       	mov	r12,r7
80003350:	cc 2e       	rcall	800030d4 <prvUnlockQueue>
80003352:	ca bd       	rcall	800036a8 <xTaskResumeAll>
80003354:	cb 7b       	rjmp	800032c2 <xQueueGenericSend+0x1e>
80003356:	0e 9c       	mov	r12,r7
80003358:	cb ee       	rcall	800030d4 <prvUnlockQueue>
8000335a:	ca 7d       	rcall	800036a8 <xTaskResumeAll>
8000335c:	30 0c       	mov	r12,0
8000335e:	2f cd       	sub	sp,-16
80003360:	d8 32       	popm	r0-r7,pc
80003362:	d7 03       	nop

80003364 <xQueueCreate>:
80003364:	d4 31       	pushm	r0-r7,lr
80003366:	18 97       	mov	r7,r12
80003368:	16 94       	mov	r4,r11
8000336a:	58 0c       	cp.w	r12,0
8000336c:	c2 e0       	breq	800033c8 <xQueueCreate+0x64>
8000336e:	34 cc       	mov	r12,76
80003370:	ca 4e       	rcall	800030b8 <pvPortMalloc>
80003372:	18 96       	mov	r6,r12
80003374:	c2 a0       	breq	800033c8 <xQueueCreate+0x64>
80003376:	e8 07 02 43 	mul	r3,r4,r7
8000337a:	e6 cc ff ff 	sub	r12,r3,-1
8000337e:	c9 de       	rcall	800030b8 <pvPortMalloc>
80003380:	8d 0c       	st.w	r6[0x0],r12
80003382:	18 95       	mov	r5,r12
80003384:	c1 e0       	breq	800033c0 <xQueueCreate+0x5c>
80003386:	3f f8       	mov	r8,-1
80003388:	ed 48 00 48 	st.w	r6[72],r8
8000338c:	ed 48 00 44 	st.w	r6[68],r8
80003390:	30 08       	mov	r8,0
80003392:	8d f7       	st.w	r6[0x3c],r7
80003394:	ed 44 00 40 	st.w	r6[64],r4
80003398:	20 17       	sub	r7,1
8000339a:	f8 03 00 03 	add	r3,r12,r3
8000339e:	8d 2c       	st.w	r6[0x8],r12
800033a0:	8d e8       	st.w	r6[0x38],r8
800033a2:	ec cc ff f0 	sub	r12,r6,-16
800033a6:	8d 13       	st.w	r6[0x4],r3
800033a8:	ee 04 02 44 	mul	r4,r7,r4
800033ac:	08 05       	add	r5,r4
800033ae:	8d 35       	st.w	r6[0xc],r5
800033b0:	fe b0 fc e6 	rcall	80002d7c <vListInitialise>
800033b4:	ec cc ff dc 	sub	r12,r6,-36
800033b8:	fe b0 fc e2 	rcall	80002d7c <vListInitialise>
800033bc:	0c 9c       	mov	r12,r6
800033be:	d8 32       	popm	r0-r7,pc
800033c0:	0c 9c       	mov	r12,r6
800033c2:	c6 de       	rcall	8000309c <vPortFree>
800033c4:	0a 9c       	mov	r12,r5
800033c6:	d8 32       	popm	r0-r7,pc
800033c8:	d8 3a       	popm	r0-r7,pc,r12=0
800033ca:	d7 03       	nop

800033cc <xQueueCreateCountingSemaphore>:
800033cc:	d4 21       	pushm	r4-r7,lr
800033ce:	16 97       	mov	r7,r11
800033d0:	30 0b       	mov	r11,0
800033d2:	cc 9f       	rcall	80003364 <xQueueCreate>
800033d4:	f9 f7 1a 0e 	st.wne	r12[0x38],r7
800033d8:	d8 22       	popm	r4-r7,pc
800033da:	d7 03       	nop

800033dc <vTaskSuspendAll>:
800033dc:	e0 68 07 60 	mov	r8,1888
800033e0:	70 09       	ld.w	r9,r8[0x0]
800033e2:	2f f9       	sub	r9,-1
800033e4:	91 09       	st.w	r8[0x0],r9
800033e6:	5e fc       	retal	r12

800033e8 <vTaskSwitchContext>:
800033e8:	e0 68 07 60 	mov	r8,1888
800033ec:	70 08       	ld.w	r8,r8[0x0]
800033ee:	58 08       	cp.w	r8,0
800033f0:	c0 90       	breq	80003402 <vTaskSwitchContext+0x1a>
800033f2:	30 19       	mov	r9,1
800033f4:	e0 68 07 80 	mov	r8,1920
800033f8:	c2 78       	rjmp	80003446 <vTaskSwitchContext+0x5e>
800033fa:	70 09       	ld.w	r9,r8[0x0]
800033fc:	20 19       	sub	r9,1
800033fe:	91 09       	st.w	r8[0x0],r9
80003400:	c0 58       	rjmp	8000340a <vTaskSwitchContext+0x22>
80003402:	e0 68 07 98 	mov	r8,1944
80003406:	e0 6a 06 7c 	mov	r10,1660
8000340a:	70 09       	ld.w	r9,r8[0x0]
8000340c:	f2 09 00 29 	add	r9,r9,r9<<0x2
80003410:	f4 09 03 29 	ld.w	r9,r10[r9<<0x2]
80003414:	58 09       	cp.w	r9,0
80003416:	cf 20       	breq	800033fa <vTaskSwitchContext+0x12>
80003418:	e0 69 06 7c 	mov	r9,1660
8000341c:	e0 68 07 98 	mov	r8,1944
80003420:	70 08       	ld.w	r8,r8[0x0]
80003422:	f0 08 00 28 	add	r8,r8,r8<<0x2
80003426:	f2 08 00 28 	add	r8,r9,r8<<0x2
8000342a:	70 19       	ld.w	r9,r8[0x4]
8000342c:	f0 ca ff f8 	sub	r10,r8,-8
80003430:	72 19       	ld.w	r9,r9[0x4]
80003432:	91 19       	st.w	r8[0x4],r9
80003434:	14 39       	cp.w	r9,r10
80003436:	f3 f9 00 01 	ld.weq	r9,r9[0x4]
8000343a:	f1 f9 0a 01 	st.weq	r8[0x4],r9
8000343e:	70 18       	ld.w	r8,r8[0x4]
80003440:	70 39       	ld.w	r9,r8[0xc]
80003442:	e0 68 07 30 	mov	r8,1840
80003446:	91 09       	st.w	r8[0x0],r9
80003448:	5e fc       	retal	r12
8000344a:	d7 03       	nop

8000344c <vTaskSetTimeOutState>:
8000344c:	e0 68 06 74 	mov	r8,1652
80003450:	70 08       	ld.w	r8,r8[0x0]
80003452:	99 08       	st.w	r12[0x0],r8
80003454:	e0 68 07 5c 	mov	r8,1884
80003458:	70 08       	ld.w	r8,r8[0x0]
8000345a:	99 18       	st.w	r12[0x4],r8
8000345c:	5e fc       	retal	r12
8000345e:	d7 03       	nop

80003460 <vTaskMissedYield>:
80003460:	30 19       	mov	r9,1
80003462:	e0 68 07 80 	mov	r8,1920
80003466:	91 09       	st.w	r8[0x0],r9
80003468:	5e fc       	retal	r12
8000346a:	d7 03       	nop

8000346c <xTaskGetCurrentTaskHandle>:
8000346c:	e0 68 07 30 	mov	r8,1840
80003470:	70 0c       	ld.w	r12,r8[0x0]
80003472:	5e fc       	retal	r12

80003474 <vTaskPriorityDisinherit>:
80003474:	d4 21       	pushm	r4-r7,lr
80003476:	18 97       	mov	r7,r12
80003478:	58 0c       	cp.w	r12,0
8000347a:	c1 e0       	breq	800034b6 <vTaskPriorityDisinherit+0x42>
8000347c:	78 b9       	ld.w	r9,r12[0x2c]
8000347e:	79 18       	ld.w	r8,r12[0x44]
80003480:	10 39       	cp.w	r9,r8
80003482:	c1 a0       	breq	800034b6 <vTaskPriorityDisinherit+0x42>
80003484:	f8 c6 ff fc 	sub	r6,r12,-4
80003488:	0c 9c       	mov	r12,r6
8000348a:	fe b0 fc ac 	rcall	80002de2 <vListRemove>
8000348e:	6f 1c       	ld.w	r12,r7[0x44]
80003490:	f8 08 11 08 	rsub	r8,r12,8
80003494:	8f bc       	st.w	r7[0x2c],r12
80003496:	8f 68       	st.w	r7[0x18],r8
80003498:	e0 68 07 98 	mov	r8,1944
8000349c:	70 09       	ld.w	r9,r8[0x0]
8000349e:	12 3c       	cp.w	r12,r9
800034a0:	f1 fc ba 00 	st.whi	r8[0x0],r12
800034a4:	e0 68 06 7c 	mov	r8,1660
800034a8:	f8 0c 00 2c 	add	r12,r12,r12<<0x2
800034ac:	0c 9b       	mov	r11,r6
800034ae:	f0 0c 00 2c 	add	r12,r8,r12<<0x2
800034b2:	fe b0 fc 72 	rcall	80002d96 <vListInsertEnd>
800034b6:	d8 22       	popm	r4-r7,pc

800034b8 <vTaskPriorityInherit>:
800034b8:	d4 21       	pushm	r4-r7,lr
800034ba:	e0 66 07 30 	mov	r6,1840
800034be:	6c 08       	ld.w	r8,r6[0x0]
800034c0:	18 97       	mov	r7,r12
800034c2:	70 b9       	ld.w	r9,r8[0x2c]
800034c4:	78 b8       	ld.w	r8,r12[0x2c]
800034c6:	12 38       	cp.w	r8,r9
800034c8:	c2 a2       	brcc	8000351c <vTaskPriorityInherit+0x64>
800034ca:	6c 09       	ld.w	r9,r6[0x0]
800034cc:	72 b9       	ld.w	r9,r9[0x2c]
800034ce:	f2 09 11 08 	rsub	r9,r9,8
800034d2:	99 69       	st.w	r12[0x18],r9
800034d4:	e0 69 06 7c 	mov	r9,1660
800034d8:	f0 08 00 28 	add	r8,r8,r8<<0x2
800034dc:	f2 08 00 28 	add	r8,r9,r8<<0x2
800034e0:	78 59       	ld.w	r9,r12[0x14]
800034e2:	10 39       	cp.w	r9,r8
800034e4:	c1 91       	brne	80003516 <vTaskPriorityInherit+0x5e>
800034e6:	f8 c5 ff fc 	sub	r5,r12,-4
800034ea:	0a 9c       	mov	r12,r5
800034ec:	fe b0 fc 7b 	rcall	80002de2 <vListRemove>
800034f0:	6c 08       	ld.w	r8,r6[0x0]
800034f2:	70 bc       	ld.w	r12,r8[0x2c]
800034f4:	e0 68 07 98 	mov	r8,1944
800034f8:	8f bc       	st.w	r7[0x2c],r12
800034fa:	70 09       	ld.w	r9,r8[0x0]
800034fc:	12 3c       	cp.w	r12,r9
800034fe:	f1 fc ba 00 	st.whi	r8[0x0],r12
80003502:	e0 68 06 7c 	mov	r8,1660
80003506:	f8 0c 00 2c 	add	r12,r12,r12<<0x2
8000350a:	0a 9b       	mov	r11,r5
8000350c:	f0 0c 00 2c 	add	r12,r8,r12<<0x2
80003510:	fe b0 fc 43 	rcall	80002d96 <vListInsertEnd>
80003514:	d8 22       	popm	r4-r7,pc
80003516:	6c 08       	ld.w	r8,r6[0x0]
80003518:	70 b8       	ld.w	r8,r8[0x2c]
8000351a:	99 b8       	st.w	r12[0x2c],r8
8000351c:	d8 22       	popm	r4-r7,pc
8000351e:	d7 03       	nop

80003520 <xTaskRemoveFromEventList>:
80003520:	d4 21       	pushm	r4-r7,lr
80003522:	78 38       	ld.w	r8,r12[0xc]
80003524:	70 37       	ld.w	r7,r8[0xc]
80003526:	ee c6 ff e8 	sub	r6,r7,-24
8000352a:	0c 9c       	mov	r12,r6
8000352c:	fe b0 fc 5b 	rcall	80002de2 <vListRemove>
80003530:	e0 68 07 60 	mov	r8,1888
80003534:	70 08       	ld.w	r8,r8[0x0]
80003536:	58 08       	cp.w	r8,0
80003538:	c1 51       	brne	80003562 <xTaskRemoveFromEventList+0x42>
8000353a:	ee c6 ff fc 	sub	r6,r7,-4
8000353e:	0c 9c       	mov	r12,r6
80003540:	fe b0 fc 51 	rcall	80002de2 <vListRemove>
80003544:	e0 68 07 98 	mov	r8,1944
80003548:	6e bc       	ld.w	r12,r7[0x2c]
8000354a:	70 09       	ld.w	r9,r8[0x0]
8000354c:	0c 9b       	mov	r11,r6
8000354e:	12 3c       	cp.w	r12,r9
80003550:	f1 fc ba 00 	st.whi	r8[0x0],r12
80003554:	f8 0c 00 2c 	add	r12,r12,r12<<0x2
80003558:	e0 68 06 7c 	mov	r8,1660
8000355c:	f0 0c 00 2c 	add	r12,r8,r12<<0x2
80003560:	c0 48       	rjmp	80003568 <xTaskRemoveFromEventList+0x48>
80003562:	0c 9b       	mov	r11,r6
80003564:	e0 6c 07 34 	mov	r12,1844
80003568:	fe b0 fc 17 	rcall	80002d96 <vListInsertEnd>
8000356c:	6e b9       	ld.w	r9,r7[0x2c]
8000356e:	e0 68 07 30 	mov	r8,1840
80003572:	70 08       	ld.w	r8,r8[0x0]
80003574:	70 b8       	ld.w	r8,r8[0x2c]
80003576:	10 39       	cp.w	r9,r8
80003578:	5f 2c       	srhs	r12
8000357a:	d8 22       	popm	r4-r7,pc

8000357c <vTaskIncrementTick>:
8000357c:	d4 31       	pushm	r0-r7,lr
8000357e:	e0 68 07 60 	mov	r8,1888
80003582:	70 08       	ld.w	r8,r8[0x0]
80003584:	58 08       	cp.w	r8,0
80003586:	c5 d1       	brne	80003640 <vTaskIncrementTick+0xc4>
80003588:	e0 68 07 5c 	mov	r8,1884
8000358c:	70 09       	ld.w	r9,r8[0x0]
8000358e:	2f f9       	sub	r9,-1
80003590:	91 09       	st.w	r8[0x0],r9
80003592:	70 08       	ld.w	r8,r8[0x0]
80003594:	58 08       	cp.w	r8,0
80003596:	c1 d1       	brne	800035d0 <vTaskIncrementTick+0x54>
80003598:	e0 68 06 68 	mov	r8,1640
8000359c:	e0 69 06 78 	mov	r9,1656
800035a0:	70 0a       	ld.w	r10,r8[0x0]
800035a2:	72 0b       	ld.w	r11,r9[0x0]
800035a4:	91 0b       	st.w	r8[0x0],r11
800035a6:	93 0a       	st.w	r9[0x0],r10
800035a8:	e0 69 06 74 	mov	r9,1652
800035ac:	72 0a       	ld.w	r10,r9[0x0]
800035ae:	2f fa       	sub	r10,-1
800035b0:	93 0a       	st.w	r9[0x0],r10
800035b2:	70 09       	ld.w	r9,r8[0x0]
800035b4:	72 0a       	ld.w	r10,r9[0x0]
800035b6:	32 89       	mov	r9,40
800035b8:	58 0a       	cp.w	r10,0
800035ba:	f9 b8 00 ff 	moveq	r8,-1
800035be:	f1 f8 10 00 	ld.wne	r8,r8[0x0]
800035c2:	f1 f8 10 03 	ld.wne	r8,r8[0xc]
800035c6:	f1 f8 10 03 	ld.wne	r8,r8[0xc]
800035ca:	f1 f8 10 01 	ld.wne	r8,r8[0x4]
800035ce:	93 08       	st.w	r9[0x0],r8
800035d0:	e0 64 07 5c 	mov	r4,1884
800035d4:	32 88       	mov	r8,40
800035d6:	68 09       	ld.w	r9,r4[0x0]
800035d8:	70 08       	ld.w	r8,r8[0x0]
800035da:	10 39       	cp.w	r9,r8
800035dc:	c3 73       	brcs	8000364a <vTaskIncrementTick+0xce>
800035de:	e0 66 06 68 	mov	r6,1640
800035e2:	e0 67 07 98 	mov	r7,1944
800035e6:	e0 65 06 7c 	mov	r5,1660
800035ea:	6c 08       	ld.w	r8,r6[0x0]
800035ec:	70 08       	ld.w	r8,r8[0x0]
800035ee:	58 08       	cp.w	r8,0
800035f0:	c0 51       	brne	800035fa <vTaskIncrementTick+0x7e>
800035f2:	3f f9       	mov	r9,-1
800035f4:	32 88       	mov	r8,40
800035f6:	91 09       	st.w	r8[0x0],r9
800035f8:	d8 32       	popm	r0-r7,pc
800035fa:	6c 08       	ld.w	r8,r6[0x0]
800035fc:	70 38       	ld.w	r8,r8[0xc]
800035fe:	70 33       	ld.w	r3,r8[0xc]
80003600:	68 09       	ld.w	r9,r4[0x0]
80003602:	66 18       	ld.w	r8,r3[0x4]
80003604:	10 39       	cp.w	r9,r8
80003606:	c0 42       	brcc	8000360e <vTaskIncrementTick+0x92>
80003608:	32 89       	mov	r9,40
8000360a:	93 08       	st.w	r9[0x0],r8
8000360c:	d8 32       	popm	r0-r7,pc
8000360e:	e6 c2 ff fc 	sub	r2,r3,-4
80003612:	04 9c       	mov	r12,r2
80003614:	fe b0 fb e7 	rcall	80002de2 <vListRemove>
80003618:	66 a8       	ld.w	r8,r3[0x28]
8000361a:	58 08       	cp.w	r8,0
8000361c:	c0 50       	breq	80003626 <vTaskIncrementTick+0xaa>
8000361e:	e6 cc ff e8 	sub	r12,r3,-24
80003622:	fe b0 fb e0 	rcall	80002de2 <vListRemove>
80003626:	66 b8       	ld.w	r8,r3[0x2c]
80003628:	6e 09       	ld.w	r9,r7[0x0]
8000362a:	f0 08 00 2c 	add	r12,r8,r8<<0x2
8000362e:	04 9b       	mov	r11,r2
80003630:	ea 0c 00 2c 	add	r12,r5,r12<<0x2
80003634:	12 38       	cp.w	r8,r9
80003636:	ef f8 ba 00 	st.whi	r7[0x0],r8
8000363a:	fe b0 fb ae 	rcall	80002d96 <vListInsertEnd>
8000363e:	cd 6b       	rjmp	800035ea <vTaskIncrementTick+0x6e>
80003640:	e0 68 06 60 	mov	r8,1632
80003644:	70 09       	ld.w	r9,r8[0x0]
80003646:	2f f9       	sub	r9,-1
80003648:	91 09       	st.w	r8[0x0],r9
8000364a:	d8 32       	popm	r0-r7,pc

8000364c <xTaskCheckForTimeOut>:
8000364c:	d4 21       	pushm	r4-r7,lr
8000364e:	16 97       	mov	r7,r11
80003650:	18 96       	mov	r6,r12
80003652:	fe b0 fc 25 	rcall	80002e9c <vPortEnterCritical>
80003656:	6e 09       	ld.w	r9,r7[0x0]
80003658:	5b f9       	cp.w	r9,-1
8000365a:	c1 f0       	breq	80003698 <xTaskCheckForTimeOut+0x4c>
8000365c:	e0 68 06 74 	mov	r8,1652
80003660:	70 0a       	ld.w	r10,r8[0x0]
80003662:	6c 08       	ld.w	r8,r6[0x0]
80003664:	10 3a       	cp.w	r10,r8
80003666:	c0 70       	breq	80003674 <xTaskCheckForTimeOut+0x28>
80003668:	e0 68 07 5c 	mov	r8,1884
8000366c:	70 0a       	ld.w	r10,r8[0x0]
8000366e:	6c 18       	ld.w	r8,r6[0x4]
80003670:	10 3a       	cp.w	r10,r8
80003672:	c1 52       	brcc	8000369c <xTaskCheckForTimeOut+0x50>
80003674:	e0 68 07 5c 	mov	r8,1884
80003678:	70 0b       	ld.w	r11,r8[0x0]
8000367a:	6c 1a       	ld.w	r10,r6[0x4]
8000367c:	14 1b       	sub	r11,r10
8000367e:	12 3b       	cp.w	r11,r9
80003680:	c0 e2       	brcc	8000369c <xTaskCheckForTimeOut+0x50>
80003682:	70 0b       	ld.w	r11,r8[0x0]
80003684:	16 1a       	sub	r10,r11
80003686:	f4 09 00 09 	add	r9,r10,r9
8000368a:	8f 09       	st.w	r7[0x0],r9
8000368c:	e0 69 06 74 	mov	r9,1652
80003690:	72 09       	ld.w	r9,r9[0x0]
80003692:	8d 09       	st.w	r6[0x0],r9
80003694:	70 08       	ld.w	r8,r8[0x0]
80003696:	8d 18       	st.w	r6[0x4],r8
80003698:	30 07       	mov	r7,0
8000369a:	c0 28       	rjmp	8000369e <xTaskCheckForTimeOut+0x52>
8000369c:	30 17       	mov	r7,1
8000369e:	fe b0 fc 7d 	rcall	80002f98 <vPortExitCritical>
800036a2:	0e 9c       	mov	r12,r7
800036a4:	d8 22       	popm	r4-r7,pc
800036a6:	d7 03       	nop

800036a8 <xTaskResumeAll>:
800036a8:	d4 31       	pushm	r0-r7,lr
800036aa:	fe b0 fb f9 	rcall	80002e9c <vPortEnterCritical>
800036ae:	e0 68 07 60 	mov	r8,1888
800036b2:	70 09       	ld.w	r9,r8[0x0]
800036b4:	20 19       	sub	r9,1
800036b6:	91 09       	st.w	r8[0x0],r9
800036b8:	70 06       	ld.w	r6,r8[0x0]
800036ba:	58 06       	cp.w	r6,0
800036bc:	c4 b1       	brne	80003752 <xTaskResumeAll+0xaa>
800036be:	e0 68 07 7c 	mov	r8,1916
800036c2:	70 08       	ld.w	r8,r8[0x0]
800036c4:	58 08       	cp.w	r8,0
800036c6:	c4 60       	breq	80003752 <xTaskResumeAll+0xaa>
800036c8:	e0 64 07 34 	mov	r4,1844
800036cc:	e0 65 07 98 	mov	r5,1944
800036d0:	e0 62 06 7c 	mov	r2,1660
800036d4:	e0 63 07 30 	mov	r3,1840
800036d8:	c1 e8       	rjmp	80003714 <xTaskResumeAll+0x6c>
800036da:	68 38       	ld.w	r8,r4[0xc]
800036dc:	70 37       	ld.w	r7,r8[0xc]
800036de:	ee cc ff e8 	sub	r12,r7,-24
800036e2:	fe b0 fb 80 	rcall	80002de2 <vListRemove>
800036e6:	ee c1 ff fc 	sub	r1,r7,-4
800036ea:	02 9c       	mov	r12,r1
800036ec:	fe b0 fb 7b 	rcall	80002de2 <vListRemove>
800036f0:	6e b8       	ld.w	r8,r7[0x2c]
800036f2:	6a 09       	ld.w	r9,r5[0x0]
800036f4:	f0 08 00 2c 	add	r12,r8,r8<<0x2
800036f8:	12 38       	cp.w	r8,r9
800036fa:	eb f8 ba 00 	st.whi	r5[0x0],r8
800036fe:	02 9b       	mov	r11,r1
80003700:	e4 0c 00 2c 	add	r12,r2,r12<<0x2
80003704:	fe b0 fb 49 	rcall	80002d96 <vListInsertEnd>
80003708:	6e b9       	ld.w	r9,r7[0x2c]
8000370a:	66 08       	ld.w	r8,r3[0x0]
8000370c:	70 b8       	ld.w	r8,r8[0x2c]
8000370e:	10 39       	cp.w	r9,r8
80003710:	f9 b6 02 01 	movhs	r6,1
80003714:	68 08       	ld.w	r8,r4[0x0]
80003716:	58 08       	cp.w	r8,0
80003718:	ce 11       	brne	800036da <xTaskResumeAll+0x32>
8000371a:	e0 67 06 60 	mov	r7,1632
8000371e:	6e 08       	ld.w	r8,r7[0x0]
80003720:	58 08       	cp.w	r8,0
80003722:	c0 61       	brne	8000372e <xTaskResumeAll+0x86>
80003724:	c0 98       	rjmp	80003736 <xTaskResumeAll+0x8e>
80003726:	c2 bf       	rcall	8000357c <vTaskIncrementTick>
80003728:	6e 08       	ld.w	r8,r7[0x0]
8000372a:	20 18       	sub	r8,1
8000372c:	8f 08       	st.w	r7[0x0],r8
8000372e:	6e 08       	ld.w	r8,r7[0x0]
80003730:	58 08       	cp.w	r8,0
80003732:	cf a1       	brne	80003726 <xTaskResumeAll+0x7e>
80003734:	c0 88       	rjmp	80003744 <xTaskResumeAll+0x9c>
80003736:	58 16       	cp.w	r6,1
80003738:	c0 60       	breq	80003744 <xTaskResumeAll+0x9c>
8000373a:	e0 68 07 80 	mov	r8,1920
8000373e:	70 08       	ld.w	r8,r8[0x0]
80003740:	58 18       	cp.w	r8,1
80003742:	c0 81       	brne	80003752 <xTaskResumeAll+0xaa>
80003744:	30 09       	mov	r9,0
80003746:	e0 68 07 80 	mov	r8,1920
8000374a:	91 09       	st.w	r8[0x0],r9
8000374c:	d7 33       	scall
8000374e:	30 17       	mov	r7,1
80003750:	c0 28       	rjmp	80003754 <xTaskResumeAll+0xac>
80003752:	30 07       	mov	r7,0
80003754:	fe b0 fc 22 	rcall	80002f98 <vPortExitCritical>
80003758:	0e 9c       	mov	r12,r7
8000375a:	d8 32       	popm	r0-r7,pc

8000375c <prvAddCurrentTaskToDelayedList>:
8000375c:	d4 21       	pushm	r4-r7,lr
8000375e:	e0 68 07 30 	mov	r8,1840
80003762:	70 09       	ld.w	r9,r8[0x0]
80003764:	93 1c       	st.w	r9[0x4],r12
80003766:	18 97       	mov	r7,r12
80003768:	e0 69 07 5c 	mov	r9,1884
8000376c:	72 09       	ld.w	r9,r9[0x0]
8000376e:	12 3c       	cp.w	r12,r9
80003770:	c0 92       	brcc	80003782 <prvAddCurrentTaskToDelayedList+0x26>
80003772:	70 0b       	ld.w	r11,r8[0x0]
80003774:	e0 68 06 78 	mov	r8,1656
80003778:	2f cb       	sub	r11,-4
8000377a:	70 0c       	ld.w	r12,r8[0x0]
8000377c:	fe b0 fb 1b 	rcall	80002db2 <vListInsert>
80003780:	d8 22       	popm	r4-r7,pc
80003782:	70 0b       	ld.w	r11,r8[0x0]
80003784:	e0 68 06 68 	mov	r8,1640
80003788:	2f cb       	sub	r11,-4
8000378a:	70 0c       	ld.w	r12,r8[0x0]
8000378c:	fe b0 fb 13 	rcall	80002db2 <vListInsert>
80003790:	32 88       	mov	r8,40
80003792:	70 09       	ld.w	r9,r8[0x0]
80003794:	12 37       	cp.w	r7,r9
80003796:	f1 f7 3a 00 	st.wcs	r8[0x0],r7
8000379a:	d8 22       	popm	r4-r7,pc

8000379c <vTaskDelay>:
8000379c:	d4 21       	pushm	r4-r7,lr
8000379e:	18 97       	mov	r7,r12
800037a0:	58 0c       	cp.w	r12,0
800037a2:	c1 40       	breq	800037ca <vTaskDelay+0x2e>
800037a4:	e0 68 07 60 	mov	r8,1888
800037a8:	70 09       	ld.w	r9,r8[0x0]
800037aa:	2f f9       	sub	r9,-1
800037ac:	91 09       	st.w	r8[0x0],r9
800037ae:	e0 68 07 5c 	mov	r8,1884
800037b2:	70 06       	ld.w	r6,r8[0x0]
800037b4:	e0 68 07 30 	mov	r8,1840
800037b8:	70 0c       	ld.w	r12,r8[0x0]
800037ba:	2f cc       	sub	r12,-4
800037bc:	fe b0 fb 13 	rcall	80002de2 <vListRemove>
800037c0:	ee 06 00 0c 	add	r12,r7,r6
800037c4:	cc cf       	rcall	8000375c <prvAddCurrentTaskToDelayedList>
800037c6:	c7 1f       	rcall	800036a8 <xTaskResumeAll>
800037c8:	c0 21       	brne	800037cc <vTaskDelay+0x30>
800037ca:	d7 33       	scall
800037cc:	d8 22       	popm	r4-r7,pc
800037ce:	d7 03       	nop

800037d0 <vTaskPlaceOnEventList>:
800037d0:	d4 21       	pushm	r4-r7,lr
800037d2:	e0 67 07 30 	mov	r7,1840
800037d6:	16 96       	mov	r6,r11
800037d8:	6e 0b       	ld.w	r11,r7[0x0]
800037da:	2e 8b       	sub	r11,-24
800037dc:	fe b0 fa eb 	rcall	80002db2 <vListInsert>
800037e0:	6e 0c       	ld.w	r12,r7[0x0]
800037e2:	2f cc       	sub	r12,-4
800037e4:	fe b0 fa ff 	rcall	80002de2 <vListRemove>
800037e8:	5b f6       	cp.w	r6,-1
800037ea:	c0 81       	brne	800037fa <vTaskPlaceOnEventList+0x2a>
800037ec:	6e 0b       	ld.w	r11,r7[0x0]
800037ee:	e0 6c 07 84 	mov	r12,1924
800037f2:	2f cb       	sub	r11,-4
800037f4:	fe b0 fa d1 	rcall	80002d96 <vListInsertEnd>
800037f8:	d8 22       	popm	r4-r7,pc
800037fa:	e0 68 07 5c 	mov	r8,1884
800037fe:	70 0c       	ld.w	r12,r8[0x0]
80003800:	ec 0c 00 0c 	add	r12,r6,r12
80003804:	ca cf       	rcall	8000375c <prvAddCurrentTaskToDelayedList>
80003806:	d8 22       	popm	r4-r7,pc

80003808 <prvIdleTask>:
80003808:	d4 31       	pushm	r0-r7,lr
8000380a:	e0 67 06 70 	mov	r7,1648
8000380e:	e0 63 07 60 	mov	r3,1888
80003812:	e0 64 07 1c 	mov	r4,1820
80003816:	e0 65 07 7c 	mov	r5,1916
8000381a:	e0 62 06 7c 	mov	r2,1660
8000381e:	6e 08       	ld.w	r8,r7[0x0]
80003820:	58 08       	cp.w	r8,0
80003822:	c1 e0       	breq	8000385e <prvIdleTask+0x56>
80003824:	66 08       	ld.w	r8,r3[0x0]
80003826:	2f f8       	sub	r8,-1
80003828:	87 08       	st.w	r3[0x0],r8
8000382a:	68 06       	ld.w	r6,r4[0x0]
8000382c:	c3 ef       	rcall	800036a8 <xTaskResumeAll>
8000382e:	58 06       	cp.w	r6,0
80003830:	c1 70       	breq	8000385e <prvIdleTask+0x56>
80003832:	fe b0 fb 35 	rcall	80002e9c <vPortEnterCritical>
80003836:	68 38       	ld.w	r8,r4[0xc]
80003838:	70 36       	ld.w	r6,r8[0xc]
8000383a:	ec cc ff fc 	sub	r12,r6,-4
8000383e:	fe b0 fa d2 	rcall	80002de2 <vListRemove>
80003842:	6a 08       	ld.w	r8,r5[0x0]
80003844:	20 18       	sub	r8,1
80003846:	8b 08       	st.w	r5[0x0],r8
80003848:	6e 08       	ld.w	r8,r7[0x0]
8000384a:	20 18       	sub	r8,1
8000384c:	8f 08       	st.w	r7[0x0],r8
8000384e:	fe b0 fb a5 	rcall	80002f98 <vPortExitCritical>
80003852:	6c cc       	ld.w	r12,r6[0x30]
80003854:	fe b0 fc 24 	rcall	8000309c <vPortFree>
80003858:	0c 9c       	mov	r12,r6
8000385a:	fe b0 fc 21 	rcall	8000309c <vPortFree>
8000385e:	64 08       	ld.w	r8,r2[0x0]
80003860:	58 18       	cp.w	r8,1
80003862:	fe 98 ff de 	brls	8000381e <prvIdleTask+0x16>
80003866:	d7 33       	scall
80003868:	cd bb       	rjmp	8000381e <prvIdleTask+0x16>
8000386a:	d7 03       	nop

8000386c <xTaskGenericCreate>:
8000386c:	d4 31       	pushm	r0-r7,lr
8000386e:	fa c4 ff dc 	sub	r4,sp,-36
80003872:	18 91       	mov	r1,r12
80003874:	68 10       	ld.w	r0,r4[0x4]
80003876:	68 02       	ld.w	r2,r4[0x0]
80003878:	16 97       	mov	r7,r11
8000387a:	14 93       	mov	r3,r10
8000387c:	12 96       	mov	r6,r9
8000387e:	10 95       	mov	r5,r8
80003880:	34 8c       	mov	r12,72
80003882:	fe b0 fc 1b 	rcall	800030b8 <pvPortMalloc>
80003886:	18 94       	mov	r4,r12
80003888:	c0 f0       	breq	800038a6 <xTaskGenericCreate+0x3a>
8000388a:	58 00       	cp.w	r0,0
8000388c:	c0 71       	brne	8000389a <xTaskGenericCreate+0x2e>
8000388e:	f9 d3 c0 10 	bfextu	r12,r3,0x0,0x10
80003892:	a3 6c       	lsl	r12,0x2
80003894:	fe b0 fc 12 	rcall	800030b8 <pvPortMalloc>
80003898:	18 90       	mov	r0,r12
8000389a:	89 c0       	st.w	r4[0x30],r0
8000389c:	58 00       	cp.w	r0,0
8000389e:	c0 51       	brne	800038a8 <xTaskGenericCreate+0x3c>
800038a0:	08 9c       	mov	r12,r4
800038a2:	fe b0 fb fd 	rcall	8000309c <vPortFree>
800038a6:	dc 3a       	popm	r0-r7,pc,r12=-1
800038a8:	5c 73       	castu.h	r3
800038aa:	00 9c       	mov	r12,r0
800038ac:	e6 0a 15 02 	lsl	r10,r3,0x2
800038b0:	e0 6b 00 a5 	mov	r11,165
800038b4:	e0 a0 08 2c 	rcall	8000490c <memset>
800038b8:	68 c8       	ld.w	r8,r4[0x30]
800038ba:	0e 9b       	mov	r11,r7
800038bc:	31 0a       	mov	r10,16
800038be:	20 13       	sub	r3,1
800038c0:	e8 cc ff cc 	sub	r12,r4,-52
800038c4:	f0 03 00 23 	add	r3,r8,r3<<0x2
800038c8:	e0 a0 09 b8 	rcall	80004c38 <strncpy>
800038cc:	30 08       	mov	r8,0
800038ce:	e8 c7 ff fc 	sub	r7,r4,-4
800038d2:	e9 68 00 43 	st.b	r4[67],r8
800038d6:	58 75       	cp.w	r5,7
800038d8:	ea 00 17 80 	movls	r0,r5
800038dc:	f9 b0 0b 07 	movhi	r0,7
800038e0:	0e 9c       	mov	r12,r7
800038e2:	89 b0       	st.w	r4[0x2c],r0
800038e4:	e9 40 00 44 	st.w	r4[68],r0
800038e8:	fe b0 fa 54 	rcall	80002d90 <vListInitialiseItem>
800038ec:	e8 cc ff e8 	sub	r12,r4,-24
800038f0:	fe b0 fa 50 	rcall	80002d90 <vListInitialiseItem>
800038f4:	0c 9a       	mov	r10,r6
800038f6:	02 9b       	mov	r11,r1
800038f8:	e0 00 11 08 	rsub	r0,r0,8
800038fc:	e0 13 ff fc 	andl	r3,0xfffc
80003900:	89 60       	st.w	r4[0x18],r0
80003902:	89 44       	st.w	r4[0x10],r4
80003904:	89 94       	st.w	r4[0x24],r4
80003906:	06 9c       	mov	r12,r3
80003908:	fe b0 fa 80 	rcall	80002e08 <pxPortInitialiseStack>
8000390c:	89 0c       	st.w	r4[0x0],r12
8000390e:	58 02       	cp.w	r2,0
80003910:	e5 f4 1a 00 	st.wne	r2[0x0],r4
80003914:	fe b0 fa c4 	rcall	80002e9c <vPortEnterCritical>
80003918:	e0 69 07 7c 	mov	r9,1916
8000391c:	72 08       	ld.w	r8,r9[0x0]
8000391e:	2f f8       	sub	r8,-1
80003920:	93 08       	st.w	r9[0x0],r8
80003922:	e0 68 07 30 	mov	r8,1840
80003926:	70 0a       	ld.w	r10,r8[0x0]
80003928:	58 0a       	cp.w	r10,0
8000392a:	c2 c1       	brne	80003982 <xTaskGenericCreate+0x116>
8000392c:	91 04       	st.w	r8[0x0],r4
8000392e:	72 08       	ld.w	r8,r9[0x0]
80003930:	58 18       	cp.w	r8,1
80003932:	c3 21       	brne	80003996 <xTaskGenericCreate+0x12a>
80003934:	e0 66 06 7c 	mov	r6,1660
80003938:	ec c3 ff 60 	sub	r3,r6,-160
8000393c:	0c 9c       	mov	r12,r6
8000393e:	2e c6       	sub	r6,-20
80003940:	fe b0 fa 1e 	rcall	80002d7c <vListInitialise>
80003944:	06 36       	cp.w	r6,r3
80003946:	cf b1       	brne	8000393c <xTaskGenericCreate+0xd0>
80003948:	e0 63 07 48 	mov	r3,1864
8000394c:	06 9c       	mov	r12,r3
8000394e:	fe b0 fa 17 	rcall	80002d7c <vListInitialise>
80003952:	e0 66 07 64 	mov	r6,1892
80003956:	0c 9c       	mov	r12,r6
80003958:	fe b0 fa 12 	rcall	80002d7c <vListInitialise>
8000395c:	e0 6c 07 34 	mov	r12,1844
80003960:	fe b0 fa 0e 	rcall	80002d7c <vListInitialise>
80003964:	e0 6c 07 1c 	mov	r12,1820
80003968:	fe b0 fa 0a 	rcall	80002d7c <vListInitialise>
8000396c:	e0 6c 07 84 	mov	r12,1924
80003970:	fe b0 fa 06 	rcall	80002d7c <vListInitialise>
80003974:	e0 68 06 68 	mov	r8,1640
80003978:	91 03       	st.w	r8[0x0],r3
8000397a:	e0 68 06 78 	mov	r8,1656
8000397e:	91 06       	st.w	r8[0x0],r6
80003980:	c0 b8       	rjmp	80003996 <xTaskGenericCreate+0x12a>
80003982:	e0 69 06 6c 	mov	r9,1644
80003986:	72 09       	ld.w	r9,r9[0x0]
80003988:	58 09       	cp.w	r9,0
8000398a:	c0 61       	brne	80003996 <xTaskGenericCreate+0x12a>
8000398c:	70 09       	ld.w	r9,r8[0x0]
8000398e:	72 b9       	ld.w	r9,r9[0x2c]
80003990:	0a 39       	cp.w	r9,r5
80003992:	f1 f4 8a 00 	st.wls	r8[0x0],r4
80003996:	e0 68 06 64 	mov	r8,1636
8000399a:	68 bc       	ld.w	r12,r4[0x2c]
8000399c:	70 09       	ld.w	r9,r8[0x0]
8000399e:	12 3c       	cp.w	r12,r9
800039a0:	f1 fc ba 00 	st.whi	r8[0x0],r12
800039a4:	e0 68 07 78 	mov	r8,1912
800039a8:	70 09       	ld.w	r9,r8[0x0]
800039aa:	2f f9       	sub	r9,-1
800039ac:	91 09       	st.w	r8[0x0],r9
800039ae:	e0 68 07 98 	mov	r8,1944
800039b2:	0e 9b       	mov	r11,r7
800039b4:	70 09       	ld.w	r9,r8[0x0]
800039b6:	12 3c       	cp.w	r12,r9
800039b8:	f1 fc ba 00 	st.whi	r8[0x0],r12
800039bc:	e0 68 06 7c 	mov	r8,1660
800039c0:	f8 0c 00 2c 	add	r12,r12,r12<<0x2
800039c4:	f0 0c 00 2c 	add	r12,r8,r12<<0x2
800039c8:	fe b0 f9 e7 	rcall	80002d96 <vListInsertEnd>
800039cc:	fe b0 fa e6 	rcall	80002f98 <vPortExitCritical>
800039d0:	e0 68 06 6c 	mov	r8,1644
800039d4:	70 08       	ld.w	r8,r8[0x0]
800039d6:	58 08       	cp.w	r8,0
800039d8:	c0 90       	breq	800039ea <xTaskGenericCreate+0x17e>
800039da:	e0 68 07 30 	mov	r8,1840
800039de:	70 08       	ld.w	r8,r8[0x0]
800039e0:	70 b8       	ld.w	r8,r8[0x2c]
800039e2:	0a 38       	cp.w	r8,r5
800039e4:	c0 32       	brcc	800039ea <xTaskGenericCreate+0x17e>
800039e6:	d7 33       	scall
800039e8:	da 3a       	popm	r0-r7,pc,r12=1
800039ea:	da 3a       	popm	r0-r7,pc,r12=1

800039ec <vTaskStartScheduler>:
800039ec:	d4 21       	pushm	r4-r7,lr
800039ee:	30 07       	mov	r7,0
800039f0:	e0 6a 01 00 	mov	r10,256
800039f4:	1a d7       	st.w	--sp,r7
800039f6:	0e 98       	mov	r8,r7
800039f8:	1a d7       	st.w	--sp,r7
800039fa:	0e 99       	mov	r9,r7
800039fc:	1a d7       	st.w	--sp,r7
800039fe:	fe cb 9f 1e 	sub	r11,pc,-24802
80003a02:	fe cc 01 fa 	sub	r12,pc,506
80003a06:	c3 3f       	rcall	8000386c <xTaskGenericCreate>
80003a08:	2f dd       	sub	sp,-12
80003a0a:	58 1c       	cp.w	r12,1
80003a0c:	c0 a1       	brne	80003a20 <vTaskStartScheduler+0x34>
80003a0e:	d3 03       	ssrf	0x10
80003a10:	e0 68 06 6c 	mov	r8,1644
80003a14:	91 0c       	st.w	r8[0x0],r12
80003a16:	e0 68 07 5c 	mov	r8,1884
80003a1a:	91 07       	st.w	r8[0x0],r7
80003a1c:	fe b0 fa 46 	rcall	80002ea8 <xPortStartScheduler>
80003a20:	d8 22       	popm	r4-r7,pc
80003a22:	d7 03       	nop

80003a24 <__avr32_f64_mul>:
80003a24:	f5 eb 10 1c 	or	r12,r10,r11<<0x1
80003a28:	e0 80 00 dc 	breq	80003be0 <__avr32_f64_mul_op1_zero>
80003a2c:	d4 21       	pushm	r4-r7,lr
80003a2e:	f7 e9 20 0e 	eor	lr,r11,r9
80003a32:	ef db c2 8b 	bfextu	r7,r11,0x14,0xb
80003a36:	30 15       	mov	r5,1
80003a38:	c4 30       	breq	80003abe <__avr32_f64_mul_op1_subnormal>
80003a3a:	ab 6b       	lsl	r11,0xa
80003a3c:	f7 ea 13 6b 	or	r11,r11,r10>>0x16
80003a40:	ab 6a       	lsl	r10,0xa
80003a42:	f7 d5 d3 c2 	bfins	r11,r5,0x1e,0x2
80003a46:	ed d9 c2 8b 	bfextu	r6,r9,0x14,0xb
80003a4a:	c5 c0       	breq	80003b02 <__avr32_f64_mul_op2_subnormal>
80003a4c:	a1 78       	lsl	r8,0x1
80003a4e:	5c f9       	rol	r9
80003a50:	f3 d5 d2 ab 	bfins	r9,r5,0x15,0xb
80003a54:	e0 47 07 ff 	cp.w	r7,2047
80003a58:	c7 70       	breq	80003b46 <__avr32_f64_mul_op_nan_or_inf>
80003a5a:	e0 46 07 ff 	cp.w	r6,2047
80003a5e:	c7 40       	breq	80003b46 <__avr32_f64_mul_op_nan_or_inf>
80003a60:	ee 06 00 0c 	add	r12,r7,r6
80003a64:	e0 2c 03 fe 	sub	r12,1022
80003a68:	f6 08 06 44 	mulu.d	r4,r11,r8
80003a6c:	f4 09 07 44 	macu.d	r4,r10,r9
80003a70:	f4 08 06 46 	mulu.d	r6,r10,r8
80003a74:	f6 09 06 4a 	mulu.d	r10,r11,r9
80003a78:	08 07       	add	r7,r4
80003a7a:	f4 05 00 4a 	adc	r10,r10,r5
80003a7e:	5c 0b       	acr	r11
80003a80:	ed bb 00 14 	bld	r11,0x14
80003a84:	c0 50       	breq	80003a8e <__avr32_f64_mul+0x6a>
80003a86:	a1 77       	lsl	r7,0x1
80003a88:	5c fa       	rol	r10
80003a8a:	5c fb       	rol	r11
80003a8c:	20 1c       	sub	r12,1
80003a8e:	58 0c       	cp.w	r12,0
80003a90:	e0 8a 00 6f 	brle	80003b6e <__avr32_f64_mul_res_subnormal>
80003a94:	e0 4c 07 ff 	cp.w	r12,2047
80003a98:	e0 84 00 9c 	brge	80003bd0 <__avr32_f64_mul_res_inf>
80003a9c:	f7 dc d2 8b 	bfins	r11,r12,0x14,0xb
80003aa0:	ed ea 11 f6 	or	r6,r6,r10<<0x1f
80003aa4:	ef e6 12 17 	or	r7,r7,r6>>0x1
80003aa8:	ee 17 80 00 	eorh	r7,0x8000
80003aac:	f1 b7 04 20 	satu	r7,0x1
80003ab0:	0e 0a       	add	r10,r7
80003ab2:	5c 0b       	acr	r11
80003ab4:	ed be 00 1f 	bld	lr,0x1f
80003ab8:	ef bb 00 1f 	bst	r11,0x1f
80003abc:	d8 22       	popm	r4-r7,pc

80003abe <__avr32_f64_mul_op1_subnormal>:
80003abe:	e4 1b 00 0f 	andh	r11,0xf
80003ac2:	f4 0c 12 00 	clz	r12,r10
80003ac6:	f6 06 12 00 	clz	r6,r11
80003aca:	f7 bc 03 e1 	sublo	r12,-31
80003ace:	f8 06 17 30 	movlo	r6,r12
80003ad2:	f7 b6 02 01 	subhs	r6,1
80003ad6:	e0 46 00 20 	cp.w	r6,32
80003ada:	c0 d4       	brge	80003af4 <__avr32_f64_mul_op1_subnormal+0x36>
80003adc:	ec 0c 11 20 	rsub	r12,r6,32
80003ae0:	f6 06 09 4b 	lsl	r11,r11,r6
80003ae4:	f4 0c 0a 4c 	lsr	r12,r10,r12
80003ae8:	18 4b       	or	r11,r12
80003aea:	f4 06 09 4a 	lsl	r10,r10,r6
80003aee:	20 b6       	sub	r6,11
80003af0:	0c 17       	sub	r7,r6
80003af2:	ca ab       	rjmp	80003a46 <__avr32_f64_mul+0x22>
80003af4:	f4 06 09 4b 	lsl	r11,r10,r6
80003af8:	c6 40       	breq	80003bc0 <__avr32_f64_mul_res_zero>
80003afa:	30 0a       	mov	r10,0
80003afc:	20 b6       	sub	r6,11
80003afe:	0c 17       	sub	r7,r6
80003b00:	ca 3b       	rjmp	80003a46 <__avr32_f64_mul+0x22>

80003b02 <__avr32_f64_mul_op2_subnormal>:
80003b02:	e4 19 00 0f 	andh	r9,0xf
80003b06:	f0 0c 12 00 	clz	r12,r8
80003b0a:	f2 05 12 00 	clz	r5,r9
80003b0e:	f7 bc 03 ea 	sublo	r12,-22
80003b12:	f8 05 17 30 	movlo	r5,r12
80003b16:	f7 b5 02 0a 	subhs	r5,10
80003b1a:	e0 45 00 20 	cp.w	r5,32
80003b1e:	c0 d4       	brge	80003b38 <__avr32_f64_mul_op2_subnormal+0x36>
80003b20:	ea 0c 11 20 	rsub	r12,r5,32
80003b24:	f2 05 09 49 	lsl	r9,r9,r5
80003b28:	f0 0c 0a 4c 	lsr	r12,r8,r12
80003b2c:	18 49       	or	r9,r12
80003b2e:	f0 05 09 48 	lsl	r8,r8,r5
80003b32:	20 25       	sub	r5,2
80003b34:	0a 16       	sub	r6,r5
80003b36:	c8 fb       	rjmp	80003a54 <__avr32_f64_mul+0x30>
80003b38:	f0 05 09 49 	lsl	r9,r8,r5
80003b3c:	c4 20       	breq	80003bc0 <__avr32_f64_mul_res_zero>
80003b3e:	30 08       	mov	r8,0
80003b40:	20 25       	sub	r5,2
80003b42:	0a 16       	sub	r6,r5
80003b44:	c8 8b       	rjmp	80003a54 <__avr32_f64_mul+0x30>

80003b46 <__avr32_f64_mul_op_nan_or_inf>:
80003b46:	e4 19 00 0f 	andh	r9,0xf
80003b4a:	e4 1b 00 0f 	andh	r11,0xf
80003b4e:	14 4b       	or	r11,r10
80003b50:	10 49       	or	r9,r8
80003b52:	e0 47 07 ff 	cp.w	r7,2047
80003b56:	c0 91       	brne	80003b68 <__avr32_f64_mul_op1_not_naninf>
80003b58:	58 0b       	cp.w	r11,0
80003b5a:	c3 81       	brne	80003bca <__avr32_f64_mul_res_nan>
80003b5c:	e0 46 07 ff 	cp.w	r6,2047
80003b60:	c3 81       	brne	80003bd0 <__avr32_f64_mul_res_inf>
80003b62:	58 09       	cp.w	r9,0
80003b64:	c3 60       	breq	80003bd0 <__avr32_f64_mul_res_inf>
80003b66:	c3 28       	rjmp	80003bca <__avr32_f64_mul_res_nan>

80003b68 <__avr32_f64_mul_op1_not_naninf>:
80003b68:	58 09       	cp.w	r9,0
80003b6a:	c3 30       	breq	80003bd0 <__avr32_f64_mul_res_inf>
80003b6c:	c2 f8       	rjmp	80003bca <__avr32_f64_mul_res_nan>

80003b6e <__avr32_f64_mul_res_subnormal>:
80003b6e:	5c 3c       	neg	r12
80003b70:	2f fc       	sub	r12,-1
80003b72:	f1 bc 04 c0 	satu	r12,0x6
80003b76:	e0 4c 00 20 	cp.w	r12,32
80003b7a:	c1 14       	brge	80003b9c <__avr32_f64_mul_res_subnormal+0x2e>
80003b7c:	f8 08 11 20 	rsub	r8,r12,32
80003b80:	0e 46       	or	r6,r7
80003b82:	ee 0c 0a 47 	lsr	r7,r7,r12
80003b86:	f4 08 09 49 	lsl	r9,r10,r8
80003b8a:	12 47       	or	r7,r9
80003b8c:	f4 0c 0a 4a 	lsr	r10,r10,r12
80003b90:	f6 08 09 49 	lsl	r9,r11,r8
80003b94:	12 4a       	or	r10,r9
80003b96:	f6 0c 0a 4b 	lsr	r11,r11,r12
80003b9a:	c8 3b       	rjmp	80003aa0 <__avr32_f64_mul+0x7c>
80003b9c:	f8 08 11 20 	rsub	r8,r12,32
80003ba0:	f9 b9 00 00 	moveq	r9,0
80003ba4:	c0 30       	breq	80003baa <__avr32_f64_mul_res_subnormal+0x3c>
80003ba6:	f6 08 09 49 	lsl	r9,r11,r8
80003baa:	0e 46       	or	r6,r7
80003bac:	ed ea 10 16 	or	r6,r6,r10<<0x1
80003bb0:	f4 0c 0a 4a 	lsr	r10,r10,r12
80003bb4:	f3 ea 10 07 	or	r7,r9,r10
80003bb8:	f6 0c 0a 4a 	lsr	r10,r11,r12
80003bbc:	30 0b       	mov	r11,0
80003bbe:	c7 1b       	rjmp	80003aa0 <__avr32_f64_mul+0x7c>

80003bc0 <__avr32_f64_mul_res_zero>:
80003bc0:	1c 9b       	mov	r11,lr
80003bc2:	e6 1b 80 00 	andh	r11,0x8000,COH
80003bc6:	30 0a       	mov	r10,0
80003bc8:	d8 22       	popm	r4-r7,pc

80003bca <__avr32_f64_mul_res_nan>:
80003bca:	3f fb       	mov	r11,-1
80003bcc:	3f fa       	mov	r10,-1
80003bce:	d8 22       	popm	r4-r7,pc

80003bd0 <__avr32_f64_mul_res_inf>:
80003bd0:	f0 6b 00 00 	mov	r11,-1048576
80003bd4:	ed be 00 1f 	bld	lr,0x1f
80003bd8:	ef bb 00 1f 	bst	r11,0x1f
80003bdc:	30 0a       	mov	r10,0
80003bde:	d8 22       	popm	r4-r7,pc

80003be0 <__avr32_f64_mul_op1_zero>:
80003be0:	f7 e9 20 0b 	eor	r11,r11,r9
80003be4:	e6 1b 80 00 	andh	r11,0x8000,COH
80003be8:	f9 d9 c2 8b 	bfextu	r12,r9,0x14,0xb
80003bec:	e0 4c 07 ff 	cp.w	r12,2047
80003bf0:	5e 1c       	retne	r12
80003bf2:	3f fa       	mov	r10,-1
80003bf4:	3f fb       	mov	r11,-1
80003bf6:	5e fc       	retal	r12

80003bf8 <__avr32_f64_sub_from_add>:
80003bf8:	ee 19 80 00 	eorh	r9,0x8000

80003bfc <__avr32_f64_sub>:
80003bfc:	f7 e9 20 0c 	eor	r12,r11,r9
80003c00:	e0 86 00 ca 	brmi	80003d94 <__avr32_f64_add_from_sub>
80003c04:	eb cd 40 e0 	pushm	r5-r7,lr
80003c08:	16 9c       	mov	r12,r11
80003c0a:	e6 1c 80 00 	andh	r12,0x8000,COH
80003c0e:	bf db       	cbr	r11,0x1f
80003c10:	bf d9       	cbr	r9,0x1f
80003c12:	10 3a       	cp.w	r10,r8
80003c14:	f2 0b 13 00 	cpc	r11,r9
80003c18:	c0 92       	brcc	80003c2a <__avr32_f64_sub+0x2e>
80003c1a:	16 97       	mov	r7,r11
80003c1c:	12 9b       	mov	r11,r9
80003c1e:	0e 99       	mov	r9,r7
80003c20:	14 97       	mov	r7,r10
80003c22:	10 9a       	mov	r10,r8
80003c24:	0e 98       	mov	r8,r7
80003c26:	ee 1c 80 00 	eorh	r12,0x8000
80003c2a:	f6 07 16 14 	lsr	r7,r11,0x14
80003c2e:	ab 7b       	lsl	r11,0xb
80003c30:	f7 ea 13 5b 	or	r11,r11,r10>>0x15
80003c34:	ab 7a       	lsl	r10,0xb
80003c36:	bf bb       	sbr	r11,0x1f
80003c38:	f2 06 16 14 	lsr	r6,r9,0x14
80003c3c:	c4 40       	breq	80003cc4 <__avr32_f64_sub_opL_subnormal>
80003c3e:	ab 79       	lsl	r9,0xb
80003c40:	f3 e8 13 59 	or	r9,r9,r8>>0x15
80003c44:	ab 78       	lsl	r8,0xb
80003c46:	bf b9       	sbr	r9,0x1f

80003c48 <__avr32_f64_sub_opL_subnormal_done>:
80003c48:	e0 47 07 ff 	cp.w	r7,2047
80003c4c:	c4 f0       	breq	80003cea <__avr32_f64_sub_opH_nan_or_inf>
80003c4e:	0e 26       	rsub	r6,r7
80003c50:	c1 20       	breq	80003c74 <__avr32_f64_sub_shift_done>
80003c52:	ec 05 11 20 	rsub	r5,r6,32
80003c56:	e0 46 00 20 	cp.w	r6,32
80003c5a:	c7 c2       	brcc	80003d52 <__avr32_f64_sub_longshift>
80003c5c:	f0 05 09 4e 	lsl	lr,r8,r5
80003c60:	f2 05 09 45 	lsl	r5,r9,r5
80003c64:	f0 06 0a 48 	lsr	r8,r8,r6
80003c68:	f2 06 0a 49 	lsr	r9,r9,r6
80003c6c:	0a 48       	or	r8,r5
80003c6e:	58 0e       	cp.w	lr,0
80003c70:	5f 1e       	srne	lr
80003c72:	1c 48       	or	r8,lr

80003c74 <__avr32_f64_sub_shift_done>:
80003c74:	10 1a       	sub	r10,r8
80003c76:	f6 09 01 4b 	sbc	r11,r11,r9
80003c7a:	f6 06 12 00 	clz	r6,r11
80003c7e:	c0 e0       	breq	80003c9a <__avr32_f64_sub_longnormalize_done>
80003c80:	c7 83       	brcs	80003d70 <__avr32_f64_sub_longnormalize>
80003c82:	ec 0e 11 20 	rsub	lr,r6,32
80003c86:	f6 06 09 4b 	lsl	r11,r11,r6
80003c8a:	f4 0e 0a 4e 	lsr	lr,r10,lr
80003c8e:	1c 4b       	or	r11,lr
80003c90:	f4 06 09 4a 	lsl	r10,r10,r6
80003c94:	0c 17       	sub	r7,r6
80003c96:	e0 8a 00 39 	brle	80003d08 <__avr32_f64_sub_subnormal_result>

80003c9a <__avr32_f64_sub_longnormalize_done>:
80003c9a:	f4 09 15 15 	lsl	r9,r10,0x15
80003c9e:	ab 9a       	lsr	r10,0xb
80003ca0:	f5 eb 11 5a 	or	r10,r10,r11<<0x15
80003ca4:	ab 9b       	lsr	r11,0xb
80003ca6:	f7 d7 d2 8b 	bfins	r11,r7,0x14,0xb
80003caa:	18 4b       	or	r11,r12

80003cac <__avr32_f64_sub_round>:
80003cac:	fc 17 80 00 	movh	r7,0x8000
80003cb0:	ed ba 00 00 	bld	r10,0x0
80003cb4:	f7 b7 01 ff 	subne	r7,-1
80003cb8:	0e 39       	cp.w	r9,r7
80003cba:	5f 29       	srhs	r9
80003cbc:	12 0a       	add	r10,r9
80003cbe:	5c 0b       	acr	r11
80003cc0:	e3 cd 80 e0 	ldm	sp++,r5-r7,pc

80003cc4 <__avr32_f64_sub_opL_subnormal>:
80003cc4:	ab 79       	lsl	r9,0xb
80003cc6:	f3 e8 13 59 	or	r9,r9,r8>>0x15
80003cca:	ab 78       	lsl	r8,0xb
80003ccc:	f3 e8 10 0e 	or	lr,r9,r8
80003cd0:	f9 b6 01 01 	movne	r6,1
80003cd4:	ee 0e 11 00 	rsub	lr,r7,0
80003cd8:	f9 b7 00 01 	moveq	r7,1
80003cdc:	ef bb 00 1f 	bst	r11,0x1f
80003ce0:	f7 ea 10 0e 	or	lr,r11,r10
80003ce4:	f9 b7 00 00 	moveq	r7,0
80003ce8:	cb 0b       	rjmp	80003c48 <__avr32_f64_sub_opL_subnormal_done>

80003cea <__avr32_f64_sub_opH_nan_or_inf>:
80003cea:	bf db       	cbr	r11,0x1f
80003cec:	f7 ea 10 0e 	or	lr,r11,r10
80003cf0:	c0 81       	brne	80003d00 <__avr32_f64_sub_return_nan>
80003cf2:	e0 46 07 ff 	cp.w	r6,2047
80003cf6:	c0 50       	breq	80003d00 <__avr32_f64_sub_return_nan>
80003cf8:	f9 e7 11 4b 	or	r11,r12,r7<<0x14
80003cfc:	e3 cd 80 e0 	ldm	sp++,r5-r7,pc

80003d00 <__avr32_f64_sub_return_nan>:
80003d00:	3f fa       	mov	r10,-1
80003d02:	3f fb       	mov	r11,-1
80003d04:	e3 cd 80 e0 	ldm	sp++,r5-r7,pc

80003d08 <__avr32_f64_sub_subnormal_result>:
80003d08:	5c 37       	neg	r7
80003d0a:	2f f7       	sub	r7,-1
80003d0c:	f1 b7 04 c0 	satu	r7,0x6
80003d10:	e0 47 00 20 	cp.w	r7,32
80003d14:	c1 14       	brge	80003d36 <__avr32_f64_sub_subnormal_result+0x2e>
80003d16:	ee 08 11 20 	rsub	r8,r7,32
80003d1a:	f4 08 09 49 	lsl	r9,r10,r8
80003d1e:	5f 16       	srne	r6
80003d20:	f4 07 0a 4a 	lsr	r10,r10,r7
80003d24:	0c 4a       	or	r10,r6
80003d26:	f6 08 09 49 	lsl	r9,r11,r8
80003d2a:	f5 e9 10 0a 	or	r10,r10,r9
80003d2e:	f4 07 0a 4b 	lsr	r11,r10,r7
80003d32:	30 07       	mov	r7,0
80003d34:	cb 3b       	rjmp	80003c9a <__avr32_f64_sub_longnormalize_done>
80003d36:	ee 08 11 40 	rsub	r8,r7,64
80003d3a:	f6 08 09 49 	lsl	r9,r11,r8
80003d3e:	14 49       	or	r9,r10
80003d40:	5f 16       	srne	r6
80003d42:	f6 07 0a 4a 	lsr	r10,r11,r7
80003d46:	0c 4a       	or	r10,r6
80003d48:	30 0b       	mov	r11,0
80003d4a:	30 07       	mov	r7,0
80003d4c:	ca 7b       	rjmp	80003c9a <__avr32_f64_sub_longnormalize_done>
80003d4e:	e3 cd 80 e0 	ldm	sp++,r5-r7,pc

80003d52 <__avr32_f64_sub_longshift>:
80003d52:	f1 b6 04 c0 	satu	r6,0x6
80003d56:	f0 0e 17 00 	moveq	lr,r8
80003d5a:	c0 40       	breq	80003d62 <__avr32_f64_sub_longshift+0x10>
80003d5c:	f2 05 09 4e 	lsl	lr,r9,r5
80003d60:	10 4e       	or	lr,r8
80003d62:	f2 06 0a 48 	lsr	r8,r9,r6
80003d66:	30 09       	mov	r9,0
80003d68:	58 0e       	cp.w	lr,0
80003d6a:	5f 1e       	srne	lr
80003d6c:	1c 48       	or	r8,lr
80003d6e:	c8 3b       	rjmp	80003c74 <__avr32_f64_sub_shift_done>

80003d70 <__avr32_f64_sub_longnormalize>:
80003d70:	f4 06 12 00 	clz	r6,r10
80003d74:	f9 b7 03 00 	movlo	r7,0
80003d78:	f9 b6 03 00 	movlo	r6,0
80003d7c:	f9 bc 03 00 	movlo	r12,0
80003d80:	f7 b6 02 e0 	subhs	r6,-32
80003d84:	f4 06 09 4b 	lsl	r11,r10,r6
80003d88:	30 0a       	mov	r10,0
80003d8a:	0c 17       	sub	r7,r6
80003d8c:	fe 9a ff be 	brle	80003d08 <__avr32_f64_sub_subnormal_result>
80003d90:	c8 5b       	rjmp	80003c9a <__avr32_f64_sub_longnormalize_done>
80003d92:	d7 03       	nop

80003d94 <__avr32_f64_add_from_sub>:
80003d94:	ee 19 80 00 	eorh	r9,0x8000

80003d98 <__avr32_f64_add>:
80003d98:	f7 e9 20 0c 	eor	r12,r11,r9
80003d9c:	fe 96 ff 2e 	brmi	80003bf8 <__avr32_f64_sub_from_add>
80003da0:	eb cd 40 e0 	pushm	r5-r7,lr
80003da4:	16 9c       	mov	r12,r11
80003da6:	e6 1c 80 00 	andh	r12,0x8000,COH
80003daa:	bf db       	cbr	r11,0x1f
80003dac:	bf d9       	cbr	r9,0x1f
80003dae:	12 3b       	cp.w	r11,r9
80003db0:	c0 72       	brcc	80003dbe <__avr32_f64_add+0x26>
80003db2:	16 97       	mov	r7,r11
80003db4:	12 9b       	mov	r11,r9
80003db6:	0e 99       	mov	r9,r7
80003db8:	14 97       	mov	r7,r10
80003dba:	10 9a       	mov	r10,r8
80003dbc:	0e 98       	mov	r8,r7
80003dbe:	30 0e       	mov	lr,0
80003dc0:	ef db c2 8b 	bfextu	r7,r11,0x14,0xb
80003dc4:	f7 db c0 14 	bfextu	r11,r11,0x0,0x14
80003dc8:	b5 ab       	sbr	r11,0x14
80003dca:	ed d9 c2 8b 	bfextu	r6,r9,0x14,0xb
80003dce:	c6 20       	breq	80003e92 <__avr32_f64_add_op2_subnormal>
80003dd0:	f3 d9 c0 14 	bfextu	r9,r9,0x0,0x14
80003dd4:	b5 a9       	sbr	r9,0x14
80003dd6:	e0 47 07 ff 	cp.w	r7,2047
80003dda:	c2 80       	breq	80003e2a <__avr32_f64_add_opH_nan_or_inf>
80003ddc:	0e 26       	rsub	r6,r7
80003dde:	c1 20       	breq	80003e02 <__avr32_f64_add_shift_done>
80003de0:	e0 46 00 36 	cp.w	r6,54
80003de4:	c1 52       	brcc	80003e0e <__avr32_f64_add_res_of_done>
80003de6:	ec 05 11 20 	rsub	r5,r6,32
80003dea:	e0 46 00 20 	cp.w	r6,32
80003dee:	c3 52       	brcc	80003e58 <__avr32_f64_add_longshift>
80003df0:	f0 05 09 4e 	lsl	lr,r8,r5
80003df4:	f2 05 09 45 	lsl	r5,r9,r5
80003df8:	f0 06 0a 48 	lsr	r8,r8,r6
80003dfc:	f2 06 0a 49 	lsr	r9,r9,r6
80003e00:	0a 48       	or	r8,r5

80003e02 <__avr32_f64_add_shift_done>:
80003e02:	10 0a       	add	r10,r8
80003e04:	f6 09 00 4b 	adc	r11,r11,r9
80003e08:	ed bb 00 15 	bld	r11,0x15
80003e0c:	c3 40       	breq	80003e74 <__avr32_f64_add_res_of>

80003e0e <__avr32_f64_add_res_of_done>:
80003e0e:	f7 d7 d2 8b 	bfins	r11,r7,0x14,0xb
80003e12:	18 4b       	or	r11,r12

80003e14 <__avr32_f64_add_round>:
80003e14:	f9 da c0 01 	bfextu	r12,r10,0x0,0x1
80003e18:	18 4e       	or	lr,r12
80003e1a:	ee 1e 80 00 	eorh	lr,0x8000
80003e1e:	f1 be 04 20 	satu	lr,0x1
80003e22:	1c 0a       	add	r10,lr
80003e24:	5c 0b       	acr	r11
80003e26:	e3 cd 80 e0 	ldm	sp++,r5-r7,pc

80003e2a <__avr32_f64_add_opH_nan_or_inf>:
80003e2a:	b5 cb       	cbr	r11,0x14
80003e2c:	f7 ea 10 0e 	or	lr,r11,r10
80003e30:	c1 01       	brne	80003e50 <__avr32_f64_add_return_nan>
80003e32:	e0 46 07 ff 	cp.w	r6,2047
80003e36:	c0 30       	breq	80003e3c <__avr32_f64_add_opL_nan_or_inf>
80003e38:	e3 cd 80 e0 	ldm	sp++,r5-r7,pc

80003e3c <__avr32_f64_add_opL_nan_or_inf>:
80003e3c:	b5 c9       	cbr	r9,0x14
80003e3e:	f3 e8 10 0e 	or	lr,r9,r8
80003e42:	c0 71       	brne	80003e50 <__avr32_f64_add_return_nan>
80003e44:	30 0a       	mov	r10,0
80003e46:	fc 1b 7f f0 	movh	r11,0x7ff0
80003e4a:	18 4b       	or	r11,r12
80003e4c:	e3 cd 80 e0 	ldm	sp++,r5-r7,pc

80003e50 <__avr32_f64_add_return_nan>:
80003e50:	3f fa       	mov	r10,-1
80003e52:	3f fb       	mov	r11,-1
80003e54:	e3 cd 80 e0 	ldm	sp++,r5-r7,pc

80003e58 <__avr32_f64_add_longshift>:
80003e58:	f1 b6 04 c0 	satu	r6,0x6
80003e5c:	f0 0e 17 00 	moveq	lr,r8
80003e60:	c0 60       	breq	80003e6c <__avr32_f64_add_longshift+0x14>
80003e62:	f2 05 09 4e 	lsl	lr,r9,r5
80003e66:	58 08       	cp.w	r8,0
80003e68:	5f 18       	srne	r8
80003e6a:	10 4e       	or	lr,r8
80003e6c:	f2 06 0a 48 	lsr	r8,r9,r6
80003e70:	30 09       	mov	r9,0
80003e72:	cc 8b       	rjmp	80003e02 <__avr32_f64_add_shift_done>

80003e74 <__avr32_f64_add_res_of>:
80003e74:	fd ee 10 1e 	or	lr,lr,lr<<0x1
80003e78:	a1 9b       	lsr	r11,0x1
80003e7a:	5d 0a       	ror	r10
80003e7c:	5d 0e       	ror	lr
80003e7e:	2f f7       	sub	r7,-1
80003e80:	e0 47 07 ff 	cp.w	r7,2047
80003e84:	f9 ba 00 00 	moveq	r10,0
80003e88:	f9 bb 00 00 	moveq	r11,0
80003e8c:	f9 be 00 00 	moveq	lr,0
80003e90:	cb fb       	rjmp	80003e0e <__avr32_f64_add_res_of_done>

80003e92 <__avr32_f64_add_op2_subnormal>:
80003e92:	30 16       	mov	r6,1
80003e94:	58 07       	cp.w	r7,0
80003e96:	ca 01       	brne	80003dd6 <__avr32_f64_add+0x3e>
80003e98:	b5 cb       	cbr	r11,0x14
80003e9a:	10 0a       	add	r10,r8
80003e9c:	f6 09 00 4b 	adc	r11,r11,r9
80003ea0:	18 4b       	or	r11,r12
80003ea2:	e3 cd 80 e0 	ldm	sp++,r5-r7,pc
80003ea6:	d7 03       	nop

80003ea8 <__avr32_f64_to_u32>:
80003ea8:	58 0b       	cp.w	r11,0
80003eaa:	5e 6d       	retmi	0

80003eac <__avr32_f64_to_s32>:
80003eac:	f6 0c 15 01 	lsl	r12,r11,0x1
80003eb0:	b5 9c       	lsr	r12,0x15
80003eb2:	e0 2c 03 ff 	sub	r12,1023
80003eb6:	5e 3d       	retlo	0
80003eb8:	f8 0c 11 1f 	rsub	r12,r12,31
80003ebc:	16 99       	mov	r9,r11
80003ebe:	ab 7b       	lsl	r11,0xb
80003ec0:	bf bb       	sbr	r11,0x1f
80003ec2:	f7 ea 13 5b 	or	r11,r11,r10>>0x15
80003ec6:	f6 0c 0a 4b 	lsr	r11,r11,r12
80003eca:	a1 79       	lsl	r9,0x1
80003ecc:	5e 2b       	reths	r11
80003ece:	5c 3b       	neg	r11
80003ed0:	5e fb       	retal	r11

80003ed2 <__avr32_u32_to_f64>:
80003ed2:	f8 cb 00 00 	sub	r11,r12,0
80003ed6:	30 0c       	mov	r12,0
80003ed8:	c0 38       	rjmp	80003ede <__avr32_s32_to_f64+0x4>

80003eda <__avr32_s32_to_f64>:
80003eda:	18 9b       	mov	r11,r12
80003edc:	5c 4b       	abs	r11
80003ede:	30 0a       	mov	r10,0
80003ee0:	5e 0b       	reteq	r11
80003ee2:	d4 01       	pushm	lr
80003ee4:	e0 69 04 1e 	mov	r9,1054
80003ee8:	f6 08 12 00 	clz	r8,r11
80003eec:	c1 70       	breq	80003f1a <__avr32_s32_to_f64+0x40>
80003eee:	c0 c3       	brcs	80003f06 <__avr32_s32_to_f64+0x2c>
80003ef0:	f0 0e 11 20 	rsub	lr,r8,32
80003ef4:	f6 08 09 4b 	lsl	r11,r11,r8
80003ef8:	f4 0e 0a 4e 	lsr	lr,r10,lr
80003efc:	1c 4b       	or	r11,lr
80003efe:	f4 08 09 4a 	lsl	r10,r10,r8
80003f02:	10 19       	sub	r9,r8
80003f04:	c0 b8       	rjmp	80003f1a <__avr32_s32_to_f64+0x40>
80003f06:	f4 08 12 00 	clz	r8,r10
80003f0a:	f9 b8 03 00 	movlo	r8,0
80003f0e:	f7 b8 02 e0 	subhs	r8,-32
80003f12:	f4 08 09 4b 	lsl	r11,r10,r8
80003f16:	30 0a       	mov	r10,0
80003f18:	10 19       	sub	r9,r8
80003f1a:	58 09       	cp.w	r9,0
80003f1c:	e0 89 00 30 	brgt	80003f7c <__avr32_s32_to_f64+0xa2>
80003f20:	5c 39       	neg	r9
80003f22:	2f f9       	sub	r9,-1
80003f24:	e0 49 00 36 	cp.w	r9,54
80003f28:	c0 43       	brcs	80003f30 <__avr32_s32_to_f64+0x56>
80003f2a:	30 0b       	mov	r11,0
80003f2c:	30 0a       	mov	r10,0
80003f2e:	c2 68       	rjmp	80003f7a <__avr32_s32_to_f64+0xa0>
80003f30:	2f 69       	sub	r9,-10
80003f32:	f2 08 11 20 	rsub	r8,r9,32
80003f36:	e0 49 00 20 	cp.w	r9,32
80003f3a:	c0 b2       	brcc	80003f50 <__avr32_s32_to_f64+0x76>
80003f3c:	f4 08 09 4e 	lsl	lr,r10,r8
80003f40:	f6 08 09 48 	lsl	r8,r11,r8
80003f44:	f4 09 0a 4a 	lsr	r10,r10,r9
80003f48:	f6 09 0a 4b 	lsr	r11,r11,r9
80003f4c:	10 4b       	or	r11,r8
80003f4e:	c0 88       	rjmp	80003f5e <__avr32_s32_to_f64+0x84>
80003f50:	f6 08 09 4e 	lsl	lr,r11,r8
80003f54:	14 4e       	or	lr,r10
80003f56:	16 9a       	mov	r10,r11
80003f58:	30 0b       	mov	r11,0
80003f5a:	f4 09 0a 4a 	lsr	r10,r10,r9
80003f5e:	ed ba 00 00 	bld	r10,0x0
80003f62:	c0 92       	brcc	80003f74 <__avr32_s32_to_f64+0x9a>
80003f64:	1c 7e       	tst	lr,lr
80003f66:	c0 41       	brne	80003f6e <__avr32_s32_to_f64+0x94>
80003f68:	ed ba 00 01 	bld	r10,0x1
80003f6c:	c0 42       	brcc	80003f74 <__avr32_s32_to_f64+0x9a>
80003f6e:	2f fa       	sub	r10,-1
80003f70:	f7 bb 02 ff 	subhs	r11,-1
80003f74:	5c fc       	rol	r12
80003f76:	5d 0b       	ror	r11
80003f78:	5d 0a       	ror	r10
80003f7a:	d8 02       	popm	pc
80003f7c:	e0 68 03 ff 	mov	r8,1023
80003f80:	ed ba 00 0b 	bld	r10,0xb
80003f84:	f7 b8 00 ff 	subeq	r8,-1
80003f88:	10 0a       	add	r10,r8
80003f8a:	5c 0b       	acr	r11
80003f8c:	f7 b9 03 fe 	sublo	r9,-2
80003f90:	e0 49 07 ff 	cp.w	r9,2047
80003f94:	c0 55       	brlt	80003f9e <__avr32_s32_to_f64+0xc4>
80003f96:	30 0a       	mov	r10,0
80003f98:	fc 1b ff e0 	movh	r11,0xffe0
80003f9c:	c0 c8       	rjmp	80003fb4 <__floatsidf_return_op1>
80003f9e:	ed bb 00 1f 	bld	r11,0x1f
80003fa2:	f7 b9 01 01 	subne	r9,1
80003fa6:	ab 9a       	lsr	r10,0xb
80003fa8:	f5 eb 11 5a 	or	r10,r10,r11<<0x15
80003fac:	a1 7b       	lsl	r11,0x1
80003fae:	ab 9b       	lsr	r11,0xb
80003fb0:	f7 e9 11 5b 	or	r11,r11,r9<<0x15

80003fb4 <__floatsidf_return_op1>:
80003fb4:	a1 7c       	lsl	r12,0x1
80003fb6:	5d 0b       	ror	r11
80003fb8:	d8 02       	popm	pc

80003fba <__avr32_f64_cmp_lt>:
80003fba:	1a de       	st.w	--sp,lr
80003fbc:	1a d7       	st.w	--sp,r7
80003fbe:	a1 7b       	lsl	r11,0x1
80003fc0:	5f 3c       	srlo	r12
80003fc2:	a1 79       	lsl	r9,0x1
80003fc4:	5f 37       	srlo	r7
80003fc6:	5c fc       	rol	r12
80003fc8:	fc 1e ff e0 	movh	lr,0xffe0
80003fcc:	58 0a       	cp.w	r10,0
80003fce:	fc 0b 13 00 	cpc	r11,lr
80003fd2:	e0 8b 00 1d 	brhi	8000400c <__avr32_f64_cmp_lt+0x52>
80003fd6:	58 08       	cp.w	r8,0
80003fd8:	fc 09 13 00 	cpc	r9,lr
80003fdc:	e0 8b 00 18 	brhi	8000400c <__avr32_f64_cmp_lt+0x52>
80003fe0:	58 0b       	cp.w	r11,0
80003fe2:	f5 ba 00 00 	subfeq	r10,0
80003fe6:	c1 50       	breq	80004010 <__avr32_f64_cmp_lt+0x56>
80003fe8:	1b 07       	ld.w	r7,sp++
80003fea:	1b 0e       	ld.w	lr,sp++
80003fec:	58 3c       	cp.w	r12,3
80003fee:	c0 a0       	breq	80004002 <__avr32_f64_cmp_lt+0x48>
80003ff0:	58 1c       	cp.w	r12,1
80003ff2:	c0 33       	brcs	80003ff8 <__avr32_f64_cmp_lt+0x3e>
80003ff4:	5e 0d       	reteq	0
80003ff6:	5e 1f       	retne	1
80003ff8:	10 3a       	cp.w	r10,r8
80003ffa:	f2 0b 13 00 	cpc	r11,r9
80003ffe:	5e 2d       	reths	0
80004000:	5e 3f       	retlo	1
80004002:	14 38       	cp.w	r8,r10
80004004:	f6 09 13 00 	cpc	r9,r11
80004008:	5e 2d       	reths	0
8000400a:	5e 3f       	retlo	1
8000400c:	1b 07       	ld.w	r7,sp++
8000400e:	d8 0a       	popm	pc,r12=0
80004010:	58 17       	cp.w	r7,1
80004012:	5f 1c       	srne	r12
80004014:	58 09       	cp.w	r9,0
80004016:	f5 b8 00 00 	subfeq	r8,0
8000401a:	1b 07       	ld.w	r7,sp++
8000401c:	1b 0e       	ld.w	lr,sp++
8000401e:	5e 0d       	reteq	0
80004020:	5e fc       	retal	r12
80004022:	d7 03       	nop

80004024 <__avr32_f64_div>:
80004024:	eb cd 40 ff 	pushm	r0-r7,lr
80004028:	f7 e9 20 0e 	eor	lr,r11,r9
8000402c:	f6 07 16 14 	lsr	r7,r11,0x14
80004030:	a9 7b       	lsl	r11,0x9
80004032:	f7 ea 13 7b 	or	r11,r11,r10>>0x17
80004036:	a9 7a       	lsl	r10,0x9
80004038:	bd bb       	sbr	r11,0x1d
8000403a:	e4 1b 3f ff 	andh	r11,0x3fff
8000403e:	ab d7       	cbr	r7,0xb
80004040:	e0 80 00 cc 	breq	800041d8 <__avr32_f64_div_round_subnormal+0x54>
80004044:	e0 47 07 ff 	cp.w	r7,2047
80004048:	e0 84 00 b5 	brge	800041b2 <__avr32_f64_div_round_subnormal+0x2e>
8000404c:	f2 06 16 14 	lsr	r6,r9,0x14
80004050:	a9 79       	lsl	r9,0x9
80004052:	f3 e8 13 79 	or	r9,r9,r8>>0x17
80004056:	a9 78       	lsl	r8,0x9
80004058:	bd b9       	sbr	r9,0x1d
8000405a:	e4 19 3f ff 	andh	r9,0x3fff
8000405e:	ab d6       	cbr	r6,0xb
80004060:	e0 80 00 e2 	breq	80004224 <__avr32_f64_div_round_subnormal+0xa0>
80004064:	e0 46 07 ff 	cp.w	r6,2047
80004068:	e0 84 00 b2 	brge	800041cc <__avr32_f64_div_round_subnormal+0x48>
8000406c:	0c 17       	sub	r7,r6
8000406e:	fe 37 fc 01 	sub	r7,-1023
80004072:	fc 1c 80 00 	movh	r12,0x8000
80004076:	f8 03 16 01 	lsr	r3,r12,0x1
8000407a:	e9 d9 c3 62 	bfextu	r4,r9,0x1b,0x2
8000407e:	5c d4       	com	r4
80004080:	e7 d4 d3 82 	bfins	r3,r4,0x1c,0x2
80004084:	e6 09 06 44 	mulu.d	r4,r3,r9
80004088:	f8 05 01 25 	sub	r5,r12,r5<<0x2
8000408c:	e6 05 06 44 	mulu.d	r4,r3,r5
80004090:	ea 03 15 02 	lsl	r3,r5,0x2
80004094:	e6 09 06 44 	mulu.d	r4,r3,r9
80004098:	f8 05 01 25 	sub	r5,r12,r5<<0x2
8000409c:	e6 05 06 44 	mulu.d	r4,r3,r5
800040a0:	ea 03 15 02 	lsl	r3,r5,0x2
800040a4:	e6 09 06 44 	mulu.d	r4,r3,r9
800040a8:	f8 05 01 25 	sub	r5,r12,r5<<0x2
800040ac:	e6 05 06 44 	mulu.d	r4,r3,r5
800040b0:	ea 03 15 02 	lsl	r3,r5,0x2
800040b4:	e6 08 06 40 	mulu.d	r0,r3,r8
800040b8:	e4 09 07 40 	macu.d	r0,r2,r9
800040bc:	e6 09 06 44 	mulu.d	r4,r3,r9
800040c0:	02 04       	add	r4,r1
800040c2:	5c 05       	acr	r5
800040c4:	a3 65       	lsl	r5,0x2
800040c6:	eb e4 13 e5 	or	r5,r5,r4>>0x1e
800040ca:	a3 64       	lsl	r4,0x2
800040cc:	5c 34       	neg	r4
800040ce:	f8 05 01 45 	sbc	r5,r12,r5
800040d2:	e6 04 06 40 	mulu.d	r0,r3,r4
800040d6:	e4 05 07 40 	macu.d	r0,r2,r5
800040da:	e6 05 06 44 	mulu.d	r4,r3,r5
800040de:	02 04       	add	r4,r1
800040e0:	5c 05       	acr	r5
800040e2:	ea 03 15 02 	lsl	r3,r5,0x2
800040e6:	e7 e4 13 e3 	or	r3,r3,r4>>0x1e
800040ea:	e8 02 15 02 	lsl	r2,r4,0x2
800040ee:	e6 08 06 40 	mulu.d	r0,r3,r8
800040f2:	e4 09 07 40 	macu.d	r0,r2,r9
800040f6:	e6 09 06 44 	mulu.d	r4,r3,r9
800040fa:	02 04       	add	r4,r1
800040fc:	5c 05       	acr	r5
800040fe:	a3 65       	lsl	r5,0x2
80004100:	eb e4 13 e5 	or	r5,r5,r4>>0x1e
80004104:	a3 64       	lsl	r4,0x2
80004106:	5c 34       	neg	r4
80004108:	f8 05 01 45 	sbc	r5,r12,r5
8000410c:	e6 04 06 40 	mulu.d	r0,r3,r4
80004110:	e4 05 07 40 	macu.d	r0,r2,r5
80004114:	e6 05 06 44 	mulu.d	r4,r3,r5
80004118:	02 04       	add	r4,r1
8000411a:	5c 05       	acr	r5
8000411c:	ea 03 15 02 	lsl	r3,r5,0x2
80004120:	e7 e4 13 e3 	or	r3,r3,r4>>0x1e
80004124:	e8 02 15 02 	lsl	r2,r4,0x2
80004128:	e6 0a 06 40 	mulu.d	r0,r3,r10
8000412c:	e4 0b 07 40 	macu.d	r0,r2,r11
80004130:	e6 0b 06 42 	mulu.d	r2,r3,r11
80004134:	02 02       	add	r2,r1
80004136:	5c 03       	acr	r3
80004138:	ed b3 00 1c 	bld	r3,0x1c
8000413c:	c0 90       	breq	8000414e <__avr32_f64_div+0x12a>
8000413e:	a1 72       	lsl	r2,0x1
80004140:	5c f3       	rol	r3
80004142:	20 17       	sub	r7,1
80004144:	a3 9a       	lsr	r10,0x3
80004146:	f5 eb 11 da 	or	r10,r10,r11<<0x1d
8000414a:	a3 9b       	lsr	r11,0x3
8000414c:	c0 58       	rjmp	80004156 <__avr32_f64_div+0x132>
8000414e:	a5 8a       	lsr	r10,0x4
80004150:	f5 eb 11 ca 	or	r10,r10,r11<<0x1c
80004154:	a5 8b       	lsr	r11,0x4
80004156:	58 07       	cp.w	r7,0
80004158:	e0 8a 00 8b 	brle	8000426e <__avr32_f64_div_res_subnormal>
8000415c:	e0 12 ff 00 	andl	r2,0xff00
80004160:	e8 12 00 80 	orl	r2,0x80
80004164:	e6 08 06 40 	mulu.d	r0,r3,r8
80004168:	e4 09 07 40 	macu.d	r0,r2,r9
8000416c:	e4 08 06 44 	mulu.d	r4,r2,r8
80004170:	e6 09 06 48 	mulu.d	r8,r3,r9
80004174:	00 05       	add	r5,r0
80004176:	f0 01 00 48 	adc	r8,r8,r1
8000417a:	5c 09       	acr	r9
8000417c:	f9 d2 c1 01 	bfextu	r12,r2,0x8,0x1
80004180:	58 04       	cp.w	r4,0
80004182:	5c 25       	cpc	r5

80004184 <__avr32_f64_div_round_subnormal>:
80004184:	f4 08 13 00 	cpc	r8,r10
80004188:	f6 09 13 00 	cpc	r9,r11
8000418c:	5f 36       	srlo	r6
8000418e:	f8 06 17 00 	moveq	r6,r12
80004192:	e4 0a 16 08 	lsr	r10,r2,0x8
80004196:	f5 e3 11 8a 	or	r10,r10,r3<<0x18
8000419a:	e6 0b 16 08 	lsr	r11,r3,0x8
8000419e:	f7 d7 d2 8b 	bfins	r11,r7,0x14,0xb
800041a2:	ed be 00 1f 	bld	lr,0x1f
800041a6:	ef bb 00 1f 	bst	r11,0x1f
800041aa:	0c 0a       	add	r10,r6
800041ac:	5c 0b       	acr	r11
800041ae:	e3 cd 80 ff 	ldm	sp++,r0-r7,pc
800041b2:	e4 1b 00 0f 	andh	r11,0xf
800041b6:	14 4b       	or	r11,r10
800041b8:	e0 81 00 a7 	brne	80004306 <__avr32_f64_div_res_subnormal+0x98>
800041bc:	f2 06 16 14 	lsr	r6,r9,0x14
800041c0:	ab d6       	cbr	r6,0xb
800041c2:	e0 46 07 ff 	cp.w	r6,2047
800041c6:	e0 81 00 a4 	brne	8000430e <__avr32_f64_div_res_subnormal+0xa0>
800041ca:	c9 e8       	rjmp	80004306 <__avr32_f64_div_res_subnormal+0x98>
800041cc:	e4 19 00 0f 	andh	r9,0xf
800041d0:	10 49       	or	r9,r8
800041d2:	e0 81 00 9a 	brne	80004306 <__avr32_f64_div_res_subnormal+0x98>
800041d6:	c9 28       	rjmp	800042fa <__avr32_f64_div_res_subnormal+0x8c>
800041d8:	a3 7b       	lsl	r11,0x3
800041da:	f7 ea 13 db 	or	r11,r11,r10>>0x1d
800041de:	a3 7a       	lsl	r10,0x3
800041e0:	f5 eb 10 04 	or	r4,r10,r11
800041e4:	e0 80 00 a0 	breq	80004324 <__avr32_f64_div_op1_zero>
800041e8:	f6 04 12 00 	clz	r4,r11
800041ec:	c1 70       	breq	8000421a <__avr32_f64_div_round_subnormal+0x96>
800041ee:	c0 c3       	brcs	80004206 <__avr32_f64_div_round_subnormal+0x82>
800041f0:	e8 05 11 20 	rsub	r5,r4,32
800041f4:	f6 04 09 4b 	lsl	r11,r11,r4
800041f8:	f4 05 0a 45 	lsr	r5,r10,r5
800041fc:	0a 4b       	or	r11,r5
800041fe:	f4 04 09 4a 	lsl	r10,r10,r4
80004202:	08 17       	sub	r7,r4
80004204:	c0 b8       	rjmp	8000421a <__avr32_f64_div_round_subnormal+0x96>
80004206:	f4 04 12 00 	clz	r4,r10
8000420a:	f9 b4 03 00 	movlo	r4,0
8000420e:	f7 b4 02 e0 	subhs	r4,-32
80004212:	f4 04 09 4b 	lsl	r11,r10,r4
80004216:	30 0a       	mov	r10,0
80004218:	08 17       	sub	r7,r4
8000421a:	a3 8a       	lsr	r10,0x2
8000421c:	f5 eb 11 ea 	or	r10,r10,r11<<0x1e
80004220:	a3 8b       	lsr	r11,0x2
80004222:	c1 1b       	rjmp	80004044 <__avr32_f64_div+0x20>
80004224:	a3 79       	lsl	r9,0x3
80004226:	f3 e8 13 d9 	or	r9,r9,r8>>0x1d
8000422a:	a3 78       	lsl	r8,0x3
8000422c:	f3 e8 10 04 	or	r4,r9,r8
80004230:	c6 f0       	breq	8000430e <__avr32_f64_div_res_subnormal+0xa0>
80004232:	f2 04 12 00 	clz	r4,r9
80004236:	c1 70       	breq	80004264 <__avr32_f64_div_round_subnormal+0xe0>
80004238:	c0 c3       	brcs	80004250 <__avr32_f64_div_round_subnormal+0xcc>
8000423a:	e8 05 11 20 	rsub	r5,r4,32
8000423e:	f2 04 09 49 	lsl	r9,r9,r4
80004242:	f0 05 0a 45 	lsr	r5,r8,r5
80004246:	0a 49       	or	r9,r5
80004248:	f0 04 09 48 	lsl	r8,r8,r4
8000424c:	08 16       	sub	r6,r4
8000424e:	c0 b8       	rjmp	80004264 <__avr32_f64_div_round_subnormal+0xe0>
80004250:	f0 04 12 00 	clz	r4,r8
80004254:	f9 b4 03 00 	movlo	r4,0
80004258:	f7 b4 02 e0 	subhs	r4,-32
8000425c:	f0 04 09 49 	lsl	r9,r8,r4
80004260:	30 08       	mov	r8,0
80004262:	08 16       	sub	r6,r4
80004264:	a3 88       	lsr	r8,0x2
80004266:	f1 e9 11 e8 	or	r8,r8,r9<<0x1e
8000426a:	a3 89       	lsr	r9,0x2
8000426c:	cf ca       	rjmp	80004064 <__avr32_f64_div+0x40>

8000426e <__avr32_f64_div_res_subnormal>:
8000426e:	5c 37       	neg	r7
80004270:	2f f7       	sub	r7,-1
80004272:	f1 b7 04 c0 	satu	r7,0x6
80004276:	e0 47 00 20 	cp.w	r7,32
8000427a:	c1 54       	brge	800042a4 <__avr32_f64_div_res_subnormal+0x36>
8000427c:	ee 06 11 20 	rsub	r6,r7,32
80004280:	e4 07 0a 42 	lsr	r2,r2,r7
80004284:	e6 06 09 4c 	lsl	r12,r3,r6
80004288:	18 42       	or	r2,r12
8000428a:	e6 07 0a 43 	lsr	r3,r3,r7
8000428e:	f4 06 09 41 	lsl	r1,r10,r6
80004292:	f4 07 0a 4a 	lsr	r10,r10,r7
80004296:	f6 06 09 4c 	lsl	r12,r11,r6
8000429a:	18 4a       	or	r10,r12
8000429c:	f6 07 0a 4b 	lsr	r11,r11,r7
800042a0:	30 00       	mov	r0,0
800042a2:	c1 58       	rjmp	800042cc <__avr32_f64_div_res_subnormal+0x5e>
800042a4:	ee 06 11 20 	rsub	r6,r7,32
800042a8:	f9 b0 00 00 	moveq	r0,0
800042ac:	f9 bc 00 00 	moveq	r12,0
800042b0:	c0 50       	breq	800042ba <__avr32_f64_div_res_subnormal+0x4c>
800042b2:	f4 06 09 40 	lsl	r0,r10,r6
800042b6:	f6 06 09 4c 	lsl	r12,r11,r6
800042ba:	e6 07 0a 42 	lsr	r2,r3,r7
800042be:	30 03       	mov	r3,0
800042c0:	f4 07 0a 41 	lsr	r1,r10,r7
800042c4:	18 41       	or	r1,r12
800042c6:	f6 07 0a 4a 	lsr	r10,r11,r7
800042ca:	30 0b       	mov	r11,0
800042cc:	e0 12 ff 00 	andl	r2,0xff00
800042d0:	e8 12 00 80 	orl	r2,0x80
800042d4:	e6 08 06 46 	mulu.d	r6,r3,r8
800042d8:	e4 09 07 46 	macu.d	r6,r2,r9
800042dc:	e4 08 06 44 	mulu.d	r4,r2,r8
800042e0:	e6 09 06 48 	mulu.d	r8,r3,r9
800042e4:	0c 05       	add	r5,r6
800042e6:	f0 07 00 48 	adc	r8,r8,r7
800042ea:	5c 09       	acr	r9
800042ec:	30 07       	mov	r7,0
800042ee:	f9 d2 c1 01 	bfextu	r12,r2,0x8,0x1
800042f2:	00 34       	cp.w	r4,r0
800042f4:	e2 05 13 00 	cpc	r5,r1
800042f8:	c4 6b       	rjmp	80004184 <__avr32_f64_div_round_subnormal>
800042fa:	1c 9b       	mov	r11,lr
800042fc:	e6 1b 80 00 	andh	r11,0x8000,COH
80004300:	30 0a       	mov	r10,0
80004302:	e3 cd 80 ff 	ldm	sp++,r0-r7,pc
80004306:	3f fb       	mov	r11,-1
80004308:	30 0a       	mov	r10,0
8000430a:	e3 cd 80 ff 	ldm	sp++,r0-r7,pc
8000430e:	f5 eb 10 04 	or	r4,r10,r11
80004312:	c0 90       	breq	80004324 <__avr32_f64_div_op1_zero>
80004314:	1c 9b       	mov	r11,lr
80004316:	e6 1b 80 00 	andh	r11,0x8000,COH
8000431a:	ea 1b 7f f0 	orh	r11,0x7ff0
8000431e:	30 0a       	mov	r10,0
80004320:	e3 cd 80 ff 	ldm	sp++,r0-r7,pc

80004324 <__avr32_f64_div_op1_zero>:
80004324:	f1 e9 10 15 	or	r5,r8,r9<<0x1
80004328:	ce f0       	breq	80004306 <__avr32_f64_div_res_subnormal+0x98>
8000432a:	e9 d9 c2 8b 	bfextu	r4,r9,0x14,0xb
8000432e:	e0 44 07 ff 	cp.w	r4,2047
80004332:	ce 41       	brne	800042fa <__avr32_f64_div_res_subnormal+0x8c>
80004334:	f1 e9 10 c5 	or	r5,r8,r9<<0xc
80004338:	ce 10       	breq	800042fa <__avr32_f64_div_res_subnormal+0x8c>
8000433a:	ce 6b       	rjmp	80004306 <__avr32_f64_div_res_subnormal+0x98>

8000433c <atexit>:
8000433c:	d4 01       	pushm	lr
8000433e:	30 09       	mov	r9,0
80004340:	18 9b       	mov	r11,r12
80004342:	12 9a       	mov	r10,r9
80004344:	12 9c       	mov	r12,r9
80004346:	e0 a0 16 8d 	rcall	80007060 <__register_exitproc>
8000434a:	d8 02       	popm	pc

8000434c <exit>:
8000434c:	d4 21       	pushm	r4-r7,lr
8000434e:	30 0b       	mov	r11,0
80004350:	18 97       	mov	r7,r12
80004352:	e0 a0 16 d9 	rcall	80007104 <__call_exitprocs>
80004356:	fe c8 a8 6a 	sub	r8,pc,-22422
8000435a:	70 0c       	ld.w	r12,r8[0x0]
8000435c:	78 a8       	ld.w	r8,r12[0x28]
8000435e:	58 08       	cp.w	r8,0
80004360:	c0 20       	breq	80004364 <exit+0x18>
80004362:	5d 18       	icall	r8
80004364:	0e 9c       	mov	r12,r7
80004366:	e0 a0 04 7e 	rcall	80004c62 <_exit>
8000436a:	d7 03       	nop

8000436c <free>:
8000436c:	d4 01       	pushm	lr
8000436e:	e0 68 01 1c 	mov	r8,284
80004372:	18 9b       	mov	r11,r12
80004374:	70 0c       	ld.w	r12,r8[0x0]
80004376:	e0 a0 1f 23 	rcall	800081bc <_free_r>
8000437a:	d8 02       	popm	pc

8000437c <malloc>:
8000437c:	d4 01       	pushm	lr
8000437e:	e0 68 01 1c 	mov	r8,284
80004382:	18 9b       	mov	r11,r12
80004384:	70 0c       	ld.w	r12,r8[0x0]
80004386:	c0 3c       	rcall	8000438c <_malloc_r>
80004388:	d8 02       	popm	pc
8000438a:	d7 03       	nop

8000438c <_malloc_r>:
8000438c:	d4 31       	pushm	r0-r7,lr
8000438e:	f6 c8 ff f5 	sub	r8,r11,-11
80004392:	18 95       	mov	r5,r12
80004394:	10 97       	mov	r7,r8
80004396:	e0 17 ff f8 	andl	r7,0xfff8
8000439a:	59 68       	cp.w	r8,22
8000439c:	f9 b7 08 10 	movls	r7,16
800043a0:	16 37       	cp.w	r7,r11
800043a2:	5f 38       	srlo	r8
800043a4:	f1 e7 13 f8 	or	r8,r8,r7>>0x1f
800043a8:	c0 50       	breq	800043b2 <_malloc_r+0x26>
800043aa:	30 c8       	mov	r8,12
800043ac:	99 38       	st.w	r12[0xc],r8
800043ae:	e0 8f 01 fa 	bral	800047a2 <_malloc_r+0x416>
800043b2:	fe b0 f6 31 	rcall	80003014 <__malloc_lock>
800043b6:	e0 47 01 f7 	cp.w	r7,503
800043ba:	e0 8b 00 1d 	brhi	800043f4 <_malloc_r+0x68>
800043be:	ee 03 16 03 	lsr	r3,r7,0x3
800043c2:	e0 68 01 20 	mov	r8,288
800043c6:	f0 03 00 38 	add	r8,r8,r3<<0x3
800043ca:	70 36       	ld.w	r6,r8[0xc]
800043cc:	10 36       	cp.w	r6,r8
800043ce:	c0 61       	brne	800043da <_malloc_r+0x4e>
800043d0:	ec c8 ff f8 	sub	r8,r6,-8
800043d4:	70 36       	ld.w	r6,r8[0xc]
800043d6:	10 36       	cp.w	r6,r8
800043d8:	c0 c0       	breq	800043f0 <_malloc_r+0x64>
800043da:	6c 18       	ld.w	r8,r6[0x4]
800043dc:	e0 18 ff fc 	andl	r8,0xfffc
800043e0:	6c 3a       	ld.w	r10,r6[0xc]
800043e2:	ec 08 00 09 	add	r9,r6,r8
800043e6:	0a 9c       	mov	r12,r5
800043e8:	6c 28       	ld.w	r8,r6[0x8]
800043ea:	95 28       	st.w	r10[0x8],r8
800043ec:	91 3a       	st.w	r8[0xc],r10
800043ee:	c4 78       	rjmp	8000447c <_malloc_r+0xf0>
800043f0:	2f e3       	sub	r3,-2
800043f2:	c4 d8       	rjmp	8000448c <_malloc_r+0x100>
800043f4:	ee 03 16 09 	lsr	r3,r7,0x9
800043f8:	c0 41       	brne	80004400 <_malloc_r+0x74>
800043fa:	ee 03 16 03 	lsr	r3,r7,0x3
800043fe:	c2 68       	rjmp	8000444a <_malloc_r+0xbe>
80004400:	58 43       	cp.w	r3,4
80004402:	e0 8b 00 06 	brhi	8000440e <_malloc_r+0x82>
80004406:	ee 03 16 06 	lsr	r3,r7,0x6
8000440a:	2c 83       	sub	r3,-56
8000440c:	c1 f8       	rjmp	8000444a <_malloc_r+0xbe>
8000440e:	59 43       	cp.w	r3,20
80004410:	e0 8b 00 04 	brhi	80004418 <_malloc_r+0x8c>
80004414:	2a 53       	sub	r3,-91
80004416:	c1 a8       	rjmp	8000444a <_malloc_r+0xbe>
80004418:	e0 43 00 54 	cp.w	r3,84
8000441c:	e0 8b 00 06 	brhi	80004428 <_malloc_r+0x9c>
80004420:	ee 03 16 0c 	lsr	r3,r7,0xc
80004424:	29 23       	sub	r3,-110
80004426:	c1 28       	rjmp	8000444a <_malloc_r+0xbe>
80004428:	e0 43 01 54 	cp.w	r3,340
8000442c:	e0 8b 00 06 	brhi	80004438 <_malloc_r+0xac>
80004430:	ee 03 16 0f 	lsr	r3,r7,0xf
80004434:	28 93       	sub	r3,-119
80004436:	c0 a8       	rjmp	8000444a <_malloc_r+0xbe>
80004438:	e0 43 05 54 	cp.w	r3,1364
8000443c:	e0 88 00 04 	brls	80004444 <_malloc_r+0xb8>
80004440:	37 e3       	mov	r3,126
80004442:	c0 48       	rjmp	8000444a <_malloc_r+0xbe>
80004444:	ee 03 16 12 	lsr	r3,r7,0x12
80004448:	28 43       	sub	r3,-124
8000444a:	e0 6a 01 20 	mov	r10,288
8000444e:	f4 03 00 3a 	add	r10,r10,r3<<0x3
80004452:	74 36       	ld.w	r6,r10[0xc]
80004454:	c1 98       	rjmp	80004486 <_malloc_r+0xfa>
80004456:	6c 19       	ld.w	r9,r6[0x4]
80004458:	e0 19 ff fc 	andl	r9,0xfffc
8000445c:	f2 07 01 0b 	sub	r11,r9,r7
80004460:	58 fb       	cp.w	r11,15
80004462:	e0 8a 00 04 	brle	8000446a <_malloc_r+0xde>
80004466:	20 13       	sub	r3,1
80004468:	c1 18       	rjmp	8000448a <_malloc_r+0xfe>
8000446a:	6c 38       	ld.w	r8,r6[0xc]
8000446c:	58 0b       	cp.w	r11,0
8000446e:	c0 b5       	brlt	80004484 <_malloc_r+0xf8>
80004470:	6c 2a       	ld.w	r10,r6[0x8]
80004472:	ec 09 00 09 	add	r9,r6,r9
80004476:	0a 9c       	mov	r12,r5
80004478:	91 2a       	st.w	r8[0x8],r10
8000447a:	95 38       	st.w	r10[0xc],r8
8000447c:	72 18       	ld.w	r8,r9[0x4]
8000447e:	a1 a8       	sbr	r8,0x0
80004480:	93 18       	st.w	r9[0x4],r8
80004482:	cb c8       	rjmp	800045fa <_malloc_r+0x26e>
80004484:	10 96       	mov	r6,r8
80004486:	14 36       	cp.w	r6,r10
80004488:	ce 71       	brne	80004456 <_malloc_r+0xca>
8000448a:	2f f3       	sub	r3,-1
8000448c:	e0 6a 01 20 	mov	r10,288
80004490:	f4 cc ff f8 	sub	r12,r10,-8
80004494:	78 26       	ld.w	r6,r12[0x8]
80004496:	18 36       	cp.w	r6,r12
80004498:	c6 c0       	breq	80004570 <_malloc_r+0x1e4>
8000449a:	6c 19       	ld.w	r9,r6[0x4]
8000449c:	e0 19 ff fc 	andl	r9,0xfffc
800044a0:	f2 07 01 08 	sub	r8,r9,r7
800044a4:	58 f8       	cp.w	r8,15
800044a6:	e0 89 00 8f 	brgt	800045c4 <_malloc_r+0x238>
800044aa:	99 3c       	st.w	r12[0xc],r12
800044ac:	99 2c       	st.w	r12[0x8],r12
800044ae:	58 08       	cp.w	r8,0
800044b0:	c0 55       	brlt	800044ba <_malloc_r+0x12e>
800044b2:	ec 09 00 09 	add	r9,r6,r9
800044b6:	0a 9c       	mov	r12,r5
800044b8:	ce 2b       	rjmp	8000447c <_malloc_r+0xf0>
800044ba:	e0 49 01 ff 	cp.w	r9,511
800044be:	e0 8b 00 13 	brhi	800044e4 <_malloc_r+0x158>
800044c2:	a3 99       	lsr	r9,0x3
800044c4:	f4 09 00 38 	add	r8,r10,r9<<0x3
800044c8:	70 2b       	ld.w	r11,r8[0x8]
800044ca:	8d 38       	st.w	r6[0xc],r8
800044cc:	8d 2b       	st.w	r6[0x8],r11
800044ce:	97 36       	st.w	r11[0xc],r6
800044d0:	91 26       	st.w	r8[0x8],r6
800044d2:	a3 49       	asr	r9,0x2
800044d4:	74 18       	ld.w	r8,r10[0x4]
800044d6:	30 1b       	mov	r11,1
800044d8:	f6 09 09 49 	lsl	r9,r11,r9
800044dc:	f1 e9 10 09 	or	r9,r8,r9
800044e0:	95 19       	st.w	r10[0x4],r9
800044e2:	c4 78       	rjmp	80004570 <_malloc_r+0x1e4>
800044e4:	f2 0a 16 09 	lsr	r10,r9,0x9
800044e8:	58 4a       	cp.w	r10,4
800044ea:	e0 8b 00 07 	brhi	800044f8 <_malloc_r+0x16c>
800044ee:	f2 0a 16 06 	lsr	r10,r9,0x6
800044f2:	2c 8a       	sub	r10,-56
800044f4:	c2 08       	rjmp	80004534 <_malloc_r+0x1a8>
800044f6:	d7 03       	nop
800044f8:	59 4a       	cp.w	r10,20
800044fa:	e0 8b 00 04 	brhi	80004502 <_malloc_r+0x176>
800044fe:	2a 5a       	sub	r10,-91
80004500:	c1 a8       	rjmp	80004534 <_malloc_r+0x1a8>
80004502:	e0 4a 00 54 	cp.w	r10,84
80004506:	e0 8b 00 06 	brhi	80004512 <_malloc_r+0x186>
8000450a:	f2 0a 16 0c 	lsr	r10,r9,0xc
8000450e:	29 2a       	sub	r10,-110
80004510:	c1 28       	rjmp	80004534 <_malloc_r+0x1a8>
80004512:	e0 4a 01 54 	cp.w	r10,340
80004516:	e0 8b 00 06 	brhi	80004522 <_malloc_r+0x196>
8000451a:	f2 0a 16 0f 	lsr	r10,r9,0xf
8000451e:	28 9a       	sub	r10,-119
80004520:	c0 a8       	rjmp	80004534 <_malloc_r+0x1a8>
80004522:	e0 4a 05 54 	cp.w	r10,1364
80004526:	e0 88 00 04 	brls	8000452e <_malloc_r+0x1a2>
8000452a:	37 ea       	mov	r10,126
8000452c:	c0 48       	rjmp	80004534 <_malloc_r+0x1a8>
8000452e:	f2 0a 16 12 	lsr	r10,r9,0x12
80004532:	28 4a       	sub	r10,-124
80004534:	e0 6b 01 20 	mov	r11,288
80004538:	f6 0a 00 34 	add	r4,r11,r10<<0x3
8000453c:	68 28       	ld.w	r8,r4[0x8]
8000453e:	08 38       	cp.w	r8,r4
80004540:	c0 e1       	brne	8000455c <_malloc_r+0x1d0>
80004542:	76 19       	ld.w	r9,r11[0x4]
80004544:	a3 4a       	asr	r10,0x2
80004546:	30 1e       	mov	lr,1
80004548:	fc 0a 09 4a 	lsl	r10,lr,r10
8000454c:	f3 ea 10 0a 	or	r10,r9,r10
80004550:	10 99       	mov	r9,r8
80004552:	97 1a       	st.w	r11[0x4],r10
80004554:	c0 a8       	rjmp	80004568 <_malloc_r+0x1dc>
80004556:	70 28       	ld.w	r8,r8[0x8]
80004558:	08 38       	cp.w	r8,r4
8000455a:	c0 60       	breq	80004566 <_malloc_r+0x1da>
8000455c:	70 1a       	ld.w	r10,r8[0x4]
8000455e:	e0 1a ff fc 	andl	r10,0xfffc
80004562:	14 39       	cp.w	r9,r10
80004564:	cf 93       	brcs	80004556 <_malloc_r+0x1ca>
80004566:	70 39       	ld.w	r9,r8[0xc]
80004568:	8d 39       	st.w	r6[0xc],r9
8000456a:	8d 28       	st.w	r6[0x8],r8
8000456c:	91 36       	st.w	r8[0xc],r6
8000456e:	93 26       	st.w	r9[0x8],r6
80004570:	e6 08 14 02 	asr	r8,r3,0x2
80004574:	30 1b       	mov	r11,1
80004576:	e0 64 01 20 	mov	r4,288
8000457a:	f6 08 09 4b 	lsl	r11,r11,r8
8000457e:	68 18       	ld.w	r8,r4[0x4]
80004580:	10 3b       	cp.w	r11,r8
80004582:	e0 8b 00 6b 	brhi	80004658 <_malloc_r+0x2cc>
80004586:	f7 e8 00 09 	and	r9,r11,r8
8000458a:	c0 b1       	brne	800045a0 <_malloc_r+0x214>
8000458c:	e0 13 ff fc 	andl	r3,0xfffc
80004590:	a1 7b       	lsl	r11,0x1
80004592:	2f c3       	sub	r3,-4
80004594:	c0 38       	rjmp	8000459a <_malloc_r+0x20e>
80004596:	2f c3       	sub	r3,-4
80004598:	a1 7b       	lsl	r11,0x1
8000459a:	f7 e8 00 09 	and	r9,r11,r8
8000459e:	cf c0       	breq	80004596 <_malloc_r+0x20a>
800045a0:	e8 03 00 3e 	add	lr,r4,r3<<0x3
800045a4:	06 92       	mov	r2,r3
800045a6:	1c 91       	mov	r1,lr
800045a8:	62 36       	ld.w	r6,r1[0xc]
800045aa:	c2 e8       	rjmp	80004606 <_malloc_r+0x27a>
800045ac:	6c 1a       	ld.w	r10,r6[0x4]
800045ae:	e0 1a ff fc 	andl	r10,0xfffc
800045b2:	f4 07 01 08 	sub	r8,r10,r7
800045b6:	58 f8       	cp.w	r8,15
800045b8:	e0 8a 00 15 	brle	800045e2 <_malloc_r+0x256>
800045bc:	6c 3a       	ld.w	r10,r6[0xc]
800045be:	6c 29       	ld.w	r9,r6[0x8]
800045c0:	95 29       	st.w	r10[0x8],r9
800045c2:	93 3a       	st.w	r9[0xc],r10
800045c4:	0e 99       	mov	r9,r7
800045c6:	ec 07 00 07 	add	r7,r6,r7
800045ca:	a1 a9       	sbr	r9,0x0
800045cc:	99 37       	st.w	r12[0xc],r7
800045ce:	99 27       	st.w	r12[0x8],r7
800045d0:	8d 19       	st.w	r6[0x4],r9
800045d2:	ee 08 09 08 	st.w	r7[r8],r8
800045d6:	8f 2c       	st.w	r7[0x8],r12
800045d8:	8f 3c       	st.w	r7[0xc],r12
800045da:	a1 a8       	sbr	r8,0x0
800045dc:	0a 9c       	mov	r12,r5
800045de:	8f 18       	st.w	r7[0x4],r8
800045e0:	c0 d8       	rjmp	800045fa <_malloc_r+0x26e>
800045e2:	6c 39       	ld.w	r9,r6[0xc]
800045e4:	58 08       	cp.w	r8,0
800045e6:	c0 f5       	brlt	80004604 <_malloc_r+0x278>
800045e8:	ec 0a 00 0a 	add	r10,r6,r10
800045ec:	74 18       	ld.w	r8,r10[0x4]
800045ee:	a1 a8       	sbr	r8,0x0
800045f0:	0a 9c       	mov	r12,r5
800045f2:	95 18       	st.w	r10[0x4],r8
800045f4:	6c 28       	ld.w	r8,r6[0x8]
800045f6:	93 28       	st.w	r9[0x8],r8
800045f8:	91 39       	st.w	r8[0xc],r9
800045fa:	fe b0 f5 11 	rcall	8000301c <__malloc_unlock>
800045fe:	ec cc ff f8 	sub	r12,r6,-8
80004602:	d8 32       	popm	r0-r7,pc
80004604:	12 96       	mov	r6,r9
80004606:	02 36       	cp.w	r6,r1
80004608:	cd 21       	brne	800045ac <_malloc_r+0x220>
8000460a:	2f f2       	sub	r2,-1
8000460c:	f1 d2 c0 02 	bfextu	r8,r2,0x0,0x2
80004610:	c0 30       	breq	80004616 <_malloc_r+0x28a>
80004612:	2f 81       	sub	r1,-8
80004614:	cc ab       	rjmp	800045a8 <_malloc_r+0x21c>
80004616:	1c 98       	mov	r8,lr
80004618:	f3 d3 c0 02 	bfextu	r9,r3,0x0,0x2
8000461c:	c0 81       	brne	8000462c <_malloc_r+0x2a0>
8000461e:	68 19       	ld.w	r9,r4[0x4]
80004620:	f6 08 11 ff 	rsub	r8,r11,-1
80004624:	f3 e8 00 08 	and	r8,r9,r8
80004628:	89 18       	st.w	r4[0x4],r8
8000462a:	c0 78       	rjmp	80004638 <_malloc_r+0x2ac>
8000462c:	f0 c9 00 08 	sub	r9,r8,8
80004630:	20 13       	sub	r3,1
80004632:	70 08       	ld.w	r8,r8[0x0]
80004634:	12 38       	cp.w	r8,r9
80004636:	cf 10       	breq	80004618 <_malloc_r+0x28c>
80004638:	a1 7b       	lsl	r11,0x1
8000463a:	68 18       	ld.w	r8,r4[0x4]
8000463c:	10 3b       	cp.w	r11,r8
8000463e:	e0 8b 00 0d 	brhi	80004658 <_malloc_r+0x2cc>
80004642:	58 0b       	cp.w	r11,0
80004644:	c0 a0       	breq	80004658 <_malloc_r+0x2cc>
80004646:	04 93       	mov	r3,r2
80004648:	c0 38       	rjmp	8000464e <_malloc_r+0x2c2>
8000464a:	2f c3       	sub	r3,-4
8000464c:	a1 7b       	lsl	r11,0x1
8000464e:	f7 e8 00 09 	and	r9,r11,r8
80004652:	ca 71       	brne	800045a0 <_malloc_r+0x214>
80004654:	cf bb       	rjmp	8000464a <_malloc_r+0x2be>
80004656:	d7 03       	nop
80004658:	68 23       	ld.w	r3,r4[0x8]
8000465a:	66 12       	ld.w	r2,r3[0x4]
8000465c:	e0 12 ff fc 	andl	r2,0xfffc
80004660:	0e 32       	cp.w	r2,r7
80004662:	5f 39       	srlo	r9
80004664:	e4 07 01 08 	sub	r8,r2,r7
80004668:	58 f8       	cp.w	r8,15
8000466a:	5f aa       	srle	r10
8000466c:	f5 e9 10 09 	or	r9,r10,r9
80004670:	e0 80 00 9a 	breq	800047a4 <_malloc_r+0x418>
80004674:	e0 68 07 a4 	mov	r8,1956
80004678:	70 01       	ld.w	r1,r8[0x0]
8000467a:	e0 68 05 2c 	mov	r8,1324
8000467e:	2f 01       	sub	r1,-16
80004680:	70 08       	ld.w	r8,r8[0x0]
80004682:	0e 01       	add	r1,r7
80004684:	5b f8       	cp.w	r8,-1
80004686:	c0 40       	breq	8000468e <_malloc_r+0x302>
80004688:	28 11       	sub	r1,-127
8000468a:	e0 11 ff 80 	andl	r1,0xff80
8000468e:	02 9b       	mov	r11,r1
80004690:	0a 9c       	mov	r12,r5
80004692:	e0 a0 02 a5 	rcall	80004bdc <_sbrk_r>
80004696:	18 96       	mov	r6,r12
80004698:	5b fc       	cp.w	r12,-1
8000469a:	c7 50       	breq	80004784 <_malloc_r+0x3f8>
8000469c:	e6 02 00 08 	add	r8,r3,r2
800046a0:	10 3c       	cp.w	r12,r8
800046a2:	c0 32       	brcc	800046a8 <_malloc_r+0x31c>
800046a4:	08 33       	cp.w	r3,r4
800046a6:	c6 f1       	brne	80004784 <_malloc_r+0x3f8>
800046a8:	e0 6a 07 a8 	mov	r10,1960
800046ac:	74 09       	ld.w	r9,r10[0x0]
800046ae:	e2 09 00 09 	add	r9,r1,r9
800046b2:	95 09       	st.w	r10[0x0],r9
800046b4:	10 36       	cp.w	r6,r8
800046b6:	c0 a1       	brne	800046ca <_malloc_r+0x33e>
800046b8:	f5 d6 c0 07 	bfextu	r10,r6,0x0,0x7
800046bc:	c0 71       	brne	800046ca <_malloc_r+0x33e>
800046be:	e2 02 00 02 	add	r2,r1,r2
800046c2:	68 28       	ld.w	r8,r4[0x8]
800046c4:	a1 a2       	sbr	r2,0x0
800046c6:	91 12       	st.w	r8[0x4],r2
800046c8:	c4 f8       	rjmp	80004766 <_malloc_r+0x3da>
800046ca:	e0 6a 05 2c 	mov	r10,1324
800046ce:	74 0b       	ld.w	r11,r10[0x0]
800046d0:	5b fb       	cp.w	r11,-1
800046d2:	c0 31       	brne	800046d8 <_malloc_r+0x34c>
800046d4:	95 06       	st.w	r10[0x0],r6
800046d6:	c0 78       	rjmp	800046e4 <_malloc_r+0x358>
800046d8:	ec 09 00 09 	add	r9,r6,r9
800046dc:	e0 6a 07 a8 	mov	r10,1960
800046e0:	10 19       	sub	r9,r8
800046e2:	95 09       	st.w	r10[0x0],r9
800046e4:	f1 d6 c0 03 	bfextu	r8,r6,0x0,0x3
800046e8:	f0 09 11 08 	rsub	r9,r8,8
800046ec:	58 08       	cp.w	r8,0
800046ee:	f2 08 17 10 	movne	r8,r9
800046f2:	ed d8 e1 06 	addne	r6,r6,r8
800046f6:	28 08       	sub	r8,-128
800046f8:	ec 01 00 01 	add	r1,r6,r1
800046fc:	0a 9c       	mov	r12,r5
800046fe:	e3 d1 c0 07 	bfextu	r1,r1,0x0,0x7
80004702:	f0 01 01 01 	sub	r1,r8,r1
80004706:	02 9b       	mov	r11,r1
80004708:	e0 a0 02 6a 	rcall	80004bdc <_sbrk_r>
8000470c:	e0 68 07 a8 	mov	r8,1960
80004710:	5b fc       	cp.w	r12,-1
80004712:	ec 0c 17 00 	moveq	r12,r6
80004716:	f9 b1 00 00 	moveq	r1,0
8000471a:	70 09       	ld.w	r9,r8[0x0]
8000471c:	0c 1c       	sub	r12,r6
8000471e:	89 26       	st.w	r4[0x8],r6
80004720:	02 0c       	add	r12,r1
80004722:	12 01       	add	r1,r9
80004724:	a1 ac       	sbr	r12,0x0
80004726:	91 01       	st.w	r8[0x0],r1
80004728:	8d 1c       	st.w	r6[0x4],r12
8000472a:	08 33       	cp.w	r3,r4
8000472c:	c1 d0       	breq	80004766 <_malloc_r+0x3da>
8000472e:	58 f2       	cp.w	r2,15
80004730:	e0 8b 00 05 	brhi	8000473a <_malloc_r+0x3ae>
80004734:	30 18       	mov	r8,1
80004736:	8d 18       	st.w	r6[0x4],r8
80004738:	c2 68       	rjmp	80004784 <_malloc_r+0x3f8>
8000473a:	30 59       	mov	r9,5
8000473c:	20 c2       	sub	r2,12
8000473e:	e0 12 ff f8 	andl	r2,0xfff8
80004742:	e6 02 00 08 	add	r8,r3,r2
80004746:	91 29       	st.w	r8[0x8],r9
80004748:	91 19       	st.w	r8[0x4],r9
8000474a:	66 18       	ld.w	r8,r3[0x4]
8000474c:	f1 d8 c0 01 	bfextu	r8,r8,0x0,0x1
80004750:	e5 e8 10 08 	or	r8,r2,r8
80004754:	87 18       	st.w	r3[0x4],r8
80004756:	58 f2       	cp.w	r2,15
80004758:	e0 88 00 07 	brls	80004766 <_malloc_r+0x3da>
8000475c:	e6 cb ff f8 	sub	r11,r3,-8
80004760:	0a 9c       	mov	r12,r5
80004762:	e0 a0 1d 2d 	rcall	800081bc <_free_r>
80004766:	e0 69 07 a0 	mov	r9,1952
8000476a:	72 0a       	ld.w	r10,r9[0x0]
8000476c:	e0 68 07 a8 	mov	r8,1960
80004770:	70 08       	ld.w	r8,r8[0x0]
80004772:	14 38       	cp.w	r8,r10
80004774:	f3 f8 ba 00 	st.whi	r9[0x0],r8
80004778:	e0 69 07 9c 	mov	r9,1948
8000477c:	72 0a       	ld.w	r10,r9[0x0]
8000477e:	14 38       	cp.w	r8,r10
80004780:	f3 f8 ba 00 	st.whi	r9[0x0],r8
80004784:	68 28       	ld.w	r8,r4[0x8]
80004786:	70 18       	ld.w	r8,r8[0x4]
80004788:	e0 18 ff fc 	andl	r8,0xfffc
8000478c:	0e 38       	cp.w	r8,r7
8000478e:	5f 39       	srlo	r9
80004790:	0e 18       	sub	r8,r7
80004792:	58 f8       	cp.w	r8,15
80004794:	5f aa       	srle	r10
80004796:	f5 e9 10 09 	or	r9,r10,r9
8000479a:	c0 50       	breq	800047a4 <_malloc_r+0x418>
8000479c:	0a 9c       	mov	r12,r5
8000479e:	fe b0 f4 3f 	rcall	8000301c <__malloc_unlock>
800047a2:	d8 3a       	popm	r0-r7,pc,r12=0
800047a4:	68 26       	ld.w	r6,r4[0x8]
800047a6:	a1 a8       	sbr	r8,0x0
800047a8:	0e 99       	mov	r9,r7
800047aa:	a1 a9       	sbr	r9,0x0
800047ac:	8d 19       	st.w	r6[0x4],r9
800047ae:	ec 07 00 07 	add	r7,r6,r7
800047b2:	0a 9c       	mov	r12,r5
800047b4:	89 27       	st.w	r4[0x8],r7
800047b6:	8f 18       	st.w	r7[0x4],r8
800047b8:	fe b0 f4 32 	rcall	8000301c <__malloc_unlock>
800047bc:	ec cc ff f8 	sub	r12,r6,-8
800047c0:	d8 32       	popm	r0-r7,pc
800047c2:	d7 03       	nop

800047c4 <memcpy>:
800047c4:	58 8a       	cp.w	r10,8
800047c6:	c2 f5       	brlt	80004824 <memcpy+0x60>
800047c8:	f9 eb 10 09 	or	r9,r12,r11
800047cc:	e2 19 00 03 	andl	r9,0x3,COH
800047d0:	e0 81 00 97 	brne	800048fe <memcpy+0x13a>
800047d4:	e0 4a 00 20 	cp.w	r10,32
800047d8:	c3 b4       	brge	8000484e <memcpy+0x8a>
800047da:	f4 08 14 02 	asr	r8,r10,0x2
800047de:	f0 09 11 08 	rsub	r9,r8,8
800047e2:	fe 09 00 2f 	add	pc,pc,r9<<0x2
800047e6:	76 69       	ld.w	r9,r11[0x18]
800047e8:	99 69       	st.w	r12[0x18],r9
800047ea:	76 59       	ld.w	r9,r11[0x14]
800047ec:	99 59       	st.w	r12[0x14],r9
800047ee:	76 49       	ld.w	r9,r11[0x10]
800047f0:	99 49       	st.w	r12[0x10],r9
800047f2:	76 39       	ld.w	r9,r11[0xc]
800047f4:	99 39       	st.w	r12[0xc],r9
800047f6:	76 29       	ld.w	r9,r11[0x8]
800047f8:	99 29       	st.w	r12[0x8],r9
800047fa:	76 19       	ld.w	r9,r11[0x4]
800047fc:	99 19       	st.w	r12[0x4],r9
800047fe:	76 09       	ld.w	r9,r11[0x0]
80004800:	99 09       	st.w	r12[0x0],r9
80004802:	f6 08 00 2b 	add	r11,r11,r8<<0x2
80004806:	f8 08 00 28 	add	r8,r12,r8<<0x2
8000480a:	e0 1a 00 03 	andl	r10,0x3
8000480e:	f4 0a 11 04 	rsub	r10,r10,4
80004812:	fe 0a 00 2f 	add	pc,pc,r10<<0x2
80004816:	17 a9       	ld.ub	r9,r11[0x2]
80004818:	b0 a9       	st.b	r8[0x2],r9
8000481a:	17 99       	ld.ub	r9,r11[0x1]
8000481c:	b0 99       	st.b	r8[0x1],r9
8000481e:	17 89       	ld.ub	r9,r11[0x0]
80004820:	b0 89       	st.b	r8[0x0],r9
80004822:	5e fc       	retal	r12
80004824:	f4 0a 11 09 	rsub	r10,r10,9
80004828:	fe 0a 00 2f 	add	pc,pc,r10<<0x2
8000482c:	17 f9       	ld.ub	r9,r11[0x7]
8000482e:	b8 f9       	st.b	r12[0x7],r9
80004830:	17 e9       	ld.ub	r9,r11[0x6]
80004832:	b8 e9       	st.b	r12[0x6],r9
80004834:	17 d9       	ld.ub	r9,r11[0x5]
80004836:	b8 d9       	st.b	r12[0x5],r9
80004838:	17 c9       	ld.ub	r9,r11[0x4]
8000483a:	b8 c9       	st.b	r12[0x4],r9
8000483c:	17 b9       	ld.ub	r9,r11[0x3]
8000483e:	b8 b9       	st.b	r12[0x3],r9
80004840:	17 a9       	ld.ub	r9,r11[0x2]
80004842:	b8 a9       	st.b	r12[0x2],r9
80004844:	17 99       	ld.ub	r9,r11[0x1]
80004846:	b8 99       	st.b	r12[0x1],r9
80004848:	17 89       	ld.ub	r9,r11[0x0]
8000484a:	b8 89       	st.b	r12[0x0],r9
8000484c:	5e fc       	retal	r12
8000484e:	eb cd 40 c0 	pushm	r6-r7,lr
80004852:	18 99       	mov	r9,r12
80004854:	22 0a       	sub	r10,32
80004856:	b7 07       	ld.d	r6,r11++
80004858:	b3 26       	st.d	r9++,r6
8000485a:	b7 07       	ld.d	r6,r11++
8000485c:	b3 26       	st.d	r9++,r6
8000485e:	b7 07       	ld.d	r6,r11++
80004860:	b3 26       	st.d	r9++,r6
80004862:	b7 07       	ld.d	r6,r11++
80004864:	b3 26       	st.d	r9++,r6
80004866:	22 0a       	sub	r10,32
80004868:	cf 74       	brge	80004856 <memcpy+0x92>
8000486a:	2f 0a       	sub	r10,-16
8000486c:	c0 65       	brlt	80004878 <memcpy+0xb4>
8000486e:	b7 07       	ld.d	r6,r11++
80004870:	b3 26       	st.d	r9++,r6
80004872:	b7 07       	ld.d	r6,r11++
80004874:	b3 26       	st.d	r9++,r6
80004876:	21 0a       	sub	r10,16
80004878:	5c 3a       	neg	r10
8000487a:	fe 0a 00 3f 	add	pc,pc,r10<<0x3
8000487e:	d7 03       	nop
80004880:	d7 03       	nop
80004882:	f7 36 00 0e 	ld.ub	r6,r11[14]
80004886:	f3 66 00 0e 	st.b	r9[14],r6
8000488a:	f7 36 00 0d 	ld.ub	r6,r11[13]
8000488e:	f3 66 00 0d 	st.b	r9[13],r6
80004892:	f7 36 00 0c 	ld.ub	r6,r11[12]
80004896:	f3 66 00 0c 	st.b	r9[12],r6
8000489a:	f7 36 00 0b 	ld.ub	r6,r11[11]
8000489e:	f3 66 00 0b 	st.b	r9[11],r6
800048a2:	f7 36 00 0a 	ld.ub	r6,r11[10]
800048a6:	f3 66 00 0a 	st.b	r9[10],r6
800048aa:	f7 36 00 09 	ld.ub	r6,r11[9]
800048ae:	f3 66 00 09 	st.b	r9[9],r6
800048b2:	f7 36 00 08 	ld.ub	r6,r11[8]
800048b6:	f3 66 00 08 	st.b	r9[8],r6
800048ba:	f7 36 00 07 	ld.ub	r6,r11[7]
800048be:	f3 66 00 07 	st.b	r9[7],r6
800048c2:	f7 36 00 06 	ld.ub	r6,r11[6]
800048c6:	f3 66 00 06 	st.b	r9[6],r6
800048ca:	f7 36 00 05 	ld.ub	r6,r11[5]
800048ce:	f3 66 00 05 	st.b	r9[5],r6
800048d2:	f7 36 00 04 	ld.ub	r6,r11[4]
800048d6:	f3 66 00 04 	st.b	r9[4],r6
800048da:	f7 36 00 03 	ld.ub	r6,r11[3]
800048de:	f3 66 00 03 	st.b	r9[3],r6
800048e2:	f7 36 00 02 	ld.ub	r6,r11[2]
800048e6:	f3 66 00 02 	st.b	r9[2],r6
800048ea:	f7 36 00 01 	ld.ub	r6,r11[1]
800048ee:	f3 66 00 01 	st.b	r9[1],r6
800048f2:	f7 36 00 00 	ld.ub	r6,r11[0]
800048f6:	f3 66 00 00 	st.b	r9[0],r6
800048fa:	e3 cd 80 c0 	ldm	sp++,r6-r7,pc
800048fe:	20 1a       	sub	r10,1
80004900:	f6 0a 07 09 	ld.ub	r9,r11[r10]
80004904:	f8 0a 0b 09 	st.b	r12[r10],r9
80004908:	cf b1       	brne	800048fe <memcpy+0x13a>
8000490a:	5e fc       	retal	r12

8000490c <memset>:
8000490c:	18 98       	mov	r8,r12
8000490e:	c0 38       	rjmp	80004914 <memset+0x8>
80004910:	10 cb       	st.b	r8++,r11
80004912:	20 1a       	sub	r10,1
80004914:	58 0a       	cp.w	r10,0
80004916:	cf d1       	brne	80004910 <memset+0x4>
80004918:	5e fc       	retal	r12
8000491a:	d7 03       	nop

8000491c <_realloc_r>:
8000491c:	d4 31       	pushm	r0-r7,lr
8000491e:	20 1d       	sub	sp,4
80004920:	16 94       	mov	r4,r11
80004922:	18 92       	mov	r2,r12
80004924:	14 9b       	mov	r11,r10
80004926:	58 04       	cp.w	r4,0
80004928:	c0 51       	brne	80004932 <_realloc_r+0x16>
8000492a:	fe b0 fd 31 	rcall	8000438c <_malloc_r>
8000492e:	18 95       	mov	r5,r12
80004930:	c5 39       	rjmp	80004bd6 <_realloc_r+0x2ba>
80004932:	50 0a       	stdsp	sp[0x0],r10
80004934:	fe b0 f3 70 	rcall	80003014 <__malloc_lock>
80004938:	40 0b       	lddsp	r11,sp[0x0]
8000493a:	f6 c8 ff f5 	sub	r8,r11,-11
8000493e:	e8 c1 00 08 	sub	r1,r4,8
80004942:	10 96       	mov	r6,r8
80004944:	62 1c       	ld.w	r12,r1[0x4]
80004946:	e0 16 ff f8 	andl	r6,0xfff8
8000494a:	59 68       	cp.w	r8,22
8000494c:	f9 b6 08 10 	movls	r6,16
80004950:	16 36       	cp.w	r6,r11
80004952:	5f 38       	srlo	r8
80004954:	f1 e6 13 f8 	or	r8,r8,r6>>0x1f
80004958:	c0 50       	breq	80004962 <_realloc_r+0x46>
8000495a:	30 c8       	mov	r8,12
8000495c:	30 05       	mov	r5,0
8000495e:	85 38       	st.w	r2[0xc],r8
80004960:	c3 b9       	rjmp	80004bd6 <_realloc_r+0x2ba>
80004962:	18 90       	mov	r0,r12
80004964:	e0 10 ff fc 	andl	r0,0xfffc
80004968:	0c 30       	cp.w	r0,r6
8000496a:	e0 84 01 0b 	brge	80004b80 <_realloc_r+0x264>
8000496e:	e0 68 01 20 	mov	r8,288
80004972:	e2 00 00 09 	add	r9,r1,r0
80004976:	70 25       	ld.w	r5,r8[0x8]
80004978:	0a 39       	cp.w	r9,r5
8000497a:	c0 90       	breq	8000498c <_realloc_r+0x70>
8000497c:	72 1a       	ld.w	r10,r9[0x4]
8000497e:	a1 ca       	cbr	r10,0x0
80004980:	f2 0a 00 0a 	add	r10,r9,r10
80004984:	74 1a       	ld.w	r10,r10[0x4]
80004986:	ed ba 00 00 	bld	r10,0x0
8000498a:	c2 20       	breq	800049ce <_realloc_r+0xb2>
8000498c:	72 1a       	ld.w	r10,r9[0x4]
8000498e:	e0 1a ff fc 	andl	r10,0xfffc
80004992:	f4 00 00 03 	add	r3,r10,r0
80004996:	0a 39       	cp.w	r9,r5
80004998:	c1 31       	brne	800049be <_realloc_r+0xa2>
8000499a:	ec c7 ff f0 	sub	r7,r6,-16
8000499e:	0e 33       	cp.w	r3,r7
800049a0:	c1 95       	brlt	800049d2 <_realloc_r+0xb6>
800049a2:	e2 06 00 09 	add	r9,r1,r6
800049a6:	0c 13       	sub	r3,r6
800049a8:	a1 a3       	sbr	r3,0x0
800049aa:	93 13       	st.w	r9[0x4],r3
800049ac:	91 29       	st.w	r8[0x8],r9
800049ae:	04 9c       	mov	r12,r2
800049b0:	62 18       	ld.w	r8,r1[0x4]
800049b2:	08 95       	mov	r5,r4
800049b4:	f1 d8 c0 01 	bfextu	r8,r8,0x0,0x1
800049b8:	10 46       	or	r6,r8
800049ba:	83 16       	st.w	r1[0x4],r6
800049bc:	c0 b9       	rjmp	80004bd2 <_realloc_r+0x2b6>
800049be:	0c 33       	cp.w	r3,r6
800049c0:	c0 95       	brlt	800049d2 <_realloc_r+0xb6>
800049c2:	72 28       	ld.w	r8,r9[0x8]
800049c4:	02 97       	mov	r7,r1
800049c6:	72 39       	ld.w	r9,r9[0xc]
800049c8:	93 28       	st.w	r9[0x8],r8
800049ca:	91 39       	st.w	r8[0xc],r9
800049cc:	cd c8       	rjmp	80004b84 <_realloc_r+0x268>
800049ce:	30 0a       	mov	r10,0
800049d0:	14 99       	mov	r9,r10
800049d2:	ed bc 00 00 	bld	r12,0x0
800049d6:	e0 80 00 95 	breq	80004b00 <_realloc_r+0x1e4>
800049da:	62 07       	ld.w	r7,r1[0x0]
800049dc:	e2 07 01 07 	sub	r7,r1,r7
800049e0:	6e 1c       	ld.w	r12,r7[0x4]
800049e2:	e0 1c ff fc 	andl	r12,0xfffc
800049e6:	58 09       	cp.w	r9,0
800049e8:	c5 60       	breq	80004a94 <_realloc_r+0x178>
800049ea:	f8 00 00 03 	add	r3,r12,r0
800049ee:	0a 39       	cp.w	r9,r5
800049f0:	c4 81       	brne	80004a80 <_realloc_r+0x164>
800049f2:	14 03       	add	r3,r10
800049f4:	ec c9 ff f0 	sub	r9,r6,-16
800049f8:	12 33       	cp.w	r3,r9
800049fa:	c4 d5       	brlt	80004a94 <_realloc_r+0x178>
800049fc:	6e 3a       	ld.w	r10,r7[0xc]
800049fe:	6e 29       	ld.w	r9,r7[0x8]
80004a00:	95 29       	st.w	r10[0x8],r9
80004a02:	93 3a       	st.w	r9[0xc],r10
80004a04:	ee c5 ff f8 	sub	r5,r7,-8
80004a08:	e0 ca 00 04 	sub	r10,r0,4
80004a0c:	e0 4a 00 24 	cp.w	r10,36
80004a10:	e0 8b 00 25 	brhi	80004a5a <_realloc_r+0x13e>
80004a14:	0a 99       	mov	r9,r5
80004a16:	59 3a       	cp.w	r10,19
80004a18:	e0 88 00 1a 	brls	80004a4c <_realloc_r+0x130>
80004a1c:	09 09       	ld.w	r9,r4++
80004a1e:	8b 09       	st.w	r5[0x0],r9
80004a20:	09 09       	ld.w	r9,r4++
80004a22:	8f 39       	st.w	r7[0xc],r9
80004a24:	ee c9 ff f0 	sub	r9,r7,-16
80004a28:	59 ba       	cp.w	r10,27
80004a2a:	e0 88 00 11 	brls	80004a4c <_realloc_r+0x130>
80004a2e:	09 0b       	ld.w	r11,r4++
80004a30:	93 0b       	st.w	r9[0x0],r11
80004a32:	09 09       	ld.w	r9,r4++
80004a34:	8f 59       	st.w	r7[0x14],r9
80004a36:	ee c9 ff e8 	sub	r9,r7,-24
80004a3a:	e0 4a 00 24 	cp.w	r10,36
80004a3e:	c0 71       	brne	80004a4c <_realloc_r+0x130>
80004a40:	09 0a       	ld.w	r10,r4++
80004a42:	93 0a       	st.w	r9[0x0],r10
80004a44:	ee c9 ff e0 	sub	r9,r7,-32
80004a48:	09 0a       	ld.w	r10,r4++
80004a4a:	8f 7a       	st.w	r7[0x1c],r10
80004a4c:	09 0a       	ld.w	r10,r4++
80004a4e:	12 aa       	st.w	r9++,r10
80004a50:	68 0a       	ld.w	r10,r4[0x0]
80004a52:	93 0a       	st.w	r9[0x0],r10
80004a54:	68 1a       	ld.w	r10,r4[0x4]
80004a56:	93 1a       	st.w	r9[0x4],r10
80004a58:	c0 78       	rjmp	80004a66 <_realloc_r+0x14a>
80004a5a:	50 08       	stdsp	sp[0x0],r8
80004a5c:	08 9b       	mov	r11,r4
80004a5e:	0a 9c       	mov	r12,r5
80004a60:	e0 a0 1e 51 	rcall	80008702 <memmove>
80004a64:	40 08       	lddsp	r8,sp[0x0]
80004a66:	ee 06 00 09 	add	r9,r7,r6
80004a6a:	0c 13       	sub	r3,r6
80004a6c:	a1 a3       	sbr	r3,0x0
80004a6e:	93 13       	st.w	r9[0x4],r3
80004a70:	91 29       	st.w	r8[0x8],r9
80004a72:	04 9c       	mov	r12,r2
80004a74:	6e 18       	ld.w	r8,r7[0x4]
80004a76:	f1 d8 c0 01 	bfextu	r8,r8,0x0,0x1
80004a7a:	10 46       	or	r6,r8
80004a7c:	8f 16       	st.w	r7[0x4],r6
80004a7e:	ca a8       	rjmp	80004bd2 <_realloc_r+0x2b6>
80004a80:	14 03       	add	r3,r10
80004a82:	0c 33       	cp.w	r3,r6
80004a84:	c0 85       	brlt	80004a94 <_realloc_r+0x178>
80004a86:	72 28       	ld.w	r8,r9[0x8]
80004a88:	72 39       	ld.w	r9,r9[0xc]
80004a8a:	93 28       	st.w	r9[0x8],r8
80004a8c:	91 39       	st.w	r8[0xc],r9
80004a8e:	6e 28       	ld.w	r8,r7[0x8]
80004a90:	6e 39       	ld.w	r9,r7[0xc]
80004a92:	c0 78       	rjmp	80004aa0 <_realloc_r+0x184>
80004a94:	f8 00 00 03 	add	r3,r12,r0
80004a98:	0c 33       	cp.w	r3,r6
80004a9a:	c3 35       	brlt	80004b00 <_realloc_r+0x1e4>
80004a9c:	6e 39       	ld.w	r9,r7[0xc]
80004a9e:	6e 28       	ld.w	r8,r7[0x8]
80004aa0:	93 28       	st.w	r9[0x8],r8
80004aa2:	91 39       	st.w	r8[0xc],r9
80004aa4:	e0 ca 00 04 	sub	r10,r0,4
80004aa8:	ee cc ff f8 	sub	r12,r7,-8
80004aac:	e0 4a 00 24 	cp.w	r10,36
80004ab0:	e0 8b 00 24 	brhi	80004af8 <_realloc_r+0x1dc>
80004ab4:	59 3a       	cp.w	r10,19
80004ab6:	e0 88 00 1a 	brls	80004aea <_realloc_r+0x1ce>
80004aba:	09 08       	ld.w	r8,r4++
80004abc:	99 08       	st.w	r12[0x0],r8
80004abe:	09 08       	ld.w	r8,r4++
80004ac0:	8f 38       	st.w	r7[0xc],r8
80004ac2:	ee cc ff f0 	sub	r12,r7,-16
80004ac6:	59 ba       	cp.w	r10,27
80004ac8:	e0 88 00 11 	brls	80004aea <_realloc_r+0x1ce>
80004acc:	09 08       	ld.w	r8,r4++
80004ace:	99 08       	st.w	r12[0x0],r8
80004ad0:	09 08       	ld.w	r8,r4++
80004ad2:	8f 58       	st.w	r7[0x14],r8
80004ad4:	ee cc ff e8 	sub	r12,r7,-24
80004ad8:	e0 4a 00 24 	cp.w	r10,36
80004adc:	c0 71       	brne	80004aea <_realloc_r+0x1ce>
80004ade:	09 08       	ld.w	r8,r4++
80004ae0:	99 08       	st.w	r12[0x0],r8
80004ae2:	ee cc ff e0 	sub	r12,r7,-32
80004ae6:	09 08       	ld.w	r8,r4++
80004ae8:	8f 78       	st.w	r7[0x1c],r8
80004aea:	09 08       	ld.w	r8,r4++
80004aec:	18 a8       	st.w	r12++,r8
80004aee:	68 08       	ld.w	r8,r4[0x0]
80004af0:	99 08       	st.w	r12[0x0],r8
80004af2:	68 18       	ld.w	r8,r4[0x4]
80004af4:	99 18       	st.w	r12[0x4],r8
80004af6:	c4 78       	rjmp	80004b84 <_realloc_r+0x268>
80004af8:	08 9b       	mov	r11,r4
80004afa:	e0 a0 1e 04 	rcall	80008702 <memmove>
80004afe:	c4 38       	rjmp	80004b84 <_realloc_r+0x268>
80004b00:	04 9c       	mov	r12,r2
80004b02:	fe b0 fc 45 	rcall	8000438c <_malloc_r>
80004b06:	18 95       	mov	r5,r12
80004b08:	c3 a0       	breq	80004b7c <_realloc_r+0x260>
80004b0a:	62 18       	ld.w	r8,r1[0x4]
80004b0c:	f8 c9 00 08 	sub	r9,r12,8
80004b10:	a1 c8       	cbr	r8,0x0
80004b12:	e2 08 00 08 	add	r8,r1,r8
80004b16:	10 39       	cp.w	r9,r8
80004b18:	c0 71       	brne	80004b26 <_realloc_r+0x20a>
80004b1a:	72 13       	ld.w	r3,r9[0x4]
80004b1c:	02 97       	mov	r7,r1
80004b1e:	e0 13 ff fc 	andl	r3,0xfffc
80004b22:	00 03       	add	r3,r0
80004b24:	c3 08       	rjmp	80004b84 <_realloc_r+0x268>
80004b26:	e0 ca 00 04 	sub	r10,r0,4
80004b2a:	e0 4a 00 24 	cp.w	r10,36
80004b2e:	e0 8b 00 20 	brhi	80004b6e <_realloc_r+0x252>
80004b32:	08 99       	mov	r9,r4
80004b34:	18 98       	mov	r8,r12
80004b36:	59 3a       	cp.w	r10,19
80004b38:	e0 88 00 14 	brls	80004b60 <_realloc_r+0x244>
80004b3c:	13 0b       	ld.w	r11,r9++
80004b3e:	10 ab       	st.w	r8++,r11
80004b40:	13 0b       	ld.w	r11,r9++
80004b42:	10 ab       	st.w	r8++,r11
80004b44:	59 ba       	cp.w	r10,27
80004b46:	e0 88 00 0d 	brls	80004b60 <_realloc_r+0x244>
80004b4a:	13 0b       	ld.w	r11,r9++
80004b4c:	10 ab       	st.w	r8++,r11
80004b4e:	13 0b       	ld.w	r11,r9++
80004b50:	10 ab       	st.w	r8++,r11
80004b52:	e0 4a 00 24 	cp.w	r10,36
80004b56:	c0 51       	brne	80004b60 <_realloc_r+0x244>
80004b58:	13 0a       	ld.w	r10,r9++
80004b5a:	10 aa       	st.w	r8++,r10
80004b5c:	13 0a       	ld.w	r10,r9++
80004b5e:	10 aa       	st.w	r8++,r10
80004b60:	13 0a       	ld.w	r10,r9++
80004b62:	10 aa       	st.w	r8++,r10
80004b64:	72 0a       	ld.w	r10,r9[0x0]
80004b66:	91 0a       	st.w	r8[0x0],r10
80004b68:	72 19       	ld.w	r9,r9[0x4]
80004b6a:	91 19       	st.w	r8[0x4],r9
80004b6c:	c0 48       	rjmp	80004b74 <_realloc_r+0x258>
80004b6e:	08 9b       	mov	r11,r4
80004b70:	e0 a0 1d c9 	rcall	80008702 <memmove>
80004b74:	08 9b       	mov	r11,r4
80004b76:	04 9c       	mov	r12,r2
80004b78:	e0 a0 1b 22 	rcall	800081bc <_free_r>
80004b7c:	04 9c       	mov	r12,r2
80004b7e:	c2 a8       	rjmp	80004bd2 <_realloc_r+0x2b6>
80004b80:	00 93       	mov	r3,r0
80004b82:	02 97       	mov	r7,r1
80004b84:	e6 06 01 09 	sub	r9,r3,r6
80004b88:	6e 18       	ld.w	r8,r7[0x4]
80004b8a:	58 f9       	cp.w	r9,15
80004b8c:	e0 88 00 16 	brls	80004bb8 <_realloc_r+0x29c>
80004b90:	f1 d8 c0 01 	bfextu	r8,r8,0x0,0x1
80004b94:	ed e8 10 08 	or	r8,r6,r8
80004b98:	8f 18       	st.w	r7[0x4],r8
80004b9a:	12 98       	mov	r8,r9
80004b9c:	a1 a8       	sbr	r8,0x0
80004b9e:	ee 06 00 0b 	add	r11,r7,r6
80004ba2:	f6 09 00 09 	add	r9,r11,r9
80004ba6:	97 18       	st.w	r11[0x4],r8
80004ba8:	72 18       	ld.w	r8,r9[0x4]
80004baa:	a1 a8       	sbr	r8,0x0
80004bac:	2f 8b       	sub	r11,-8
80004bae:	93 18       	st.w	r9[0x4],r8
80004bb0:	04 9c       	mov	r12,r2
80004bb2:	e0 a0 1b 05 	rcall	800081bc <_free_r>
80004bb6:	c0 b8       	rjmp	80004bcc <_realloc_r+0x2b0>
80004bb8:	f1 d8 c0 01 	bfextu	r8,r8,0x0,0x1
80004bbc:	e7 e8 10 08 	or	r8,r3,r8
80004bc0:	8f 18       	st.w	r7[0x4],r8
80004bc2:	ee 03 00 03 	add	r3,r7,r3
80004bc6:	66 18       	ld.w	r8,r3[0x4]
80004bc8:	a1 a8       	sbr	r8,0x0
80004bca:	87 18       	st.w	r3[0x4],r8
80004bcc:	04 9c       	mov	r12,r2
80004bce:	ee c5 ff f8 	sub	r5,r7,-8
80004bd2:	fe b0 f2 25 	rcall	8000301c <__malloc_unlock>
80004bd6:	0a 9c       	mov	r12,r5
80004bd8:	2f fd       	sub	sp,-4
80004bda:	d8 32       	popm	r0-r7,pc

80004bdc <_sbrk_r>:
80004bdc:	d4 21       	pushm	r4-r7,lr
80004bde:	30 08       	mov	r8,0
80004be0:	18 97       	mov	r7,r12
80004be2:	e0 66 07 d8 	mov	r6,2008
80004be6:	16 9c       	mov	r12,r11
80004be8:	8d 08       	st.w	r6[0x0],r8
80004bea:	c8 fc       	rcall	80004d08 <_sbrk>
80004bec:	5b fc       	cp.w	r12,-1
80004bee:	c0 51       	brne	80004bf8 <_sbrk_r+0x1c>
80004bf0:	6c 08       	ld.w	r8,r6[0x0]
80004bf2:	58 08       	cp.w	r8,0
80004bf4:	ef f8 1a 03 	st.wne	r7[0xc],r8
80004bf8:	d8 22       	popm	r4-r7,pc
80004bfa:	d7 03       	nop

80004bfc <sprintf>:
80004bfc:	d4 01       	pushm	lr
80004bfe:	21 7d       	sub	sp,92
80004c00:	e0 68 ff ff 	mov	r8,65535
80004c04:	ea 18 7f ff 	orh	r8,0x7fff
80004c08:	50 58       	stdsp	sp[0x14],r8
80004c0a:	50 28       	stdsp	sp[0x8],r8
80004c0c:	e0 68 02 08 	mov	r8,520
80004c10:	ba 68       	st.h	sp[0xc],r8
80004c12:	3f f8       	mov	r8,-1
80004c14:	ba 78       	st.h	sp[0xe],r8
80004c16:	e0 68 01 1c 	mov	r8,284
80004c1a:	50 4c       	stdsp	sp[0x10],r12
80004c1c:	16 9a       	mov	r10,r11
80004c1e:	50 0c       	stdsp	sp[0x0],r12
80004c20:	fa c9 ff a0 	sub	r9,sp,-96
80004c24:	70 0c       	ld.w	r12,r8[0x0]
80004c26:	1a 9b       	mov	r11,sp
80004c28:	e0 a0 02 24 	rcall	80005070 <_vfprintf_r>
80004c2c:	30 09       	mov	r9,0
80004c2e:	40 08       	lddsp	r8,sp[0x0]
80004c30:	b0 89       	st.b	r8[0x0],r9
80004c32:	2e 9d       	sub	sp,-92
80004c34:	d8 02       	popm	pc
80004c36:	d7 03       	nop

80004c38 <strncpy>:
80004c38:	30 08       	mov	r8,0
80004c3a:	10 3a       	cp.w	r10,r8
80004c3c:	5e 0c       	reteq	r12
80004c3e:	f6 08 07 09 	ld.ub	r9,r11[r8]
80004c42:	f8 08 0b 09 	st.b	r12[r8],r9
80004c46:	2f f8       	sub	r8,-1
80004c48:	58 09       	cp.w	r9,0
80004c4a:	cf 81       	brne	80004c3a <strncpy+0x2>
80004c4c:	10 3a       	cp.w	r10,r8
80004c4e:	5e 0c       	reteq	r12
80004c50:	f8 08 0b 09 	st.b	r12[r8],r9
80004c54:	2f f8       	sub	r8,-1
80004c56:	cf bb       	rjmp	80004c4c <strncpy+0x14>

80004c58 <_init_argv>:
80004c58:	30 e8       	mov	r8,14
80004c5a:	d6 73       	breakpoint
80004c5c:	3f fc       	mov	r12,-1
80004c5e:	35 8b       	mov	r11,88
80004c60:	5e fc       	retal	r12

80004c62 <_exit>:
80004c62:	30 d8       	mov	r8,13
80004c64:	d6 73       	breakpoint
80004c66:	3f fc       	mov	r12,-1
80004c68:	35 8b       	mov	r11,88
80004c6a:	c0 08       	rjmp	80004c6a <_exit+0x8>

80004c6c <_close>:
80004c6c:	30 28       	mov	r8,2
80004c6e:	d6 73       	breakpoint
80004c70:	3f fc       	mov	r12,-1
80004c72:	35 8b       	mov	r11,88
80004c74:	58 0c       	cp.w	r12,0
80004c76:	5e 4c       	retge	r12
80004c78:	e0 6a 07 d8 	mov	r10,2008
80004c7c:	95 0b       	st.w	r10[0x0],r11
80004c7e:	5e fc       	retal	r12

80004c80 <_lseek>:
80004c80:	30 58       	mov	r8,5
80004c82:	d6 73       	breakpoint
80004c84:	3f fc       	mov	r12,-1
80004c86:	35 8b       	mov	r11,88
80004c88:	58 0c       	cp.w	r12,0
80004c8a:	5e 4c       	retge	r12
80004c8c:	e0 6a 07 d8 	mov	r10,2008
80004c90:	95 0b       	st.w	r10[0x0],r11
80004c92:	5e fc       	retal	r12

80004c94 <isatty>:
80004c94:	30 b8       	mov	r8,11
80004c96:	d6 73       	breakpoint
80004c98:	3f fc       	mov	r12,-1
80004c9a:	35 8b       	mov	r11,88
80004c9c:	58 0c       	cp.w	r12,0
80004c9e:	5e 4c       	retge	r12
80004ca0:	e0 6a 07 d8 	mov	r10,2008
80004ca4:	95 0b       	st.w	r10[0x0],r11
80004ca6:	5e fc       	retal	r12

80004ca8 <_fstat_host>:
80004ca8:	30 98       	mov	r8,9
80004caa:	d6 73       	breakpoint
80004cac:	3f fc       	mov	r12,-1
80004cae:	35 8b       	mov	r11,88
80004cb0:	58 0c       	cp.w	r12,0
80004cb2:	5e 4c       	retge	r12
80004cb4:	e0 6a 07 d8 	mov	r10,2008
80004cb8:	95 0b       	st.w	r10[0x0],r11
80004cba:	5e fc       	retal	r12

80004cbc <_fstat>:
80004cbc:	d4 21       	pushm	r4-r7,lr
80004cbe:	21 0d       	sub	sp,64
80004cc0:	16 97       	mov	r7,r11
80004cc2:	1a 9b       	mov	r11,sp
80004cc4:	cf 2f       	rcall	80004ca8 <_fstat_host>
80004cc6:	c0 34       	brge	80004ccc <_fstat+0x10>
80004cc8:	3f fc       	mov	r12,-1
80004cca:	c1 c8       	rjmp	80004d02 <_fstat+0x46>
80004ccc:	40 08       	lddsp	r8,sp[0x0]
80004cce:	ae 08       	st.h	r7[0x0],r8
80004cd0:	40 18       	lddsp	r8,sp[0x4]
80004cd2:	ae 18       	st.h	r7[0x2],r8
80004cd4:	40 28       	lddsp	r8,sp[0x8]
80004cd6:	8f 18       	st.w	r7[0x4],r8
80004cd8:	40 38       	lddsp	r8,sp[0xc]
80004cda:	ae 48       	st.h	r7[0x8],r8
80004cdc:	40 48       	lddsp	r8,sp[0x10]
80004cde:	ae 58       	st.h	r7[0xa],r8
80004ce0:	40 58       	lddsp	r8,sp[0x14]
80004ce2:	ae 68       	st.h	r7[0xc],r8
80004ce4:	40 68       	lddsp	r8,sp[0x18]
80004ce6:	ae 78       	st.h	r7[0xe],r8
80004ce8:	40 88       	lddsp	r8,sp[0x20]
80004cea:	8f 48       	st.w	r7[0x10],r8
80004cec:	40 a8       	lddsp	r8,sp[0x28]
80004cee:	8f b8       	st.w	r7[0x2c],r8
80004cf0:	40 c8       	lddsp	r8,sp[0x30]
80004cf2:	8f c8       	st.w	r7[0x30],r8
80004cf4:	40 d8       	lddsp	r8,sp[0x34]
80004cf6:	8f 58       	st.w	r7[0x14],r8
80004cf8:	40 e8       	lddsp	r8,sp[0x38]
80004cfa:	30 0c       	mov	r12,0
80004cfc:	8f 78       	st.w	r7[0x1c],r8
80004cfe:	40 f8       	lddsp	r8,sp[0x3c]
80004d00:	8f 98       	st.w	r7[0x24],r8
80004d02:	2f 0d       	sub	sp,-64
80004d04:	d8 22       	popm	r4-r7,pc
80004d06:	d7 03       	nop

80004d08 <_sbrk>:
80004d08:	d4 01       	pushm	lr
80004d0a:	e0 68 07 d0 	mov	r8,2000
80004d0e:	70 09       	ld.w	r9,r8[0x0]
80004d10:	58 09       	cp.w	r9,0
80004d12:	c0 41       	brne	80004d1a <_sbrk+0x12>
80004d14:	e0 69 07 e0 	mov	r9,2016
80004d18:	91 09       	st.w	r8[0x0],r9
80004d1a:	e0 69 07 d0 	mov	r9,2000
80004d1e:	e0 6a f0 00 	mov	r10,61440
80004d22:	72 08       	ld.w	r8,r9[0x0]
80004d24:	f0 0c 00 0c 	add	r12,r8,r12
80004d28:	14 3c       	cp.w	r12,r10
80004d2a:	e0 8b 00 04 	brhi	80004d32 <_sbrk+0x2a>
80004d2e:	93 0c       	st.w	r9[0x0],r12
80004d30:	c0 68       	rjmp	80004d3c <_sbrk+0x34>
80004d32:	e0 a0 18 cd 	rcall	80007ecc <__errno>
80004d36:	30 c8       	mov	r8,12
80004d38:	99 08       	st.w	r12[0x0],r8
80004d3a:	3f f8       	mov	r8,-1
80004d3c:	10 9c       	mov	r12,r8
80004d3e:	d8 02       	popm	pc

80004d40 <get_arg>:
80004d40:	d4 31       	pushm	r0-r7,lr
80004d42:	20 8d       	sub	sp,32
80004d44:	fa c4 ff bc 	sub	r4,sp,-68
80004d48:	50 4b       	stdsp	sp[0x10],r11
80004d4a:	68 2e       	ld.w	lr,r4[0x8]
80004d4c:	50 58       	stdsp	sp[0x14],r8
80004d4e:	12 96       	mov	r6,r9
80004d50:	7c 0b       	ld.w	r11,lr[0x0]
80004d52:	70 05       	ld.w	r5,r8[0x0]
80004d54:	50 6e       	stdsp	sp[0x18],lr
80004d56:	58 0b       	cp.w	r11,0
80004d58:	f4 0b 17 00 	moveq	r11,r10
80004d5c:	68 03       	ld.w	r3,r4[0x0]
80004d5e:	68 11       	ld.w	r1,r4[0x4]
80004d60:	40 49       	lddsp	r9,sp[0x10]
80004d62:	30 08       	mov	r8,0
80004d64:	c2 89       	rjmp	80004fb4 <get_arg+0x274>
80004d66:	2f fb       	sub	r11,-1
80004d68:	32 5c       	mov	r12,37
80004d6a:	17 8a       	ld.ub	r10,r11[0x0]
80004d6c:	f8 0a 18 00 	cp.b	r10,r12
80004d70:	5f 1e       	srne	lr
80004d72:	f0 0a 18 00 	cp.b	r10,r8
80004d76:	5f 1c       	srne	r12
80004d78:	fd ec 00 0c 	and	r12,lr,r12
80004d7c:	f0 0c 18 00 	cp.b	r12,r8
80004d80:	cf 31       	brne	80004d66 <get_arg+0x26>
80004d82:	58 0a       	cp.w	r10,0
80004d84:	e0 80 01 25 	breq	80004fce <get_arg+0x28e>
80004d88:	30 0c       	mov	r12,0
80004d8a:	3f fa       	mov	r10,-1
80004d8c:	18 90       	mov	r0,r12
80004d8e:	50 3a       	stdsp	sp[0xc],r10
80004d90:	18 94       	mov	r4,r12
80004d92:	18 92       	mov	r2,r12
80004d94:	f8 0c 00 3c 	add	r12,r12,r12<<0x3
80004d98:	16 97       	mov	r7,r11
80004d9a:	50 7c       	stdsp	sp[0x1c],r12
80004d9c:	fe cc af dc 	sub	r12,pc,-20516
80004da0:	0f 3a       	ld.ub	r10,r7++
80004da2:	f8 0a 07 0e 	ld.ub	lr,r12[r10]
80004da6:	40 7c       	lddsp	r12,sp[0x1c]
80004da8:	1c 0c       	add	r12,lr
80004daa:	fe ce b0 ae 	sub	lr,pc,-20306
80004dae:	fc 0c 07 0e 	ld.ub	lr,lr[r12]
80004db2:	20 1e       	sub	lr,1
80004db4:	50 0e       	stdsp	sp[0x0],lr
80004db6:	fe ce b1 26 	sub	lr,pc,-20186
80004dba:	fc 0c 07 0c 	ld.ub	r12,lr[r12]
80004dbe:	50 7c       	stdsp	sp[0x1c],r12
80004dc0:	40 0c       	lddsp	r12,sp[0x0]
80004dc2:	58 7c       	cp.w	r12,7
80004dc4:	e0 8b 00 f1 	brhi	80004fa6 <get_arg+0x266>
80004dc8:	fe ce b2 d8 	sub	lr,pc,-19752
80004dcc:	fc 0c 03 2f 	ld.w	pc,lr[r12<<0x2]
80004dd0:	36 8b       	mov	r11,104
80004dd2:	f6 0a 18 00 	cp.b	r10,r11
80004dd6:	e0 80 00 e8 	breq	80004fa6 <get_arg+0x266>
80004dda:	37 1b       	mov	r11,113
80004ddc:	f6 0a 18 00 	cp.b	r10,r11
80004de0:	c0 70       	breq	80004dee <get_arg+0xae>
80004de2:	34 cb       	mov	r11,76
80004de4:	f6 0a 18 00 	cp.b	r10,r11
80004de8:	c0 51       	brne	80004df2 <get_arg+0xb2>
80004dea:	a3 b4       	sbr	r4,0x3
80004dec:	cd d8       	rjmp	80004fa6 <get_arg+0x266>
80004dee:	a5 b4       	sbr	r4,0x5
80004df0:	cd b8       	rjmp	80004fa6 <get_arg+0x266>
80004df2:	08 9a       	mov	r10,r4
80004df4:	0e 9b       	mov	r11,r7
80004df6:	a5 aa       	sbr	r10,0x4
80004df8:	17 3c       	ld.ub	r12,r11++
80004dfa:	a5 b4       	sbr	r4,0x5
80004dfc:	36 ce       	mov	lr,108
80004dfe:	fc 0c 18 00 	cp.b	r12,lr
80004e02:	e0 80 00 d3 	breq	80004fa8 <get_arg+0x268>
80004e06:	14 94       	mov	r4,r10
80004e08:	cc f8       	rjmp	80004fa6 <get_arg+0x266>
80004e0a:	eb d5 c0 05 	bfextu	r5,r5,0x0,0x5
80004e0e:	36 7c       	mov	r12,103
80004e10:	f8 0a 18 00 	cp.b	r10,r12
80004e14:	e0 8b 00 27 	brhi	80004e62 <get_arg+0x122>
80004e18:	36 5b       	mov	r11,101
80004e1a:	f6 0a 18 00 	cp.b	r10,r11
80004e1e:	c4 82       	brcc	80004eae <get_arg+0x16e>
80004e20:	34 fb       	mov	r11,79
80004e22:	f6 0a 18 00 	cp.b	r10,r11
80004e26:	c4 80       	breq	80004eb6 <get_arg+0x176>
80004e28:	e0 8b 00 0c 	brhi	80004e40 <get_arg+0x100>
80004e2c:	34 5b       	mov	r11,69
80004e2e:	f6 0a 18 00 	cp.b	r10,r11
80004e32:	c3 e0       	breq	80004eae <get_arg+0x16e>
80004e34:	34 7b       	mov	r11,71
80004e36:	f6 0a 18 00 	cp.b	r10,r11
80004e3a:	c3 a0       	breq	80004eae <get_arg+0x16e>
80004e3c:	34 4b       	mov	r11,68
80004e3e:	c0 88       	rjmp	80004e4e <get_arg+0x10e>
80004e40:	35 8b       	mov	r11,88
80004e42:	f6 0a 18 00 	cp.b	r10,r11
80004e46:	c2 c0       	breq	80004e9e <get_arg+0x15e>
80004e48:	e0 8b 00 07 	brhi	80004e56 <get_arg+0x116>
80004e4c:	35 5b       	mov	r11,85
80004e4e:	f6 0a 18 00 	cp.b	r10,r11
80004e52:	c3 51       	brne	80004ebc <get_arg+0x17c>
80004e54:	c3 18       	rjmp	80004eb6 <get_arg+0x176>
80004e56:	36 3b       	mov	r11,99
80004e58:	f6 0a 18 00 	cp.b	r10,r11
80004e5c:	c2 f0       	breq	80004eba <get_arg+0x17a>
80004e5e:	36 4b       	mov	r11,100
80004e60:	c0 e8       	rjmp	80004e7c <get_arg+0x13c>
80004e62:	37 0b       	mov	r11,112
80004e64:	f6 0a 18 00 	cp.b	r10,r11
80004e68:	c2 50       	breq	80004eb2 <get_arg+0x172>
80004e6a:	e0 8b 00 0d 	brhi	80004e84 <get_arg+0x144>
80004e6e:	36 eb       	mov	r11,110
80004e70:	f6 0a 18 00 	cp.b	r10,r11
80004e74:	c1 f0       	breq	80004eb2 <get_arg+0x172>
80004e76:	e0 8b 00 14 	brhi	80004e9e <get_arg+0x15e>
80004e7a:	36 9b       	mov	r11,105
80004e7c:	f6 0a 18 00 	cp.b	r10,r11
80004e80:	c1 e1       	brne	80004ebc <get_arg+0x17c>
80004e82:	c0 e8       	rjmp	80004e9e <get_arg+0x15e>
80004e84:	37 5b       	mov	r11,117
80004e86:	f6 0a 18 00 	cp.b	r10,r11
80004e8a:	c0 a0       	breq	80004e9e <get_arg+0x15e>
80004e8c:	37 8b       	mov	r11,120
80004e8e:	f6 0a 18 00 	cp.b	r10,r11
80004e92:	c0 60       	breq	80004e9e <get_arg+0x15e>
80004e94:	37 3b       	mov	r11,115
80004e96:	f6 0a 18 00 	cp.b	r10,r11
80004e9a:	c1 11       	brne	80004ebc <get_arg+0x17c>
80004e9c:	c0 b8       	rjmp	80004eb2 <get_arg+0x172>
80004e9e:	ed b4 00 04 	bld	r4,0x4
80004ea2:	c0 a0       	breq	80004eb6 <get_arg+0x176>
80004ea4:	ed b4 00 05 	bld	r4,0x5
80004ea8:	c0 91       	brne	80004eba <get_arg+0x17a>
80004eaa:	30 20       	mov	r0,2
80004eac:	c0 88       	rjmp	80004ebc <get_arg+0x17c>
80004eae:	30 40       	mov	r0,4
80004eb0:	c0 68       	rjmp	80004ebc <get_arg+0x17c>
80004eb2:	30 30       	mov	r0,3
80004eb4:	c0 48       	rjmp	80004ebc <get_arg+0x17c>
80004eb6:	30 10       	mov	r0,1
80004eb8:	c0 28       	rjmp	80004ebc <get_arg+0x17c>
80004eba:	30 00       	mov	r0,0
80004ebc:	40 3b       	lddsp	r11,sp[0xc]
80004ebe:	5b fb       	cp.w	r11,-1
80004ec0:	c0 40       	breq	80004ec8 <get_arg+0x188>
80004ec2:	e2 0b 09 20 	st.w	r1[r11<<0x2],r0
80004ec6:	c7 08       	rjmp	80004fa6 <get_arg+0x266>
80004ec8:	58 60       	cp.w	r0,6
80004eca:	e0 8b 00 6e 	brhi	80004fa6 <get_arg+0x266>
80004ece:	6c 0a       	ld.w	r10,r6[0x0]
80004ed0:	ea cc ff ff 	sub	r12,r5,-1
80004ed4:	fe ce b3 c4 	sub	lr,pc,-19516
80004ed8:	fc 00 03 2f 	ld.w	pc,lr[r0<<0x2]
80004edc:	f4 cb ff f8 	sub	r11,r10,-8
80004ee0:	8d 0b       	st.w	r6[0x0],r11
80004ee2:	f4 ea 00 00 	ld.d	r10,r10[0]
80004ee6:	e6 05 08 3a 	st.d	r3[r5<<0x3],r10
80004eea:	c0 f8       	rjmp	80004f08 <get_arg+0x1c8>
80004eec:	f4 cb ff fc 	sub	r11,r10,-4
80004ef0:	8d 0b       	st.w	r6[0x0],r11
80004ef2:	74 0a       	ld.w	r10,r10[0x0]
80004ef4:	e6 05 09 3a 	st.w	r3[r5<<0x3],r10
80004ef8:	c0 88       	rjmp	80004f08 <get_arg+0x1c8>
80004efa:	f4 cb ff f8 	sub	r11,r10,-8
80004efe:	8d 0b       	st.w	r6[0x0],r11
80004f00:	f4 ea 00 00 	ld.d	r10,r10[0]
80004f04:	e6 05 08 3a 	st.d	r3[r5<<0x3],r10
80004f08:	0e 9b       	mov	r11,r7
80004f0a:	18 95       	mov	r5,r12
80004f0c:	c4 e8       	rjmp	80004fa8 <get_arg+0x268>
80004f0e:	62 0a       	ld.w	r10,r1[0x0]
80004f10:	5b fa       	cp.w	r10,-1
80004f12:	c0 b1       	brne	80004f28 <get_arg+0x1e8>
80004f14:	50 19       	stdsp	sp[0x4],r9
80004f16:	50 28       	stdsp	sp[0x8],r8
80004f18:	e0 6a 00 80 	mov	r10,128
80004f1c:	30 0b       	mov	r11,0
80004f1e:	02 9c       	mov	r12,r1
80004f20:	fe b0 fc f6 	rcall	8000490c <memset>
80004f24:	40 28       	lddsp	r8,sp[0x8]
80004f26:	40 19       	lddsp	r9,sp[0x4]
80004f28:	e4 cc 00 01 	sub	r12,r2,1
80004f2c:	0e 9b       	mov	r11,r7
80004f2e:	50 3c       	stdsp	sp[0xc],r12
80004f30:	f2 0c 0c 49 	max	r9,r9,r12
80004f34:	c3 a8       	rjmp	80004fa8 <get_arg+0x268>
80004f36:	62 0a       	ld.w	r10,r1[0x0]
80004f38:	5b fa       	cp.w	r10,-1
80004f3a:	c0 b1       	brne	80004f50 <get_arg+0x210>
80004f3c:	50 19       	stdsp	sp[0x4],r9
80004f3e:	50 28       	stdsp	sp[0x8],r8
80004f40:	e0 6a 00 80 	mov	r10,128
80004f44:	30 0b       	mov	r11,0
80004f46:	02 9c       	mov	r12,r1
80004f48:	fe b0 fc e2 	rcall	8000490c <memset>
80004f4c:	40 28       	lddsp	r8,sp[0x8]
80004f4e:	40 19       	lddsp	r9,sp[0x4]
80004f50:	20 12       	sub	r2,1
80004f52:	30 0a       	mov	r10,0
80004f54:	0e 9b       	mov	r11,r7
80004f56:	e2 02 09 2a 	st.w	r1[r2<<0x2],r10
80004f5a:	f2 02 0c 49 	max	r9,r9,r2
80004f5e:	c2 58       	rjmp	80004fa8 <get_arg+0x268>
80004f60:	16 97       	mov	r7,r11
80004f62:	6c 0a       	ld.w	r10,r6[0x0]
80004f64:	f4 cb ff fc 	sub	r11,r10,-4
80004f68:	8d 0b       	st.w	r6[0x0],r11
80004f6a:	74 0a       	ld.w	r10,r10[0x0]
80004f6c:	0e 9b       	mov	r11,r7
80004f6e:	e6 05 09 3a 	st.w	r3[r5<<0x3],r10
80004f72:	2f f5       	sub	r5,-1
80004f74:	c1 a8       	rjmp	80004fa8 <get_arg+0x268>
80004f76:	f4 c2 00 30 	sub	r2,r10,48
80004f7a:	c0 68       	rjmp	80004f86 <get_arg+0x246>
80004f7c:	e4 02 00 22 	add	r2,r2,r2<<0x2
80004f80:	2f f7       	sub	r7,-1
80004f82:	f4 02 00 12 	add	r2,r10,r2<<0x1
80004f86:	0f 8a       	ld.ub	r10,r7[0x0]
80004f88:	58 0a       	cp.w	r10,0
80004f8a:	c0 e0       	breq	80004fa6 <get_arg+0x266>
80004f8c:	23 0a       	sub	r10,48
80004f8e:	58 9a       	cp.w	r10,9
80004f90:	fe 98 ff f6 	brls	80004f7c <get_arg+0x23c>
80004f94:	c0 98       	rjmp	80004fa6 <get_arg+0x266>
80004f96:	2f f7       	sub	r7,-1
80004f98:	0f 8a       	ld.ub	r10,r7[0x0]
80004f9a:	58 0a       	cp.w	r10,0
80004f9c:	c0 50       	breq	80004fa6 <get_arg+0x266>
80004f9e:	23 0a       	sub	r10,48
80004fa0:	58 9a       	cp.w	r10,9
80004fa2:	fe 98 ff fa 	brls	80004f96 <get_arg+0x256>
80004fa6:	0e 9b       	mov	r11,r7
80004fa8:	40 7c       	lddsp	r12,sp[0x1c]
80004faa:	30 ba       	mov	r10,11
80004fac:	f4 0c 18 00 	cp.b	r12,r10
80004fb0:	fe 91 fe f2 	brne	80004d94 <get_arg+0x54>
80004fb4:	40 42       	lddsp	r2,sp[0x10]
80004fb6:	17 8c       	ld.ub	r12,r11[0x0]
80004fb8:	0a 32       	cp.w	r2,r5
80004fba:	5f 4a       	srge	r10
80004fbc:	f0 0c 18 00 	cp.b	r12,r8
80004fc0:	5f 1c       	srne	r12
80004fc2:	f9 ea 00 0a 	and	r10,r12,r10
80004fc6:	f0 0a 18 00 	cp.b	r10,r8
80004fca:	fe 91 fe cf 	brne	80004d68 <get_arg+0x28>
80004fce:	30 08       	mov	r8,0
80004fd0:	40 4e       	lddsp	lr,sp[0x10]
80004fd2:	17 8a       	ld.ub	r10,r11[0x0]
80004fd4:	e2 05 00 21 	add	r1,r1,r5<<0x2
80004fd8:	f0 0a 18 00 	cp.b	r10,r8
80004fdc:	fc 09 17 10 	movne	r9,lr
80004fe0:	e6 05 00 38 	add	r8,r3,r5<<0x3
80004fe4:	06 9e       	mov	lr,r3
80004fe6:	c2 a8       	rjmp	8000503a <get_arg+0x2fa>
80004fe8:	62 0a       	ld.w	r10,r1[0x0]
80004fea:	58 3a       	cp.w	r10,3
80004fec:	c1 e0       	breq	80005028 <get_arg+0x2e8>
80004fee:	e0 89 00 07 	brgt	80004ffc <get_arg+0x2bc>
80004ff2:	58 1a       	cp.w	r10,1
80004ff4:	c1 a0       	breq	80005028 <get_arg+0x2e8>
80004ff6:	58 2a       	cp.w	r10,2
80004ff8:	c1 81       	brne	80005028 <get_arg+0x2e8>
80004ffa:	c0 58       	rjmp	80005004 <get_arg+0x2c4>
80004ffc:	58 5a       	cp.w	r10,5
80004ffe:	c0 c0       	breq	80005016 <get_arg+0x2d6>
80005000:	c0 b5       	brlt	80005016 <get_arg+0x2d6>
80005002:	c1 38       	rjmp	80005028 <get_arg+0x2e8>
80005004:	6c 0a       	ld.w	r10,r6[0x0]
80005006:	f4 cc ff f8 	sub	r12,r10,-8
8000500a:	8d 0c       	st.w	r6[0x0],r12
8000500c:	f4 e2 00 00 	ld.d	r2,r10[0]
80005010:	f0 e3 00 00 	st.d	r8[0],r2
80005014:	c1 08       	rjmp	80005034 <get_arg+0x2f4>
80005016:	6c 0a       	ld.w	r10,r6[0x0]
80005018:	f4 cc ff f8 	sub	r12,r10,-8
8000501c:	8d 0c       	st.w	r6[0x0],r12
8000501e:	f4 e2 00 00 	ld.d	r2,r10[0]
80005022:	f0 e3 00 00 	st.d	r8[0],r2
80005026:	c0 78       	rjmp	80005034 <get_arg+0x2f4>
80005028:	6c 0a       	ld.w	r10,r6[0x0]
8000502a:	f4 cc ff fc 	sub	r12,r10,-4
8000502e:	8d 0c       	st.w	r6[0x0],r12
80005030:	74 0a       	ld.w	r10,r10[0x0]
80005032:	91 0a       	st.w	r8[0x0],r10
80005034:	2f f5       	sub	r5,-1
80005036:	2f 88       	sub	r8,-8
80005038:	2f c1       	sub	r1,-4
8000503a:	12 35       	cp.w	r5,r9
8000503c:	fe 9a ff d6 	brle	80004fe8 <get_arg+0x2a8>
80005040:	1c 93       	mov	r3,lr
80005042:	40 52       	lddsp	r2,sp[0x14]
80005044:	40 6e       	lddsp	lr,sp[0x18]
80005046:	85 05       	st.w	r2[0x0],r5
80005048:	9d 0b       	st.w	lr[0x0],r11
8000504a:	40 4b       	lddsp	r11,sp[0x10]
8000504c:	e6 0b 00 3c 	add	r12,r3,r11<<0x3
80005050:	2f 8d       	sub	sp,-32
80005052:	d8 32       	popm	r0-r7,pc

80005054 <__sprint_r>:
80005054:	d4 21       	pushm	r4-r7,lr
80005056:	14 97       	mov	r7,r10
80005058:	74 28       	ld.w	r8,r10[0x8]
8000505a:	58 08       	cp.w	r8,0
8000505c:	c0 41       	brne	80005064 <__sprint_r+0x10>
8000505e:	95 18       	st.w	r10[0x4],r8
80005060:	10 9c       	mov	r12,r8
80005062:	d8 22       	popm	r4-r7,pc
80005064:	e0 a0 19 72 	rcall	80008348 <__sfvwrite_r>
80005068:	30 08       	mov	r8,0
8000506a:	8f 18       	st.w	r7[0x4],r8
8000506c:	8f 28       	st.w	r7[0x8],r8
8000506e:	d8 22       	popm	r4-r7,pc

80005070 <_vfprintf_r>:
80005070:	d4 31       	pushm	r0-r7,lr
80005072:	fa cd 06 bc 	sub	sp,sp,1724
80005076:	51 09       	stdsp	sp[0x40],r9
80005078:	16 91       	mov	r1,r11
8000507a:	14 97       	mov	r7,r10
8000507c:	18 95       	mov	r5,r12
8000507e:	e0 a0 1a d5 	rcall	80008628 <_localeconv_r>
80005082:	78 0c       	ld.w	r12,r12[0x0]
80005084:	50 cc       	stdsp	sp[0x30],r12
80005086:	58 05       	cp.w	r5,0
80005088:	c0 70       	breq	80005096 <_vfprintf_r+0x26>
8000508a:	6a 68       	ld.w	r8,r5[0x18]
8000508c:	58 08       	cp.w	r8,0
8000508e:	c0 41       	brne	80005096 <_vfprintf_r+0x26>
80005090:	0a 9c       	mov	r12,r5
80005092:	e0 a0 17 fb 	rcall	80008088 <__sinit>
80005096:	fe c8 b1 c6 	sub	r8,pc,-20026
8000509a:	10 31       	cp.w	r1,r8
8000509c:	c0 31       	brne	800050a2 <_vfprintf_r+0x32>
8000509e:	6a 01       	ld.w	r1,r5[0x0]
800050a0:	c0 c8       	rjmp	800050b8 <_vfprintf_r+0x48>
800050a2:	fe c8 b1 b2 	sub	r8,pc,-20046
800050a6:	10 31       	cp.w	r1,r8
800050a8:	c0 31       	brne	800050ae <_vfprintf_r+0x3e>
800050aa:	6a 11       	ld.w	r1,r5[0x4]
800050ac:	c0 68       	rjmp	800050b8 <_vfprintf_r+0x48>
800050ae:	fe c8 b1 9e 	sub	r8,pc,-20066
800050b2:	10 31       	cp.w	r1,r8
800050b4:	eb f1 00 02 	ld.weq	r1,r5[0x8]
800050b8:	82 68       	ld.sh	r8,r1[0xc]
800050ba:	ed b8 00 03 	bld	r8,0x3
800050be:	c0 41       	brne	800050c6 <_vfprintf_r+0x56>
800050c0:	62 48       	ld.w	r8,r1[0x10]
800050c2:	58 08       	cp.w	r8,0
800050c4:	c0 71       	brne	800050d2 <_vfprintf_r+0x62>
800050c6:	02 9b       	mov	r11,r1
800050c8:	0a 9c       	mov	r12,r5
800050ca:	e0 a0 0f 5d 	rcall	80006f84 <__swsetup_r>
800050ce:	e0 81 0f 54 	brne	80006f76 <_vfprintf_r+0x1f06>
800050d2:	82 68       	ld.sh	r8,r1[0xc]
800050d4:	10 99       	mov	r9,r8
800050d6:	e2 19 00 1a 	andl	r9,0x1a,COH
800050da:	58 a9       	cp.w	r9,10
800050dc:	c3 c1       	brne	80005154 <_vfprintf_r+0xe4>
800050de:	82 79       	ld.sh	r9,r1[0xe]
800050e0:	30 0a       	mov	r10,0
800050e2:	f4 09 19 00 	cp.h	r9,r10
800050e6:	c3 75       	brlt	80005154 <_vfprintf_r+0xe4>
800050e8:	a1 d8       	cbr	r8,0x1
800050ea:	fb 58 05 d0 	st.h	sp[1488],r8
800050ee:	62 88       	ld.w	r8,r1[0x20]
800050f0:	fb 48 05 e4 	st.w	sp[1508],r8
800050f4:	62 a8       	ld.w	r8,r1[0x28]
800050f6:	fb 48 05 ec 	st.w	sp[1516],r8
800050fa:	fa c8 ff bc 	sub	r8,sp,-68
800050fe:	fb 48 05 d4 	st.w	sp[1492],r8
80005102:	fb 48 05 c4 	st.w	sp[1476],r8
80005106:	e0 68 04 00 	mov	r8,1024
8000510a:	fb 48 05 d8 	st.w	sp[1496],r8
8000510e:	fb 48 05 cc 	st.w	sp[1484],r8
80005112:	30 08       	mov	r8,0
80005114:	fb 59 05 d2 	st.h	sp[1490],r9
80005118:	0e 9a       	mov	r10,r7
8000511a:	41 09       	lddsp	r9,sp[0x40]
8000511c:	fa c7 fa 3c 	sub	r7,sp,-1476
80005120:	fb 48 05 dc 	st.w	sp[1500],r8
80005124:	0a 9c       	mov	r12,r5
80005126:	0e 9b       	mov	r11,r7
80005128:	ca 4f       	rcall	80005070 <_vfprintf_r>
8000512a:	50 bc       	stdsp	sp[0x2c],r12
8000512c:	c0 95       	brlt	8000513e <_vfprintf_r+0xce>
8000512e:	0e 9b       	mov	r11,r7
80005130:	0a 9c       	mov	r12,r5
80005132:	e0 a0 16 d3 	rcall	80007ed8 <_fflush_r>
80005136:	40 be       	lddsp	lr,sp[0x2c]
80005138:	f9 be 01 ff 	movne	lr,-1
8000513c:	50 be       	stdsp	sp[0x2c],lr
8000513e:	fb 08 05 d0 	ld.sh	r8,sp[1488]
80005142:	ed b8 00 06 	bld	r8,0x6
80005146:	e0 81 0f 1a 	brne	80006f7a <_vfprintf_r+0x1f0a>
8000514a:	82 68       	ld.sh	r8,r1[0xc]
8000514c:	a7 a8       	sbr	r8,0x6
8000514e:	a2 68       	st.h	r1[0xc],r8
80005150:	e0 8f 0f 15 	bral	80006f7a <_vfprintf_r+0x1f0a>
80005154:	30 08       	mov	r8,0
80005156:	fb 48 06 b4 	st.w	sp[1716],r8
8000515a:	fb 48 06 90 	st.w	sp[1680],r8
8000515e:	fb 48 06 8c 	st.w	sp[1676],r8
80005162:	fb 48 06 b0 	st.w	sp[1712],r8
80005166:	30 08       	mov	r8,0
80005168:	30 09       	mov	r9,0
8000516a:	50 a7       	stdsp	sp[0x28],r7
8000516c:	50 78       	stdsp	sp[0x1c],r8
8000516e:	fa c3 f9 e0 	sub	r3,sp,-1568
80005172:	3f f8       	mov	r8,-1
80005174:	50 59       	stdsp	sp[0x14],r9
80005176:	fb 43 06 88 	st.w	sp[1672],r3
8000517a:	fb 48 05 44 	st.w	sp[1348],r8
8000517e:	12 9c       	mov	r12,r9
80005180:	50 69       	stdsp	sp[0x18],r9
80005182:	50 d9       	stdsp	sp[0x34],r9
80005184:	50 e9       	stdsp	sp[0x38],r9
80005186:	50 b9       	stdsp	sp[0x2c],r9
80005188:	12 97       	mov	r7,r9
8000518a:	0a 94       	mov	r4,r5
8000518c:	40 a2       	lddsp	r2,sp[0x28]
8000518e:	32 5a       	mov	r10,37
80005190:	30 08       	mov	r8,0
80005192:	c0 28       	rjmp	80005196 <_vfprintf_r+0x126>
80005194:	2f f2       	sub	r2,-1
80005196:	05 89       	ld.ub	r9,r2[0x0]
80005198:	f0 09 18 00 	cp.b	r9,r8
8000519c:	5f 1b       	srne	r11
8000519e:	f4 09 18 00 	cp.b	r9,r10
800051a2:	5f 19       	srne	r9
800051a4:	f3 eb 00 0b 	and	r11,r9,r11
800051a8:	f0 0b 18 00 	cp.b	r11,r8
800051ac:	cf 41       	brne	80005194 <_vfprintf_r+0x124>
800051ae:	40 ab       	lddsp	r11,sp[0x28]
800051b0:	e4 0b 01 06 	sub	r6,r2,r11
800051b4:	c1 e0       	breq	800051f0 <_vfprintf_r+0x180>
800051b6:	fa f8 06 90 	ld.w	r8,sp[1680]
800051ba:	0c 08       	add	r8,r6
800051bc:	87 0b       	st.w	r3[0x0],r11
800051be:	fb 48 06 90 	st.w	sp[1680],r8
800051c2:	87 16       	st.w	r3[0x4],r6
800051c4:	fa f8 06 8c 	ld.w	r8,sp[1676]
800051c8:	2f f8       	sub	r8,-1
800051ca:	fb 48 06 8c 	st.w	sp[1676],r8
800051ce:	58 78       	cp.w	r8,7
800051d0:	e0 89 00 04 	brgt	800051d8 <_vfprintf_r+0x168>
800051d4:	2f 83       	sub	r3,-8
800051d6:	c0 a8       	rjmp	800051ea <_vfprintf_r+0x17a>
800051d8:	fa ca f9 78 	sub	r10,sp,-1672
800051dc:	02 9b       	mov	r11,r1
800051de:	08 9c       	mov	r12,r4
800051e0:	c3 af       	rcall	80005054 <__sprint_r>
800051e2:	e0 81 0e c6 	brne	80006f6e <_vfprintf_r+0x1efe>
800051e6:	fa c3 f9 e0 	sub	r3,sp,-1568
800051ea:	40 ba       	lddsp	r10,sp[0x2c]
800051ec:	0c 0a       	add	r10,r6
800051ee:	50 ba       	stdsp	sp[0x2c],r10
800051f0:	05 89       	ld.ub	r9,r2[0x0]
800051f2:	30 08       	mov	r8,0
800051f4:	f0 09 18 00 	cp.b	r9,r8
800051f8:	e0 80 0e aa 	breq	80006f4c <_vfprintf_r+0x1edc>
800051fc:	30 09       	mov	r9,0
800051fe:	fb 68 06 bb 	st.b	sp[1723],r8
80005202:	0e 96       	mov	r6,r7
80005204:	e4 c8 ff ff 	sub	r8,r2,-1
80005208:	3f fe       	mov	lr,-1
8000520a:	50 93       	stdsp	sp[0x24],r3
8000520c:	50 41       	stdsp	sp[0x10],r1
8000520e:	0e 93       	mov	r3,r7
80005210:	04 91       	mov	r1,r2
80005212:	50 89       	stdsp	sp[0x20],r9
80005214:	50 a8       	stdsp	sp[0x28],r8
80005216:	50 2e       	stdsp	sp[0x8],lr
80005218:	50 39       	stdsp	sp[0xc],r9
8000521a:	12 95       	mov	r5,r9
8000521c:	12 90       	mov	r0,r9
8000521e:	10 97       	mov	r7,r8
80005220:	08 92       	mov	r2,r4
80005222:	c0 78       	rjmp	80005230 <_vfprintf_r+0x1c0>
80005224:	3f fc       	mov	r12,-1
80005226:	08 97       	mov	r7,r4
80005228:	50 2c       	stdsp	sp[0x8],r12
8000522a:	c0 38       	rjmp	80005230 <_vfprintf_r+0x1c0>
8000522c:	30 0b       	mov	r11,0
8000522e:	50 3b       	stdsp	sp[0xc],r11
80005230:	0f 38       	ld.ub	r8,r7++
80005232:	c0 28       	rjmp	80005236 <_vfprintf_r+0x1c6>
80005234:	12 90       	mov	r0,r9
80005236:	f0 c9 00 20 	sub	r9,r8,32
8000523a:	e0 49 00 58 	cp.w	r9,88
8000523e:	e0 8b 0a 30 	brhi	8000669e <_vfprintf_r+0x162e>
80005242:	fe ca b7 16 	sub	r10,pc,-18666
80005246:	f4 09 03 2f 	ld.w	pc,r10[r9<<0x2]
8000524a:	50 a7       	stdsp	sp[0x28],r7
8000524c:	50 80       	stdsp	sp[0x20],r0
8000524e:	0c 97       	mov	r7,r6
80005250:	04 94       	mov	r4,r2
80005252:	06 96       	mov	r6,r3
80005254:	02 92       	mov	r2,r1
80005256:	fe c9 b4 ee 	sub	r9,pc,-19218
8000525a:	40 93       	lddsp	r3,sp[0x24]
8000525c:	10 90       	mov	r0,r8
8000525e:	40 41       	lddsp	r1,sp[0x10]
80005260:	50 d9       	stdsp	sp[0x34],r9
80005262:	e0 8f 08 8e 	bral	8000637e <_vfprintf_r+0x130e>
80005266:	30 08       	mov	r8,0
80005268:	fb 39 06 bb 	ld.ub	r9,sp[1723]
8000526c:	f0 09 18 00 	cp.b	r9,r8
80005270:	ce 01       	brne	80005230 <_vfprintf_r+0x1c0>
80005272:	32 08       	mov	r8,32
80005274:	c6 e8       	rjmp	80005350 <_vfprintf_r+0x2e0>
80005276:	a1 a5       	sbr	r5,0x0
80005278:	cd cb       	rjmp	80005230 <_vfprintf_r+0x1c0>
8000527a:	0f 89       	ld.ub	r9,r7[0x0]
8000527c:	f2 c8 00 30 	sub	r8,r9,48
80005280:	58 98       	cp.w	r8,9
80005282:	e0 8b 00 1d 	brhi	800052bc <_vfprintf_r+0x24c>
80005286:	ee c8 ff ff 	sub	r8,r7,-1
8000528a:	30 0b       	mov	r11,0
8000528c:	23 09       	sub	r9,48
8000528e:	f6 0b 00 2b 	add	r11,r11,r11<<0x2
80005292:	f2 0b 00 1b 	add	r11,r9,r11<<0x1
80005296:	11 39       	ld.ub	r9,r8++
80005298:	f2 ca 00 30 	sub	r10,r9,48
8000529c:	58 9a       	cp.w	r10,9
8000529e:	fe 98 ff f7 	brls	8000528c <_vfprintf_r+0x21c>
800052a2:	e0 49 00 24 	cp.w	r9,36
800052a6:	cc 31       	brne	8000522c <_vfprintf_r+0x1bc>
800052a8:	e0 4b 00 20 	cp.w	r11,32
800052ac:	e0 89 0e 60 	brgt	80006f6c <_vfprintf_r+0x1efc>
800052b0:	20 1b       	sub	r11,1
800052b2:	fa f9 06 b4 	ld.w	r9,sp[1716]
800052b6:	12 3b       	cp.w	r11,r9
800052b8:	c0 95       	brlt	800052ca <_vfprintf_r+0x25a>
800052ba:	c1 08       	rjmp	800052da <_vfprintf_r+0x26a>
800052bc:	fa f9 06 b4 	ld.w	r9,sp[1716]
800052c0:	ec ca ff ff 	sub	r10,r6,-1
800052c4:	12 36       	cp.w	r6,r9
800052c6:	c1 f5       	brlt	80005304 <_vfprintf_r+0x294>
800052c8:	c2 68       	rjmp	80005314 <_vfprintf_r+0x2a4>
800052ca:	fa ce f9 44 	sub	lr,sp,-1724
800052ce:	10 97       	mov	r7,r8
800052d0:	fc 0b 00 3b 	add	r11,lr,r11<<0x3
800052d4:	f6 f0 fd 88 	ld.w	r0,r11[-632]
800052d8:	c3 58       	rjmp	80005342 <_vfprintf_r+0x2d2>
800052da:	10 97       	mov	r7,r8
800052dc:	fa c8 f9 50 	sub	r8,sp,-1712
800052e0:	1a d8       	st.w	--sp,r8
800052e2:	fa c8 fa b8 	sub	r8,sp,-1352
800052e6:	1a d8       	st.w	--sp,r8
800052e8:	fa c8 fb b4 	sub	r8,sp,-1100
800052ec:	02 9a       	mov	r10,r1
800052ee:	1a d8       	st.w	--sp,r8
800052f0:	04 9c       	mov	r12,r2
800052f2:	fa c8 f9 40 	sub	r8,sp,-1728
800052f6:	fa c9 ff b4 	sub	r9,sp,-76
800052fa:	fe b0 fd 23 	rcall	80004d40 <get_arg>
800052fe:	2f dd       	sub	sp,-12
80005300:	78 00       	ld.w	r0,r12[0x0]
80005302:	c2 08       	rjmp	80005342 <_vfprintf_r+0x2d2>
80005304:	fa cc f9 44 	sub	r12,sp,-1724
80005308:	14 96       	mov	r6,r10
8000530a:	f8 03 00 38 	add	r8,r12,r3<<0x3
8000530e:	f0 f0 fd 88 	ld.w	r0,r8[-632]
80005312:	c1 88       	rjmp	80005342 <_vfprintf_r+0x2d2>
80005314:	41 08       	lddsp	r8,sp[0x40]
80005316:	59 f9       	cp.w	r9,31
80005318:	e0 89 00 11 	brgt	8000533a <_vfprintf_r+0x2ca>
8000531c:	f0 cb ff fc 	sub	r11,r8,-4
80005320:	51 0b       	stdsp	sp[0x40],r11
80005322:	70 00       	ld.w	r0,r8[0x0]
80005324:	fa cb f9 44 	sub	r11,sp,-1724
80005328:	f6 09 00 38 	add	r8,r11,r9<<0x3
8000532c:	f1 40 fd 88 	st.w	r8[-632],r0
80005330:	2f f9       	sub	r9,-1
80005332:	14 96       	mov	r6,r10
80005334:	fb 49 06 b4 	st.w	sp[1716],r9
80005338:	c0 58       	rjmp	80005342 <_vfprintf_r+0x2d2>
8000533a:	70 00       	ld.w	r0,r8[0x0]
8000533c:	14 96       	mov	r6,r10
8000533e:	2f c8       	sub	r8,-4
80005340:	51 08       	stdsp	sp[0x40],r8
80005342:	58 00       	cp.w	r0,0
80005344:	fe 94 ff 76 	brge	80005230 <_vfprintf_r+0x1c0>
80005348:	5c 30       	neg	r0
8000534a:	a3 a5       	sbr	r5,0x2
8000534c:	c7 2b       	rjmp	80005230 <_vfprintf_r+0x1c0>
8000534e:	32 b8       	mov	r8,43
80005350:	fb 68 06 bb 	st.b	sp[1723],r8
80005354:	c6 eb       	rjmp	80005230 <_vfprintf_r+0x1c0>
80005356:	0f 38       	ld.ub	r8,r7++
80005358:	e0 48 00 2a 	cp.w	r8,42
8000535c:	c0 30       	breq	80005362 <_vfprintf_r+0x2f2>
8000535e:	30 09       	mov	r9,0
80005360:	c7 98       	rjmp	80005452 <_vfprintf_r+0x3e2>
80005362:	0f 88       	ld.ub	r8,r7[0x0]
80005364:	f0 c9 00 30 	sub	r9,r8,48
80005368:	58 99       	cp.w	r9,9
8000536a:	e0 8b 00 1f 	brhi	800053a8 <_vfprintf_r+0x338>
8000536e:	ee c4 ff ff 	sub	r4,r7,-1
80005372:	30 0b       	mov	r11,0
80005374:	23 08       	sub	r8,48
80005376:	f6 0b 00 2b 	add	r11,r11,r11<<0x2
8000537a:	f0 0b 00 1b 	add	r11,r8,r11<<0x1
8000537e:	09 38       	ld.ub	r8,r4++
80005380:	f0 c9 00 30 	sub	r9,r8,48
80005384:	58 99       	cp.w	r9,9
80005386:	fe 98 ff f7 	brls	80005374 <_vfprintf_r+0x304>
8000538a:	e0 48 00 24 	cp.w	r8,36
8000538e:	fe 91 ff 4f 	brne	8000522c <_vfprintf_r+0x1bc>
80005392:	e0 4b 00 20 	cp.w	r11,32
80005396:	e0 89 0d eb 	brgt	80006f6c <_vfprintf_r+0x1efc>
8000539a:	20 1b       	sub	r11,1
8000539c:	fa f8 06 b4 	ld.w	r8,sp[1716]
800053a0:	10 3b       	cp.w	r11,r8
800053a2:	c0 a5       	brlt	800053b6 <_vfprintf_r+0x346>
800053a4:	c1 18       	rjmp	800053c6 <_vfprintf_r+0x356>
800053a6:	d7 03       	nop
800053a8:	fa fa 06 b4 	ld.w	r10,sp[1716]
800053ac:	ec c9 ff ff 	sub	r9,r6,-1
800053b0:	14 36       	cp.w	r6,r10
800053b2:	c1 f5       	brlt	800053f0 <_vfprintf_r+0x380>
800053b4:	c2 88       	rjmp	80005404 <_vfprintf_r+0x394>
800053b6:	fa ca f9 44 	sub	r10,sp,-1724
800053ba:	f4 0b 00 3b 	add	r11,r10,r11<<0x3
800053be:	f6 fb fd 88 	ld.w	r11,r11[-632]
800053c2:	50 2b       	stdsp	sp[0x8],r11
800053c4:	c3 c8       	rjmp	8000543c <_vfprintf_r+0x3cc>
800053c6:	fa c8 f9 50 	sub	r8,sp,-1712
800053ca:	1a d8       	st.w	--sp,r8
800053cc:	fa c8 fa b8 	sub	r8,sp,-1352
800053d0:	1a d8       	st.w	--sp,r8
800053d2:	fa c8 fb b4 	sub	r8,sp,-1100
800053d6:	02 9a       	mov	r10,r1
800053d8:	1a d8       	st.w	--sp,r8
800053da:	04 9c       	mov	r12,r2
800053dc:	fa c8 f9 40 	sub	r8,sp,-1728
800053e0:	fa c9 ff b4 	sub	r9,sp,-76
800053e4:	fe b0 fc ae 	rcall	80004d40 <get_arg>
800053e8:	2f dd       	sub	sp,-12
800053ea:	78 0c       	ld.w	r12,r12[0x0]
800053ec:	50 2c       	stdsp	sp[0x8],r12
800053ee:	c2 78       	rjmp	8000543c <_vfprintf_r+0x3cc>
800053f0:	12 96       	mov	r6,r9
800053f2:	0e 94       	mov	r4,r7
800053f4:	fa c9 f9 44 	sub	r9,sp,-1724
800053f8:	f2 03 00 38 	add	r8,r9,r3<<0x3
800053fc:	f0 f8 fd 88 	ld.w	r8,r8[-632]
80005400:	50 28       	stdsp	sp[0x8],r8
80005402:	c1 d8       	rjmp	8000543c <_vfprintf_r+0x3cc>
80005404:	41 08       	lddsp	r8,sp[0x40]
80005406:	59 fa       	cp.w	r10,31
80005408:	e0 89 00 14 	brgt	80005430 <_vfprintf_r+0x3c0>
8000540c:	f0 cb ff fc 	sub	r11,r8,-4
80005410:	70 08       	ld.w	r8,r8[0x0]
80005412:	51 0b       	stdsp	sp[0x40],r11
80005414:	50 28       	stdsp	sp[0x8],r8
80005416:	fa c6 f9 44 	sub	r6,sp,-1724
8000541a:	40 2e       	lddsp	lr,sp[0x8]
8000541c:	ec 0a 00 38 	add	r8,r6,r10<<0x3
80005420:	f1 4e fd 88 	st.w	r8[-632],lr
80005424:	2f fa       	sub	r10,-1
80005426:	0e 94       	mov	r4,r7
80005428:	fb 4a 06 b4 	st.w	sp[1716],r10
8000542c:	12 96       	mov	r6,r9
8000542e:	c0 78       	rjmp	8000543c <_vfprintf_r+0x3cc>
80005430:	70 0c       	ld.w	r12,r8[0x0]
80005432:	0e 94       	mov	r4,r7
80005434:	2f c8       	sub	r8,-4
80005436:	50 2c       	stdsp	sp[0x8],r12
80005438:	12 96       	mov	r6,r9
8000543a:	51 08       	stdsp	sp[0x40],r8
8000543c:	40 2b       	lddsp	r11,sp[0x8]
8000543e:	58 0b       	cp.w	r11,0
80005440:	fe 95 fe f2 	brlt	80005224 <_vfprintf_r+0x1b4>
80005444:	08 97       	mov	r7,r4
80005446:	cf 5a       	rjmp	80005230 <_vfprintf_r+0x1c0>
80005448:	f2 09 00 29 	add	r9,r9,r9<<0x2
8000544c:	0f 38       	ld.ub	r8,r7++
8000544e:	f4 09 00 19 	add	r9,r10,r9<<0x1
80005452:	f0 ca 00 30 	sub	r10,r8,48
80005456:	58 9a       	cp.w	r10,9
80005458:	fe 98 ff f8 	brls	80005448 <_vfprintf_r+0x3d8>
8000545c:	3f fa       	mov	r10,-1
8000545e:	f2 0a 0c 49 	max	r9,r9,r10
80005462:	50 29       	stdsp	sp[0x8],r9
80005464:	ce 9a       	rjmp	80005236 <_vfprintf_r+0x1c6>
80005466:	a7 b5       	sbr	r5,0x7
80005468:	ce 4a       	rjmp	80005230 <_vfprintf_r+0x1c0>
8000546a:	30 09       	mov	r9,0
8000546c:	23 08       	sub	r8,48
8000546e:	f2 09 00 29 	add	r9,r9,r9<<0x2
80005472:	f0 09 00 19 	add	r9,r8,r9<<0x1
80005476:	0f 38       	ld.ub	r8,r7++
80005478:	f0 ca 00 30 	sub	r10,r8,48
8000547c:	58 9a       	cp.w	r10,9
8000547e:	fe 98 ff f7 	brls	8000546c <_vfprintf_r+0x3fc>
80005482:	e0 48 00 24 	cp.w	r8,36
80005486:	fe 91 fe d7 	brne	80005234 <_vfprintf_r+0x1c4>
8000548a:	e0 49 00 20 	cp.w	r9,32
8000548e:	e0 89 0d 6f 	brgt	80006f6c <_vfprintf_r+0x1efc>
80005492:	f2 c3 00 01 	sub	r3,r9,1
80005496:	30 19       	mov	r9,1
80005498:	50 39       	stdsp	sp[0xc],r9
8000549a:	cc ba       	rjmp	80005230 <_vfprintf_r+0x1c0>
8000549c:	a3 b5       	sbr	r5,0x3
8000549e:	cc 9a       	rjmp	80005230 <_vfprintf_r+0x1c0>
800054a0:	a7 a5       	sbr	r5,0x6
800054a2:	cc 7a       	rjmp	80005230 <_vfprintf_r+0x1c0>
800054a4:	0a 98       	mov	r8,r5
800054a6:	a5 b5       	sbr	r5,0x5
800054a8:	a5 a8       	sbr	r8,0x4
800054aa:	0f 89       	ld.ub	r9,r7[0x0]
800054ac:	36 ce       	mov	lr,108
800054ae:	fc 09 18 00 	cp.b	r9,lr
800054b2:	f7 b7 00 ff 	subeq	r7,-1
800054b6:	f0 05 17 10 	movne	r5,r8
800054ba:	cb ba       	rjmp	80005230 <_vfprintf_r+0x1c0>
800054bc:	a5 b5       	sbr	r5,0x5
800054be:	cb 9a       	rjmp	80005230 <_vfprintf_r+0x1c0>
800054c0:	50 a7       	stdsp	sp[0x28],r7
800054c2:	50 80       	stdsp	sp[0x20],r0
800054c4:	0c 97       	mov	r7,r6
800054c6:	10 90       	mov	r0,r8
800054c8:	06 96       	mov	r6,r3
800054ca:	04 94       	mov	r4,r2
800054cc:	40 93       	lddsp	r3,sp[0x24]
800054ce:	02 92       	mov	r2,r1
800054d0:	0e 99       	mov	r9,r7
800054d2:	40 41       	lddsp	r1,sp[0x10]
800054d4:	fa f8 06 b4 	ld.w	r8,sp[1716]
800054d8:	40 3c       	lddsp	r12,sp[0xc]
800054da:	58 0c       	cp.w	r12,0
800054dc:	c1 d0       	breq	80005516 <_vfprintf_r+0x4a6>
800054de:	10 36       	cp.w	r6,r8
800054e0:	c0 64       	brge	800054ec <_vfprintf_r+0x47c>
800054e2:	fa cb f9 44 	sub	r11,sp,-1724
800054e6:	f6 06 00 36 	add	r6,r11,r6<<0x3
800054ea:	c1 d8       	rjmp	80005524 <_vfprintf_r+0x4b4>
800054ec:	fa c8 f9 50 	sub	r8,sp,-1712
800054f0:	1a d8       	st.w	--sp,r8
800054f2:	fa c8 fa b8 	sub	r8,sp,-1352
800054f6:	1a d8       	st.w	--sp,r8
800054f8:	fa c8 fb b4 	sub	r8,sp,-1100
800054fc:	1a d8       	st.w	--sp,r8
800054fe:	fa c8 f9 40 	sub	r8,sp,-1728
80005502:	fa c9 ff b4 	sub	r9,sp,-76
80005506:	04 9a       	mov	r10,r2
80005508:	0c 9b       	mov	r11,r6
8000550a:	08 9c       	mov	r12,r4
8000550c:	fe b0 fc 1a 	rcall	80004d40 <get_arg>
80005510:	2f dd       	sub	sp,-12
80005512:	19 b8       	ld.ub	r8,r12[0x3]
80005514:	c2 28       	rjmp	80005558 <_vfprintf_r+0x4e8>
80005516:	2f f7       	sub	r7,-1
80005518:	10 39       	cp.w	r9,r8
8000551a:	c0 84       	brge	8000552a <_vfprintf_r+0x4ba>
8000551c:	fa ca f9 44 	sub	r10,sp,-1724
80005520:	f4 06 00 36 	add	r6,r10,r6<<0x3
80005524:	ed 38 fd 8b 	ld.ub	r8,r6[-629]
80005528:	c1 88       	rjmp	80005558 <_vfprintf_r+0x4e8>
8000552a:	41 09       	lddsp	r9,sp[0x40]
8000552c:	59 f8       	cp.w	r8,31
8000552e:	e0 89 00 12 	brgt	80005552 <_vfprintf_r+0x4e2>
80005532:	f2 ca ff fc 	sub	r10,r9,-4
80005536:	51 0a       	stdsp	sp[0x40],r10
80005538:	72 09       	ld.w	r9,r9[0x0]
8000553a:	fa c6 f9 44 	sub	r6,sp,-1724
8000553e:	ec 08 00 3a 	add	r10,r6,r8<<0x3
80005542:	2f f8       	sub	r8,-1
80005544:	f5 49 fd 88 	st.w	r10[-632],r9
80005548:	fb 48 06 b4 	st.w	sp[1716],r8
8000554c:	f1 d9 c0 08 	bfextu	r8,r9,0x0,0x8
80005550:	c0 48       	rjmp	80005558 <_vfprintf_r+0x4e8>
80005552:	13 b8       	ld.ub	r8,r9[0x3]
80005554:	2f c9       	sub	r9,-4
80005556:	51 09       	stdsp	sp[0x40],r9
80005558:	fb 68 06 60 	st.b	sp[1632],r8
8000555c:	30 0e       	mov	lr,0
8000555e:	30 08       	mov	r8,0
80005560:	30 12       	mov	r2,1
80005562:	fb 68 06 bb 	st.b	sp[1723],r8
80005566:	50 2e       	stdsp	sp[0x8],lr
80005568:	e0 8f 08 ad 	bral	800066c2 <_vfprintf_r+0x1652>
8000556c:	50 a7       	stdsp	sp[0x28],r7
8000556e:	50 80       	stdsp	sp[0x20],r0
80005570:	0c 97       	mov	r7,r6
80005572:	04 94       	mov	r4,r2
80005574:	06 96       	mov	r6,r3
80005576:	02 92       	mov	r2,r1
80005578:	40 93       	lddsp	r3,sp[0x24]
8000557a:	10 90       	mov	r0,r8
8000557c:	40 41       	lddsp	r1,sp[0x10]
8000557e:	a5 a5       	sbr	r5,0x4
80005580:	c0 a8       	rjmp	80005594 <_vfprintf_r+0x524>
80005582:	50 a7       	stdsp	sp[0x28],r7
80005584:	50 80       	stdsp	sp[0x20],r0
80005586:	0c 97       	mov	r7,r6
80005588:	04 94       	mov	r4,r2
8000558a:	06 96       	mov	r6,r3
8000558c:	02 92       	mov	r2,r1
8000558e:	40 93       	lddsp	r3,sp[0x24]
80005590:	10 90       	mov	r0,r8
80005592:	40 41       	lddsp	r1,sp[0x10]
80005594:	ed b5 00 05 	bld	r5,0x5
80005598:	c5 11       	brne	8000563a <_vfprintf_r+0x5ca>
8000559a:	fa f8 06 b4 	ld.w	r8,sp[1716]
8000559e:	40 3c       	lddsp	r12,sp[0xc]
800055a0:	58 0c       	cp.w	r12,0
800055a2:	c1 e0       	breq	800055de <_vfprintf_r+0x56e>
800055a4:	10 36       	cp.w	r6,r8
800055a6:	c0 64       	brge	800055b2 <_vfprintf_r+0x542>
800055a8:	fa cb f9 44 	sub	r11,sp,-1724
800055ac:	f6 06 00 36 	add	r6,r11,r6<<0x3
800055b0:	c2 08       	rjmp	800055f0 <_vfprintf_r+0x580>
800055b2:	fa c8 f9 50 	sub	r8,sp,-1712
800055b6:	1a d8       	st.w	--sp,r8
800055b8:	fa c8 fa b8 	sub	r8,sp,-1352
800055bc:	0c 9b       	mov	r11,r6
800055be:	1a d8       	st.w	--sp,r8
800055c0:	fa c8 fb b4 	sub	r8,sp,-1100
800055c4:	1a d8       	st.w	--sp,r8
800055c6:	fa c9 ff b4 	sub	r9,sp,-76
800055ca:	fa c8 f9 40 	sub	r8,sp,-1728
800055ce:	04 9a       	mov	r10,r2
800055d0:	08 9c       	mov	r12,r4
800055d2:	fe b0 fb b7 	rcall	80004d40 <get_arg>
800055d6:	2f dd       	sub	sp,-12
800055d8:	78 1b       	ld.w	r11,r12[0x4]
800055da:	78 09       	ld.w	r9,r12[0x0]
800055dc:	c2 b8       	rjmp	80005632 <_vfprintf_r+0x5c2>
800055de:	ee ca ff ff 	sub	r10,r7,-1
800055e2:	10 37       	cp.w	r7,r8
800055e4:	c0 b4       	brge	800055fa <_vfprintf_r+0x58a>
800055e6:	fa c9 f9 44 	sub	r9,sp,-1724
800055ea:	14 97       	mov	r7,r10
800055ec:	f2 06 00 36 	add	r6,r9,r6<<0x3
800055f0:	ec fb fd 8c 	ld.w	r11,r6[-628]
800055f4:	ec f9 fd 88 	ld.w	r9,r6[-632]
800055f8:	c1 d8       	rjmp	80005632 <_vfprintf_r+0x5c2>
800055fa:	41 09       	lddsp	r9,sp[0x40]
800055fc:	59 f8       	cp.w	r8,31
800055fe:	e0 89 00 14 	brgt	80005626 <_vfprintf_r+0x5b6>
80005602:	f2 cb ff f8 	sub	r11,r9,-8
80005606:	51 0b       	stdsp	sp[0x40],r11
80005608:	fa c6 f9 44 	sub	r6,sp,-1724
8000560c:	72 1b       	ld.w	r11,r9[0x4]
8000560e:	ec 08 00 3c 	add	r12,r6,r8<<0x3
80005612:	72 09       	ld.w	r9,r9[0x0]
80005614:	f9 4b fd 8c 	st.w	r12[-628],r11
80005618:	f9 49 fd 88 	st.w	r12[-632],r9
8000561c:	2f f8       	sub	r8,-1
8000561e:	14 97       	mov	r7,r10
80005620:	fb 48 06 b4 	st.w	sp[1716],r8
80005624:	c0 78       	rjmp	80005632 <_vfprintf_r+0x5c2>
80005626:	f2 c8 ff f8 	sub	r8,r9,-8
8000562a:	72 1b       	ld.w	r11,r9[0x4]
8000562c:	14 97       	mov	r7,r10
8000562e:	51 08       	stdsp	sp[0x40],r8
80005630:	72 09       	ld.w	r9,r9[0x0]
80005632:	16 98       	mov	r8,r11
80005634:	fa e9 00 00 	st.d	sp[0],r8
80005638:	ca e8       	rjmp	80005794 <_vfprintf_r+0x724>
8000563a:	ed b5 00 04 	bld	r5,0x4
8000563e:	c1 71       	brne	8000566c <_vfprintf_r+0x5fc>
80005640:	fa f8 06 b4 	ld.w	r8,sp[1716]
80005644:	40 3e       	lddsp	lr,sp[0xc]
80005646:	58 0e       	cp.w	lr,0
80005648:	c0 80       	breq	80005658 <_vfprintf_r+0x5e8>
8000564a:	10 36       	cp.w	r6,r8
8000564c:	c6 94       	brge	8000571e <_vfprintf_r+0x6ae>
8000564e:	fa cc f9 44 	sub	r12,sp,-1724
80005652:	f8 06 00 36 	add	r6,r12,r6<<0x3
80005656:	c8 28       	rjmp	8000575a <_vfprintf_r+0x6ea>
80005658:	ee ca ff ff 	sub	r10,r7,-1
8000565c:	10 37       	cp.w	r7,r8
8000565e:	e0 84 00 81 	brge	80005760 <_vfprintf_r+0x6f0>
80005662:	fa cb f9 44 	sub	r11,sp,-1724
80005666:	f6 06 00 36 	add	r6,r11,r6<<0x3
8000566a:	c7 78       	rjmp	80005758 <_vfprintf_r+0x6e8>
8000566c:	ed b5 00 06 	bld	r5,0x6
80005670:	c4 b1       	brne	80005706 <_vfprintf_r+0x696>
80005672:	fa f8 06 b4 	ld.w	r8,sp[1716]
80005676:	40 3c       	lddsp	r12,sp[0xc]
80005678:	58 0c       	cp.w	r12,0
8000567a:	c1 d0       	breq	800056b4 <_vfprintf_r+0x644>
8000567c:	10 36       	cp.w	r6,r8
8000567e:	c0 64       	brge	8000568a <_vfprintf_r+0x61a>
80005680:	fa cb f9 44 	sub	r11,sp,-1724
80005684:	f6 06 00 36 	add	r6,r11,r6<<0x3
80005688:	c1 f8       	rjmp	800056c6 <_vfprintf_r+0x656>
8000568a:	fa c8 f9 50 	sub	r8,sp,-1712
8000568e:	1a d8       	st.w	--sp,r8
80005690:	fa c8 fa b8 	sub	r8,sp,-1352
80005694:	1a d8       	st.w	--sp,r8
80005696:	fa c8 fb b4 	sub	r8,sp,-1100
8000569a:	1a d8       	st.w	--sp,r8
8000569c:	fa c8 f9 40 	sub	r8,sp,-1728
800056a0:	fa c9 ff b4 	sub	r9,sp,-76
800056a4:	04 9a       	mov	r10,r2
800056a6:	0c 9b       	mov	r11,r6
800056a8:	08 9c       	mov	r12,r4
800056aa:	fe b0 fb 4b 	rcall	80004d40 <get_arg>
800056ae:	2f dd       	sub	sp,-12
800056b0:	98 18       	ld.sh	r8,r12[0x2]
800056b2:	c2 68       	rjmp	800056fe <_vfprintf_r+0x68e>
800056b4:	ee ca ff ff 	sub	r10,r7,-1
800056b8:	10 37       	cp.w	r7,r8
800056ba:	c0 94       	brge	800056cc <_vfprintf_r+0x65c>
800056bc:	fa c9 f9 44 	sub	r9,sp,-1724
800056c0:	14 97       	mov	r7,r10
800056c2:	f2 06 00 36 	add	r6,r9,r6<<0x3
800056c6:	ed 08 fd 8a 	ld.sh	r8,r6[-630]
800056ca:	c1 a8       	rjmp	800056fe <_vfprintf_r+0x68e>
800056cc:	41 09       	lddsp	r9,sp[0x40]
800056ce:	59 f8       	cp.w	r8,31
800056d0:	e0 89 00 13 	brgt	800056f6 <_vfprintf_r+0x686>
800056d4:	f2 cb ff fc 	sub	r11,r9,-4
800056d8:	51 0b       	stdsp	sp[0x40],r11
800056da:	72 09       	ld.w	r9,r9[0x0]
800056dc:	fa c6 f9 44 	sub	r6,sp,-1724
800056e0:	ec 08 00 3b 	add	r11,r6,r8<<0x3
800056e4:	2f f8       	sub	r8,-1
800056e6:	f7 49 fd 88 	st.w	r11[-632],r9
800056ea:	fb 48 06 b4 	st.w	sp[1716],r8
800056ee:	14 97       	mov	r7,r10
800056f0:	f1 d9 b0 10 	bfexts	r8,r9,0x0,0x10
800056f4:	c0 58       	rjmp	800056fe <_vfprintf_r+0x68e>
800056f6:	92 18       	ld.sh	r8,r9[0x2]
800056f8:	14 97       	mov	r7,r10
800056fa:	2f c9       	sub	r9,-4
800056fc:	51 09       	stdsp	sp[0x40],r9
800056fe:	50 18       	stdsp	sp[0x4],r8
80005700:	bf 58       	asr	r8,0x1f
80005702:	50 08       	stdsp	sp[0x0],r8
80005704:	c4 88       	rjmp	80005794 <_vfprintf_r+0x724>
80005706:	fa f8 06 b4 	ld.w	r8,sp[1716]
8000570a:	40 3c       	lddsp	r12,sp[0xc]
8000570c:	58 0c       	cp.w	r12,0
8000570e:	c1 d0       	breq	80005748 <_vfprintf_r+0x6d8>
80005710:	10 36       	cp.w	r6,r8
80005712:	c0 64       	brge	8000571e <_vfprintf_r+0x6ae>
80005714:	fa cb f9 44 	sub	r11,sp,-1724
80005718:	f6 06 00 36 	add	r6,r11,r6<<0x3
8000571c:	c1 f8       	rjmp	8000575a <_vfprintf_r+0x6ea>
8000571e:	fa c8 f9 50 	sub	r8,sp,-1712
80005722:	1a d8       	st.w	--sp,r8
80005724:	fa c8 fa b8 	sub	r8,sp,-1352
80005728:	0c 9b       	mov	r11,r6
8000572a:	1a d8       	st.w	--sp,r8
8000572c:	fa c8 fb b4 	sub	r8,sp,-1100
80005730:	04 9a       	mov	r10,r2
80005732:	1a d8       	st.w	--sp,r8
80005734:	08 9c       	mov	r12,r4
80005736:	fa c8 f9 40 	sub	r8,sp,-1728
8000573a:	fa c9 ff b4 	sub	r9,sp,-76
8000573e:	fe b0 fb 01 	rcall	80004d40 <get_arg>
80005742:	2f dd       	sub	sp,-12
80005744:	78 0b       	ld.w	r11,r12[0x0]
80005746:	c2 48       	rjmp	8000578e <_vfprintf_r+0x71e>
80005748:	ee ca ff ff 	sub	r10,r7,-1
8000574c:	10 37       	cp.w	r7,r8
8000574e:	c0 94       	brge	80005760 <_vfprintf_r+0x6f0>
80005750:	fa c9 f9 44 	sub	r9,sp,-1724
80005754:	f2 06 00 36 	add	r6,r9,r6<<0x3
80005758:	14 97       	mov	r7,r10
8000575a:	ec fb fd 88 	ld.w	r11,r6[-632]
8000575e:	c1 88       	rjmp	8000578e <_vfprintf_r+0x71e>
80005760:	41 09       	lddsp	r9,sp[0x40]
80005762:	59 f8       	cp.w	r8,31
80005764:	e0 89 00 11 	brgt	80005786 <_vfprintf_r+0x716>
80005768:	f2 cb ff fc 	sub	r11,r9,-4
8000576c:	51 0b       	stdsp	sp[0x40],r11
8000576e:	fa c6 f9 44 	sub	r6,sp,-1724
80005772:	72 0b       	ld.w	r11,r9[0x0]
80005774:	ec 08 00 39 	add	r9,r6,r8<<0x3
80005778:	f3 4b fd 88 	st.w	r9[-632],r11
8000577c:	2f f8       	sub	r8,-1
8000577e:	14 97       	mov	r7,r10
80005780:	fb 48 06 b4 	st.w	sp[1716],r8
80005784:	c0 58       	rjmp	8000578e <_vfprintf_r+0x71e>
80005786:	72 0b       	ld.w	r11,r9[0x0]
80005788:	14 97       	mov	r7,r10
8000578a:	2f c9       	sub	r9,-4
8000578c:	51 09       	stdsp	sp[0x40],r9
8000578e:	50 1b       	stdsp	sp[0x4],r11
80005790:	bf 5b       	asr	r11,0x1f
80005792:	50 0b       	stdsp	sp[0x0],r11
80005794:	fa ea 00 00 	ld.d	r10,sp[0]
80005798:	58 0a       	cp.w	r10,0
8000579a:	5c 2b       	cpc	r11
8000579c:	c0 e4       	brge	800057b8 <_vfprintf_r+0x748>
8000579e:	30 08       	mov	r8,0
800057a0:	fa ea 00 00 	ld.d	r10,sp[0]
800057a4:	30 09       	mov	r9,0
800057a6:	f0 0a 01 0a 	sub	r10,r8,r10
800057aa:	f2 0b 01 4b 	sbc	r11,r9,r11
800057ae:	32 d8       	mov	r8,45
800057b0:	fa eb 00 00 	st.d	sp[0],r10
800057b4:	fb 68 06 bb 	st.b	sp[1723],r8
800057b8:	30 18       	mov	r8,1
800057ba:	e0 8f 06 fa 	bral	800065ae <_vfprintf_r+0x153e>
800057be:	50 a7       	stdsp	sp[0x28],r7
800057c0:	50 80       	stdsp	sp[0x20],r0
800057c2:	0c 97       	mov	r7,r6
800057c4:	04 94       	mov	r4,r2
800057c6:	06 96       	mov	r6,r3
800057c8:	02 92       	mov	r2,r1
800057ca:	40 93       	lddsp	r3,sp[0x24]
800057cc:	10 90       	mov	r0,r8
800057ce:	40 41       	lddsp	r1,sp[0x10]
800057d0:	0e 99       	mov	r9,r7
800057d2:	ed b5 00 03 	bld	r5,0x3
800057d6:	c4 11       	brne	80005858 <_vfprintf_r+0x7e8>
800057d8:	fa f8 06 b4 	ld.w	r8,sp[1716]
800057dc:	40 3a       	lddsp	r10,sp[0xc]
800057de:	58 0a       	cp.w	r10,0
800057e0:	c1 90       	breq	80005812 <_vfprintf_r+0x7a2>
800057e2:	10 36       	cp.w	r6,r8
800057e4:	c6 45       	brlt	800058ac <_vfprintf_r+0x83c>
800057e6:	fa c8 f9 50 	sub	r8,sp,-1712
800057ea:	1a d8       	st.w	--sp,r8
800057ec:	fa c8 fa b8 	sub	r8,sp,-1352
800057f0:	1a d8       	st.w	--sp,r8
800057f2:	fa c8 fb b4 	sub	r8,sp,-1100
800057f6:	0c 9b       	mov	r11,r6
800057f8:	1a d8       	st.w	--sp,r8
800057fa:	04 9a       	mov	r10,r2
800057fc:	fa c8 f9 40 	sub	r8,sp,-1728
80005800:	fa c9 ff b4 	sub	r9,sp,-76
80005804:	08 9c       	mov	r12,r4
80005806:	fe b0 fa 9d 	rcall	80004d40 <get_arg>
8000580a:	2f dd       	sub	sp,-12
8000580c:	78 16       	ld.w	r6,r12[0x4]
8000580e:	50 76       	stdsp	sp[0x1c],r6
80005810:	c4 88       	rjmp	800058a0 <_vfprintf_r+0x830>
80005812:	2f f7       	sub	r7,-1
80005814:	10 39       	cp.w	r9,r8
80005816:	c0 c4       	brge	8000582e <_vfprintf_r+0x7be>
80005818:	fa ce f9 44 	sub	lr,sp,-1724
8000581c:	fc 06 00 36 	add	r6,lr,r6<<0x3
80005820:	ec fc fd 8c 	ld.w	r12,r6[-628]
80005824:	50 7c       	stdsp	sp[0x1c],r12
80005826:	ec f6 fd 88 	ld.w	r6,r6[-632]
8000582a:	50 56       	stdsp	sp[0x14],r6
8000582c:	c6 68       	rjmp	800058f8 <_vfprintf_r+0x888>
8000582e:	41 09       	lddsp	r9,sp[0x40]
80005830:	59 f8       	cp.w	r8,31
80005832:	e0 89 00 10 	brgt	80005852 <_vfprintf_r+0x7e2>
80005836:	f2 ca ff f8 	sub	r10,r9,-8
8000583a:	72 1b       	ld.w	r11,r9[0x4]
8000583c:	51 0a       	stdsp	sp[0x40],r10
8000583e:	72 09       	ld.w	r9,r9[0x0]
80005840:	fa ca f9 44 	sub	r10,sp,-1724
80005844:	50 7b       	stdsp	sp[0x1c],r11
80005846:	50 59       	stdsp	sp[0x14],r9
80005848:	f4 08 00 39 	add	r9,r10,r8<<0x3
8000584c:	40 5b       	lddsp	r11,sp[0x14]
8000584e:	40 7a       	lddsp	r10,sp[0x1c]
80005850:	c4 78       	rjmp	800058de <_vfprintf_r+0x86e>
80005852:	72 18       	ld.w	r8,r9[0x4]
80005854:	50 78       	stdsp	sp[0x1c],r8
80005856:	c4 c8       	rjmp	800058ee <_vfprintf_r+0x87e>
80005858:	fa f8 06 b4 	ld.w	r8,sp[1716]
8000585c:	40 3e       	lddsp	lr,sp[0xc]
8000585e:	58 0e       	cp.w	lr,0
80005860:	c2 30       	breq	800058a6 <_vfprintf_r+0x836>
80005862:	10 36       	cp.w	r6,r8
80005864:	c0 94       	brge	80005876 <_vfprintf_r+0x806>
80005866:	fa cc f9 44 	sub	r12,sp,-1724
8000586a:	f8 06 00 36 	add	r6,r12,r6<<0x3
8000586e:	ec fb fd 8c 	ld.w	r11,r6[-628]
80005872:	50 7b       	stdsp	sp[0x1c],r11
80005874:	cd 9b       	rjmp	80005826 <_vfprintf_r+0x7b6>
80005876:	fa c8 f9 50 	sub	r8,sp,-1712
8000587a:	1a d8       	st.w	--sp,r8
8000587c:	fa c8 fa b8 	sub	r8,sp,-1352
80005880:	04 9a       	mov	r10,r2
80005882:	1a d8       	st.w	--sp,r8
80005884:	fa c8 fb b4 	sub	r8,sp,-1100
80005888:	0c 9b       	mov	r11,r6
8000588a:	1a d8       	st.w	--sp,r8
8000588c:	08 9c       	mov	r12,r4
8000588e:	fa c8 f9 40 	sub	r8,sp,-1728
80005892:	fa c9 ff b4 	sub	r9,sp,-76
80005896:	fe b0 fa 55 	rcall	80004d40 <get_arg>
8000589a:	2f dd       	sub	sp,-12
8000589c:	78 1a       	ld.w	r10,r12[0x4]
8000589e:	50 7a       	stdsp	sp[0x1c],r10
800058a0:	78 0c       	ld.w	r12,r12[0x0]
800058a2:	50 5c       	stdsp	sp[0x14],r12
800058a4:	c2 a8       	rjmp	800058f8 <_vfprintf_r+0x888>
800058a6:	2f f7       	sub	r7,-1
800058a8:	10 39       	cp.w	r9,r8
800058aa:	c0 94       	brge	800058bc <_vfprintf_r+0x84c>
800058ac:	fa c9 f9 44 	sub	r9,sp,-1724
800058b0:	f2 06 00 36 	add	r6,r9,r6<<0x3
800058b4:	ec f8 fd 8c 	ld.w	r8,r6[-628]
800058b8:	50 78       	stdsp	sp[0x1c],r8
800058ba:	cb 6b       	rjmp	80005826 <_vfprintf_r+0x7b6>
800058bc:	41 09       	lddsp	r9,sp[0x40]
800058be:	59 f8       	cp.w	r8,31
800058c0:	e0 89 00 15 	brgt	800058ea <_vfprintf_r+0x87a>
800058c4:	f2 ca ff f8 	sub	r10,r9,-8
800058c8:	72 16       	ld.w	r6,r9[0x4]
800058ca:	72 09       	ld.w	r9,r9[0x0]
800058cc:	51 0a       	stdsp	sp[0x40],r10
800058ce:	50 59       	stdsp	sp[0x14],r9
800058d0:	fa ce f9 44 	sub	lr,sp,-1724
800058d4:	50 76       	stdsp	sp[0x1c],r6
800058d6:	fc 08 00 39 	add	r9,lr,r8<<0x3
800058da:	40 5b       	lddsp	r11,sp[0x14]
800058dc:	0c 9a       	mov	r10,r6
800058de:	f2 eb fd 88 	st.d	r9[-632],r10
800058e2:	2f f8       	sub	r8,-1
800058e4:	fb 48 06 b4 	st.w	sp[1716],r8
800058e8:	c0 88       	rjmp	800058f8 <_vfprintf_r+0x888>
800058ea:	72 1c       	ld.w	r12,r9[0x4]
800058ec:	50 7c       	stdsp	sp[0x1c],r12
800058ee:	f2 c8 ff f8 	sub	r8,r9,-8
800058f2:	51 08       	stdsp	sp[0x40],r8
800058f4:	72 09       	ld.w	r9,r9[0x0]
800058f6:	50 59       	stdsp	sp[0x14],r9
800058f8:	40 5b       	lddsp	r11,sp[0x14]
800058fa:	40 7a       	lddsp	r10,sp[0x1c]
800058fc:	e0 a0 1a 0c 	rcall	80008d14 <__isinfd>
80005900:	18 96       	mov	r6,r12
80005902:	c1 70       	breq	80005930 <_vfprintf_r+0x8c0>
80005904:	30 08       	mov	r8,0
80005906:	30 09       	mov	r9,0
80005908:	40 5b       	lddsp	r11,sp[0x14]
8000590a:	40 7a       	lddsp	r10,sp[0x1c]
8000590c:	fe b0 f3 57 	rcall	80003fba <__avr32_f64_cmp_lt>
80005910:	c0 40       	breq	80005918 <_vfprintf_r+0x8a8>
80005912:	32 d8       	mov	r8,45
80005914:	fb 68 06 bb 	st.b	sp[1723],r8
80005918:	fe c8 bb 9c 	sub	r8,pc,-17508
8000591c:	fe c6 bb 9c 	sub	r6,pc,-17508
80005920:	a7 d5       	cbr	r5,0x7
80005922:	e0 40 00 47 	cp.w	r0,71
80005926:	f0 06 17 a0 	movle	r6,r8
8000592a:	30 32       	mov	r2,3
8000592c:	e0 8f 06 ce 	bral	800066c8 <_vfprintf_r+0x1658>
80005930:	40 5b       	lddsp	r11,sp[0x14]
80005932:	40 7a       	lddsp	r10,sp[0x1c]
80005934:	e0 a0 1a 05 	rcall	80008d3e <__isnand>
80005938:	c0 e0       	breq	80005954 <_vfprintf_r+0x8e4>
8000593a:	50 26       	stdsp	sp[0x8],r6
8000593c:	fe c8 bb b8 	sub	r8,pc,-17480
80005940:	fe c6 bb b8 	sub	r6,pc,-17480
80005944:	a7 d5       	cbr	r5,0x7
80005946:	e0 40 00 47 	cp.w	r0,71
8000594a:	f0 06 17 a0 	movle	r6,r8
8000594e:	30 32       	mov	r2,3
80005950:	e0 8f 06 c2 	bral	800066d4 <_vfprintf_r+0x1664>
80005954:	40 2a       	lddsp	r10,sp[0x8]
80005956:	5b fa       	cp.w	r10,-1
80005958:	c0 41       	brne	80005960 <_vfprintf_r+0x8f0>
8000595a:	30 69       	mov	r9,6
8000595c:	50 29       	stdsp	sp[0x8],r9
8000595e:	c1 18       	rjmp	80005980 <_vfprintf_r+0x910>
80005960:	e0 40 00 47 	cp.w	r0,71
80005964:	5f 09       	sreq	r9
80005966:	e0 40 00 67 	cp.w	r0,103
8000596a:	5f 08       	sreq	r8
8000596c:	f3 e8 10 08 	or	r8,r9,r8
80005970:	f8 08 18 00 	cp.b	r8,r12
80005974:	c0 60       	breq	80005980 <_vfprintf_r+0x910>
80005976:	40 28       	lddsp	r8,sp[0x8]
80005978:	58 08       	cp.w	r8,0
8000597a:	f9 b8 00 01 	moveq	r8,1
8000597e:	50 28       	stdsp	sp[0x8],r8
80005980:	40 78       	lddsp	r8,sp[0x1c]
80005982:	40 59       	lddsp	r9,sp[0x14]
80005984:	fa e9 06 94 	st.d	sp[1684],r8
80005988:	a9 a5       	sbr	r5,0x8
8000598a:	fa f8 06 94 	ld.w	r8,sp[1684]
8000598e:	58 08       	cp.w	r8,0
80005990:	c0 65       	brlt	8000599c <_vfprintf_r+0x92c>
80005992:	40 5e       	lddsp	lr,sp[0x14]
80005994:	30 0c       	mov	r12,0
80005996:	50 6e       	stdsp	sp[0x18],lr
80005998:	50 9c       	stdsp	sp[0x24],r12
8000599a:	c0 78       	rjmp	800059a8 <_vfprintf_r+0x938>
8000599c:	40 5b       	lddsp	r11,sp[0x14]
8000599e:	32 da       	mov	r10,45
800059a0:	ee 1b 80 00 	eorh	r11,0x8000
800059a4:	50 9a       	stdsp	sp[0x24],r10
800059a6:	50 6b       	stdsp	sp[0x18],r11
800059a8:	e0 40 00 46 	cp.w	r0,70
800059ac:	5f 09       	sreq	r9
800059ae:	e0 40 00 66 	cp.w	r0,102
800059b2:	5f 08       	sreq	r8
800059b4:	f3 e8 10 08 	or	r8,r9,r8
800059b8:	50 48       	stdsp	sp[0x10],r8
800059ba:	c0 40       	breq	800059c2 <_vfprintf_r+0x952>
800059bc:	40 22       	lddsp	r2,sp[0x8]
800059be:	30 39       	mov	r9,3
800059c0:	c1 08       	rjmp	800059e0 <_vfprintf_r+0x970>
800059c2:	e0 40 00 45 	cp.w	r0,69
800059c6:	5f 09       	sreq	r9
800059c8:	e0 40 00 65 	cp.w	r0,101
800059cc:	5f 08       	sreq	r8
800059ce:	40 22       	lddsp	r2,sp[0x8]
800059d0:	10 49       	or	r9,r8
800059d2:	2f f2       	sub	r2,-1
800059d4:	40 46       	lddsp	r6,sp[0x10]
800059d6:	ec 09 18 00 	cp.b	r9,r6
800059da:	fb f2 00 02 	ld.weq	r2,sp[0x8]
800059de:	30 29       	mov	r9,2
800059e0:	fa c8 f9 5c 	sub	r8,sp,-1700
800059e4:	1a d8       	st.w	--sp,r8
800059e6:	fa c8 f9 54 	sub	r8,sp,-1708
800059ea:	1a d8       	st.w	--sp,r8
800059ec:	fa c8 f9 4c 	sub	r8,sp,-1716
800059f0:	08 9c       	mov	r12,r4
800059f2:	1a d8       	st.w	--sp,r8
800059f4:	04 98       	mov	r8,r2
800059f6:	40 9b       	lddsp	r11,sp[0x24]
800059f8:	40 aa       	lddsp	r10,sp[0x28]
800059fa:	e0 a0 0c 7b 	rcall	800072f0 <_dtoa_r>
800059fe:	e0 40 00 47 	cp.w	r0,71
80005a02:	5f 19       	srne	r9
80005a04:	e0 40 00 67 	cp.w	r0,103
80005a08:	5f 18       	srne	r8
80005a0a:	18 96       	mov	r6,r12
80005a0c:	2f dd       	sub	sp,-12
80005a0e:	f3 e8 00 08 	and	r8,r9,r8
80005a12:	c0 41       	brne	80005a1a <_vfprintf_r+0x9aa>
80005a14:	ed b5 00 00 	bld	r5,0x0
80005a18:	c3 01       	brne	80005a78 <_vfprintf_r+0xa08>
80005a1a:	ec 02 00 0e 	add	lr,r6,r2
80005a1e:	50 3e       	stdsp	sp[0xc],lr
80005a20:	40 4c       	lddsp	r12,sp[0x10]
80005a22:	58 0c       	cp.w	r12,0
80005a24:	c1 50       	breq	80005a4e <_vfprintf_r+0x9de>
80005a26:	0d 89       	ld.ub	r9,r6[0x0]
80005a28:	33 08       	mov	r8,48
80005a2a:	f0 09 18 00 	cp.b	r9,r8
80005a2e:	c0 b1       	brne	80005a44 <_vfprintf_r+0x9d4>
80005a30:	30 08       	mov	r8,0
80005a32:	30 09       	mov	r9,0
80005a34:	40 6b       	lddsp	r11,sp[0x18]
80005a36:	40 7a       	lddsp	r10,sp[0x1c]
80005a38:	e0 a0 1a c4 	rcall	80008fc0 <__avr32_f64_cmp_eq>
80005a3c:	fb b2 00 01 	rsubeq	r2,1
80005a40:	fb f2 0b ab 	st.weq	sp[0x6ac],r2
80005a44:	40 3b       	lddsp	r11,sp[0xc]
80005a46:	fa f8 06 ac 	ld.w	r8,sp[1708]
80005a4a:	10 0b       	add	r11,r8
80005a4c:	50 3b       	stdsp	sp[0xc],r11
80005a4e:	40 6b       	lddsp	r11,sp[0x18]
80005a50:	30 08       	mov	r8,0
80005a52:	30 09       	mov	r9,0
80005a54:	40 7a       	lddsp	r10,sp[0x1c]
80005a56:	e0 a0 1a b5 	rcall	80008fc0 <__avr32_f64_cmp_eq>
80005a5a:	c0 90       	breq	80005a6c <_vfprintf_r+0x9fc>
80005a5c:	40 3a       	lddsp	r10,sp[0xc]
80005a5e:	fb 4a 06 a4 	st.w	sp[1700],r10
80005a62:	c0 58       	rjmp	80005a6c <_vfprintf_r+0x9fc>
80005a64:	10 c9       	st.b	r8++,r9
80005a66:	fb 48 06 a4 	st.w	sp[1700],r8
80005a6a:	c0 28       	rjmp	80005a6e <_vfprintf_r+0x9fe>
80005a6c:	33 09       	mov	r9,48
80005a6e:	fa f8 06 a4 	ld.w	r8,sp[1700]
80005a72:	40 3e       	lddsp	lr,sp[0xc]
80005a74:	1c 38       	cp.w	r8,lr
80005a76:	cf 73       	brcs	80005a64 <_vfprintf_r+0x9f4>
80005a78:	e0 40 00 47 	cp.w	r0,71
80005a7c:	5f 09       	sreq	r9
80005a7e:	e0 40 00 67 	cp.w	r0,103
80005a82:	5f 08       	sreq	r8
80005a84:	f3 e8 10 08 	or	r8,r9,r8
80005a88:	fa f9 06 a4 	ld.w	r9,sp[1700]
80005a8c:	0c 19       	sub	r9,r6
80005a8e:	50 69       	stdsp	sp[0x18],r9
80005a90:	58 08       	cp.w	r8,0
80005a92:	c0 b0       	breq	80005aa8 <_vfprintf_r+0xa38>
80005a94:	fa f8 06 ac 	ld.w	r8,sp[1708]
80005a98:	5b d8       	cp.w	r8,-3
80005a9a:	c0 55       	brlt	80005aa4 <_vfprintf_r+0xa34>
80005a9c:	40 2c       	lddsp	r12,sp[0x8]
80005a9e:	18 38       	cp.w	r8,r12
80005aa0:	e0 8a 00 6a 	brle	80005b74 <_vfprintf_r+0xb04>
80005aa4:	20 20       	sub	r0,2
80005aa6:	c0 58       	rjmp	80005ab0 <_vfprintf_r+0xa40>
80005aa8:	e0 40 00 65 	cp.w	r0,101
80005aac:	e0 89 00 46 	brgt	80005b38 <_vfprintf_r+0xac8>
80005ab0:	fa fb 06 ac 	ld.w	r11,sp[1708]
80005ab4:	fb 60 06 9c 	st.b	sp[1692],r0
80005ab8:	20 1b       	sub	r11,1
80005aba:	fb 4b 06 ac 	st.w	sp[1708],r11
80005abe:	c0 47       	brpl	80005ac6 <_vfprintf_r+0xa56>
80005ac0:	5c 3b       	neg	r11
80005ac2:	32 d8       	mov	r8,45
80005ac4:	c0 28       	rjmp	80005ac8 <_vfprintf_r+0xa58>
80005ac6:	32 b8       	mov	r8,43
80005ac8:	fb 68 06 9d 	st.b	sp[1693],r8
80005acc:	58 9b       	cp.w	r11,9
80005ace:	e0 8a 00 1d 	brle	80005b08 <_vfprintf_r+0xa98>
80005ad2:	fa c9 fa 35 	sub	r9,sp,-1483
80005ad6:	30 aa       	mov	r10,10
80005ad8:	12 98       	mov	r8,r9
80005ada:	0e 9c       	mov	r12,r7
80005adc:	0c 92       	mov	r2,r6
80005ade:	f6 0a 0c 06 	divs	r6,r11,r10
80005ae2:	0e 9b       	mov	r11,r7
80005ae4:	2d 0b       	sub	r11,-48
80005ae6:	10 fb       	st.b	--r8,r11
80005ae8:	0c 9b       	mov	r11,r6
80005aea:	58 96       	cp.w	r6,9
80005aec:	fe 99 ff f9 	brgt	80005ade <_vfprintf_r+0xa6e>
80005af0:	2d 0b       	sub	r11,-48
80005af2:	18 97       	mov	r7,r12
80005af4:	04 96       	mov	r6,r2
80005af6:	10 fb       	st.b	--r8,r11
80005af8:	fa ca f9 62 	sub	r10,sp,-1694
80005afc:	c0 38       	rjmp	80005b02 <_vfprintf_r+0xa92>
80005afe:	11 3b       	ld.ub	r11,r8++
80005b00:	14 cb       	st.b	r10++,r11
80005b02:	12 38       	cp.w	r8,r9
80005b04:	cf d3       	brcs	80005afe <_vfprintf_r+0xa8e>
80005b06:	c0 98       	rjmp	80005b18 <_vfprintf_r+0xaa8>
80005b08:	2d 0b       	sub	r11,-48
80005b0a:	33 08       	mov	r8,48
80005b0c:	fb 6b 06 9f 	st.b	sp[1695],r11
80005b10:	fb 68 06 9e 	st.b	sp[1694],r8
80005b14:	fa ca f9 60 	sub	r10,sp,-1696
80005b18:	fa c8 f9 64 	sub	r8,sp,-1692
80005b1c:	f4 08 01 08 	sub	r8,r10,r8
80005b20:	50 e8       	stdsp	sp[0x38],r8
80005b22:	10 92       	mov	r2,r8
80005b24:	40 6b       	lddsp	r11,sp[0x18]
80005b26:	16 02       	add	r2,r11
80005b28:	58 1b       	cp.w	r11,1
80005b2a:	e0 89 00 05 	brgt	80005b34 <_vfprintf_r+0xac4>
80005b2e:	ed b5 00 00 	bld	r5,0x0
80005b32:	c3 51       	brne	80005b9c <_vfprintf_r+0xb2c>
80005b34:	2f f2       	sub	r2,-1
80005b36:	c3 38       	rjmp	80005b9c <_vfprintf_r+0xb2c>
80005b38:	e0 40 00 66 	cp.w	r0,102
80005b3c:	c1 c1       	brne	80005b74 <_vfprintf_r+0xb04>
80005b3e:	fa f2 06 ac 	ld.w	r2,sp[1708]
80005b42:	58 02       	cp.w	r2,0
80005b44:	e0 8a 00 0c 	brle	80005b5c <_vfprintf_r+0xaec>
80005b48:	40 2a       	lddsp	r10,sp[0x8]
80005b4a:	58 0a       	cp.w	r10,0
80005b4c:	c0 41       	brne	80005b54 <_vfprintf_r+0xae4>
80005b4e:	ed b5 00 00 	bld	r5,0x0
80005b52:	c2 51       	brne	80005b9c <_vfprintf_r+0xb2c>
80005b54:	2f f2       	sub	r2,-1
80005b56:	40 29       	lddsp	r9,sp[0x8]
80005b58:	12 02       	add	r2,r9
80005b5a:	c0 b8       	rjmp	80005b70 <_vfprintf_r+0xb00>
80005b5c:	40 28       	lddsp	r8,sp[0x8]
80005b5e:	58 08       	cp.w	r8,0
80005b60:	c0 61       	brne	80005b6c <_vfprintf_r+0xafc>
80005b62:	ed b5 00 00 	bld	r5,0x0
80005b66:	c0 30       	breq	80005b6c <_vfprintf_r+0xafc>
80005b68:	30 12       	mov	r2,1
80005b6a:	c1 98       	rjmp	80005b9c <_vfprintf_r+0xb2c>
80005b6c:	40 22       	lddsp	r2,sp[0x8]
80005b6e:	2f e2       	sub	r2,-2
80005b70:	36 60       	mov	r0,102
80005b72:	c1 58       	rjmp	80005b9c <_vfprintf_r+0xb2c>
80005b74:	fa f2 06 ac 	ld.w	r2,sp[1708]
80005b78:	40 6e       	lddsp	lr,sp[0x18]
80005b7a:	1c 32       	cp.w	r2,lr
80005b7c:	c0 65       	brlt	80005b88 <_vfprintf_r+0xb18>
80005b7e:	ed b5 00 00 	bld	r5,0x0
80005b82:	f7 b2 00 ff 	subeq	r2,-1
80005b86:	c0 a8       	rjmp	80005b9a <_vfprintf_r+0xb2a>
80005b88:	e4 08 11 02 	rsub	r8,r2,2
80005b8c:	40 6c       	lddsp	r12,sp[0x18]
80005b8e:	58 02       	cp.w	r2,0
80005b90:	f0 02 17 a0 	movle	r2,r8
80005b94:	f9 b2 09 01 	movgt	r2,1
80005b98:	18 02       	add	r2,r12
80005b9a:	36 70       	mov	r0,103
80005b9c:	40 9b       	lddsp	r11,sp[0x24]
80005b9e:	58 0b       	cp.w	r11,0
80005ba0:	e0 80 05 94 	breq	800066c8 <_vfprintf_r+0x1658>
80005ba4:	32 d8       	mov	r8,45
80005ba6:	fb 68 06 bb 	st.b	sp[1723],r8
80005baa:	e0 8f 05 93 	bral	800066d0 <_vfprintf_r+0x1660>
80005bae:	50 a7       	stdsp	sp[0x28],r7
80005bb0:	04 94       	mov	r4,r2
80005bb2:	0c 97       	mov	r7,r6
80005bb4:	02 92       	mov	r2,r1
80005bb6:	06 96       	mov	r6,r3
80005bb8:	40 41       	lddsp	r1,sp[0x10]
80005bba:	40 93       	lddsp	r3,sp[0x24]
80005bbc:	0e 99       	mov	r9,r7
80005bbe:	ed b5 00 05 	bld	r5,0x5
80005bc2:	c4 81       	brne	80005c52 <_vfprintf_r+0xbe2>
80005bc4:	fa f8 06 b4 	ld.w	r8,sp[1716]
80005bc8:	40 3e       	lddsp	lr,sp[0xc]
80005bca:	58 0e       	cp.w	lr,0
80005bcc:	c1 d0       	breq	80005c06 <_vfprintf_r+0xb96>
80005bce:	10 36       	cp.w	r6,r8
80005bd0:	c0 64       	brge	80005bdc <_vfprintf_r+0xb6c>
80005bd2:	fa cc f9 44 	sub	r12,sp,-1724
80005bd6:	f8 06 00 36 	add	r6,r12,r6<<0x3
80005bda:	c1 d8       	rjmp	80005c14 <_vfprintf_r+0xba4>
80005bdc:	fa c8 f9 50 	sub	r8,sp,-1712
80005be0:	1a d8       	st.w	--sp,r8
80005be2:	fa c8 fa b8 	sub	r8,sp,-1352
80005be6:	04 9a       	mov	r10,r2
80005be8:	1a d8       	st.w	--sp,r8
80005bea:	fa c8 fb b4 	sub	r8,sp,-1100
80005bee:	0c 9b       	mov	r11,r6
80005bf0:	1a d8       	st.w	--sp,r8
80005bf2:	08 9c       	mov	r12,r4
80005bf4:	fa c8 f9 40 	sub	r8,sp,-1728
80005bf8:	fa c9 ff b4 	sub	r9,sp,-76
80005bfc:	fe b0 f8 a2 	rcall	80004d40 <get_arg>
80005c00:	2f dd       	sub	sp,-12
80005c02:	78 0a       	ld.w	r10,r12[0x0]
80005c04:	c2 08       	rjmp	80005c44 <_vfprintf_r+0xbd4>
80005c06:	2f f7       	sub	r7,-1
80005c08:	10 39       	cp.w	r9,r8
80005c0a:	c0 84       	brge	80005c1a <_vfprintf_r+0xbaa>
80005c0c:	fa cb f9 44 	sub	r11,sp,-1724
80005c10:	f6 06 00 36 	add	r6,r11,r6<<0x3
80005c14:	ec fa fd 88 	ld.w	r10,r6[-632]
80005c18:	c1 68       	rjmp	80005c44 <_vfprintf_r+0xbd4>
80005c1a:	41 09       	lddsp	r9,sp[0x40]
80005c1c:	59 f8       	cp.w	r8,31
80005c1e:	e0 89 00 10 	brgt	80005c3e <_vfprintf_r+0xbce>
80005c22:	f2 ca ff fc 	sub	r10,r9,-4
80005c26:	51 0a       	stdsp	sp[0x40],r10
80005c28:	fa c6 f9 44 	sub	r6,sp,-1724
80005c2c:	72 0a       	ld.w	r10,r9[0x0]
80005c2e:	ec 08 00 39 	add	r9,r6,r8<<0x3
80005c32:	f3 4a fd 88 	st.w	r9[-632],r10
80005c36:	2f f8       	sub	r8,-1
80005c38:	fb 48 06 b4 	st.w	sp[1716],r8
80005c3c:	c0 48       	rjmp	80005c44 <_vfprintf_r+0xbd4>
80005c3e:	72 0a       	ld.w	r10,r9[0x0]
80005c40:	2f c9       	sub	r9,-4
80005c42:	51 09       	stdsp	sp[0x40],r9
80005c44:	40 be       	lddsp	lr,sp[0x2c]
80005c46:	1c 98       	mov	r8,lr
80005c48:	95 1e       	st.w	r10[0x4],lr
80005c4a:	bf 58       	asr	r8,0x1f
80005c4c:	95 08       	st.w	r10[0x0],r8
80005c4e:	fe 9f fa 9f 	bral	8000518c <_vfprintf_r+0x11c>
80005c52:	ed b5 00 04 	bld	r5,0x4
80005c56:	c4 80       	breq	80005ce6 <_vfprintf_r+0xc76>
80005c58:	e2 15 00 40 	andl	r5,0x40,COH
80005c5c:	c4 50       	breq	80005ce6 <_vfprintf_r+0xc76>
80005c5e:	fa f8 06 b4 	ld.w	r8,sp[1716]
80005c62:	40 3c       	lddsp	r12,sp[0xc]
80005c64:	58 0c       	cp.w	r12,0
80005c66:	c1 d0       	breq	80005ca0 <_vfprintf_r+0xc30>
80005c68:	10 36       	cp.w	r6,r8
80005c6a:	c0 64       	brge	80005c76 <_vfprintf_r+0xc06>
80005c6c:	fa cb f9 44 	sub	r11,sp,-1724
80005c70:	f6 06 00 36 	add	r6,r11,r6<<0x3
80005c74:	c1 d8       	rjmp	80005cae <_vfprintf_r+0xc3e>
80005c76:	fa c8 f9 50 	sub	r8,sp,-1712
80005c7a:	1a d8       	st.w	--sp,r8
80005c7c:	fa c8 fa b8 	sub	r8,sp,-1352
80005c80:	04 9a       	mov	r10,r2
80005c82:	1a d8       	st.w	--sp,r8
80005c84:	fa c8 fb b4 	sub	r8,sp,-1100
80005c88:	0c 9b       	mov	r11,r6
80005c8a:	1a d8       	st.w	--sp,r8
80005c8c:	08 9c       	mov	r12,r4
80005c8e:	fa c8 f9 40 	sub	r8,sp,-1728
80005c92:	fa c9 ff b4 	sub	r9,sp,-76
80005c96:	fe b0 f8 55 	rcall	80004d40 <get_arg>
80005c9a:	2f dd       	sub	sp,-12
80005c9c:	78 0a       	ld.w	r10,r12[0x0]
80005c9e:	c2 08       	rjmp	80005cde <_vfprintf_r+0xc6e>
80005ca0:	2f f7       	sub	r7,-1
80005ca2:	10 39       	cp.w	r9,r8
80005ca4:	c0 84       	brge	80005cb4 <_vfprintf_r+0xc44>
80005ca6:	fa ca f9 44 	sub	r10,sp,-1724
80005caa:	f4 06 00 36 	add	r6,r10,r6<<0x3
80005cae:	ec fa fd 88 	ld.w	r10,r6[-632]
80005cb2:	c1 68       	rjmp	80005cde <_vfprintf_r+0xc6e>
80005cb4:	41 09       	lddsp	r9,sp[0x40]
80005cb6:	59 f8       	cp.w	r8,31
80005cb8:	e0 89 00 10 	brgt	80005cd8 <_vfprintf_r+0xc68>
80005cbc:	f2 ca ff fc 	sub	r10,r9,-4
80005cc0:	51 0a       	stdsp	sp[0x40],r10
80005cc2:	fa c6 f9 44 	sub	r6,sp,-1724
80005cc6:	72 0a       	ld.w	r10,r9[0x0]
80005cc8:	ec 08 00 39 	add	r9,r6,r8<<0x3
80005ccc:	f3 4a fd 88 	st.w	r9[-632],r10
80005cd0:	2f f8       	sub	r8,-1
80005cd2:	fb 48 06 b4 	st.w	sp[1716],r8
80005cd6:	c0 48       	rjmp	80005cde <_vfprintf_r+0xc6e>
80005cd8:	72 0a       	ld.w	r10,r9[0x0]
80005cda:	2f c9       	sub	r9,-4
80005cdc:	51 09       	stdsp	sp[0x40],r9
80005cde:	40 be       	lddsp	lr,sp[0x2c]
80005ce0:	b4 0e       	st.h	r10[0x0],lr
80005ce2:	fe 9f fa 55 	bral	8000518c <_vfprintf_r+0x11c>
80005ce6:	fa f8 06 b4 	ld.w	r8,sp[1716]
80005cea:	40 3c       	lddsp	r12,sp[0xc]
80005cec:	58 0c       	cp.w	r12,0
80005cee:	c1 d0       	breq	80005d28 <_vfprintf_r+0xcb8>
80005cf0:	10 36       	cp.w	r6,r8
80005cf2:	c0 64       	brge	80005cfe <_vfprintf_r+0xc8e>
80005cf4:	fa cb f9 44 	sub	r11,sp,-1724
80005cf8:	f6 06 00 36 	add	r6,r11,r6<<0x3
80005cfc:	c1 d8       	rjmp	80005d36 <_vfprintf_r+0xcc6>
80005cfe:	fa c8 f9 50 	sub	r8,sp,-1712
80005d02:	1a d8       	st.w	--sp,r8
80005d04:	fa c8 fa b8 	sub	r8,sp,-1352
80005d08:	04 9a       	mov	r10,r2
80005d0a:	1a d8       	st.w	--sp,r8
80005d0c:	fa c8 fb b4 	sub	r8,sp,-1100
80005d10:	0c 9b       	mov	r11,r6
80005d12:	1a d8       	st.w	--sp,r8
80005d14:	08 9c       	mov	r12,r4
80005d16:	fa c8 f9 40 	sub	r8,sp,-1728
80005d1a:	fa c9 ff b4 	sub	r9,sp,-76
80005d1e:	fe b0 f8 11 	rcall	80004d40 <get_arg>
80005d22:	2f dd       	sub	sp,-12
80005d24:	78 0a       	ld.w	r10,r12[0x0]
80005d26:	c2 08       	rjmp	80005d66 <_vfprintf_r+0xcf6>
80005d28:	2f f7       	sub	r7,-1
80005d2a:	10 39       	cp.w	r9,r8
80005d2c:	c0 84       	brge	80005d3c <_vfprintf_r+0xccc>
80005d2e:	fa ca f9 44 	sub	r10,sp,-1724
80005d32:	f4 06 00 36 	add	r6,r10,r6<<0x3
80005d36:	ec fa fd 88 	ld.w	r10,r6[-632]
80005d3a:	c1 68       	rjmp	80005d66 <_vfprintf_r+0xcf6>
80005d3c:	41 09       	lddsp	r9,sp[0x40]
80005d3e:	59 f8       	cp.w	r8,31
80005d40:	e0 89 00 10 	brgt	80005d60 <_vfprintf_r+0xcf0>
80005d44:	f2 ca ff fc 	sub	r10,r9,-4
80005d48:	51 0a       	stdsp	sp[0x40],r10
80005d4a:	fa c6 f9 44 	sub	r6,sp,-1724
80005d4e:	72 0a       	ld.w	r10,r9[0x0]
80005d50:	ec 08 00 39 	add	r9,r6,r8<<0x3
80005d54:	f3 4a fd 88 	st.w	r9[-632],r10
80005d58:	2f f8       	sub	r8,-1
80005d5a:	fb 48 06 b4 	st.w	sp[1716],r8
80005d5e:	c0 48       	rjmp	80005d66 <_vfprintf_r+0xcf6>
80005d60:	72 0a       	ld.w	r10,r9[0x0]
80005d62:	2f c9       	sub	r9,-4
80005d64:	51 09       	stdsp	sp[0x40],r9
80005d66:	40 be       	lddsp	lr,sp[0x2c]
80005d68:	95 0e       	st.w	r10[0x0],lr
80005d6a:	fe 9f fa 11 	bral	8000518c <_vfprintf_r+0x11c>
80005d6e:	50 a7       	stdsp	sp[0x28],r7
80005d70:	50 80       	stdsp	sp[0x20],r0
80005d72:	0c 97       	mov	r7,r6
80005d74:	04 94       	mov	r4,r2
80005d76:	06 96       	mov	r6,r3
80005d78:	02 92       	mov	r2,r1
80005d7a:	40 93       	lddsp	r3,sp[0x24]
80005d7c:	10 90       	mov	r0,r8
80005d7e:	40 41       	lddsp	r1,sp[0x10]
80005d80:	a5 a5       	sbr	r5,0x4
80005d82:	c0 a8       	rjmp	80005d96 <_vfprintf_r+0xd26>
80005d84:	50 a7       	stdsp	sp[0x28],r7
80005d86:	50 80       	stdsp	sp[0x20],r0
80005d88:	0c 97       	mov	r7,r6
80005d8a:	04 94       	mov	r4,r2
80005d8c:	06 96       	mov	r6,r3
80005d8e:	02 92       	mov	r2,r1
80005d90:	40 93       	lddsp	r3,sp[0x24]
80005d92:	10 90       	mov	r0,r8
80005d94:	40 41       	lddsp	r1,sp[0x10]
80005d96:	ed b5 00 05 	bld	r5,0x5
80005d9a:	c5 d1       	brne	80005e54 <_vfprintf_r+0xde4>
80005d9c:	fa f8 06 b4 	ld.w	r8,sp[1716]
80005da0:	40 3c       	lddsp	r12,sp[0xc]
80005da2:	58 0c       	cp.w	r12,0
80005da4:	c2 60       	breq	80005df0 <_vfprintf_r+0xd80>
80005da6:	10 36       	cp.w	r6,r8
80005da8:	c0 a4       	brge	80005dbc <_vfprintf_r+0xd4c>
80005daa:	fa cb f9 44 	sub	r11,sp,-1724
80005dae:	f6 06 00 36 	add	r6,r11,r6<<0x3
80005db2:	ec e8 fd 88 	ld.d	r8,r6[-632]
80005db6:	fa e9 00 00 	st.d	sp[0],r8
80005dba:	c1 88       	rjmp	80005dea <_vfprintf_r+0xd7a>
80005dbc:	fa c8 f9 50 	sub	r8,sp,-1712
80005dc0:	1a d8       	st.w	--sp,r8
80005dc2:	fa c8 fa b8 	sub	r8,sp,-1352
80005dc6:	04 9a       	mov	r10,r2
80005dc8:	1a d8       	st.w	--sp,r8
80005dca:	0c 9b       	mov	r11,r6
80005dcc:	fa c8 fb b4 	sub	r8,sp,-1100
80005dd0:	08 9c       	mov	r12,r4
80005dd2:	1a d8       	st.w	--sp,r8
80005dd4:	fa c8 f9 40 	sub	r8,sp,-1728
80005dd8:	fa c9 ff b4 	sub	r9,sp,-76
80005ddc:	fe b0 f7 b2 	rcall	80004d40 <get_arg>
80005de0:	2f dd       	sub	sp,-12
80005de2:	f8 ea 00 00 	ld.d	r10,r12[0]
80005de6:	fa eb 00 00 	st.d	sp[0],r10
80005dea:	30 08       	mov	r8,0
80005dec:	e0 8f 03 de 	bral	800065a8 <_vfprintf_r+0x1538>
80005df0:	ee ca ff ff 	sub	r10,r7,-1
80005df4:	10 37       	cp.w	r7,r8
80005df6:	c0 b4       	brge	80005e0c <_vfprintf_r+0xd9c>
80005df8:	fa c9 f9 44 	sub	r9,sp,-1724
80005dfc:	14 97       	mov	r7,r10
80005dfe:	f2 06 00 36 	add	r6,r9,r6<<0x3
80005e02:	ec ea fd 88 	ld.d	r10,r6[-632]
80005e06:	fa eb 00 00 	st.d	sp[0],r10
80005e0a:	c1 88       	rjmp	80005e3a <_vfprintf_r+0xdca>
80005e0c:	41 09       	lddsp	r9,sp[0x40]
80005e0e:	59 f8       	cp.w	r8,31
80005e10:	e0 89 00 18 	brgt	80005e40 <_vfprintf_r+0xdd0>
80005e14:	f2 e6 00 00 	ld.d	r6,r9[0]
80005e18:	f2 cb ff f8 	sub	r11,r9,-8
80005e1c:	fa e7 00 00 	st.d	sp[0],r6
80005e20:	51 0b       	stdsp	sp[0x40],r11
80005e22:	fa c6 f9 44 	sub	r6,sp,-1724
80005e26:	ec 08 00 39 	add	r9,r6,r8<<0x3
80005e2a:	fa e6 00 00 	ld.d	r6,sp[0]
80005e2e:	f2 e7 fd 88 	st.d	r9[-632],r6
80005e32:	2f f8       	sub	r8,-1
80005e34:	14 97       	mov	r7,r10
80005e36:	fb 48 06 b4 	st.w	sp[1716],r8
80005e3a:	40 38       	lddsp	r8,sp[0xc]
80005e3c:	e0 8f 03 b6 	bral	800065a8 <_vfprintf_r+0x1538>
80005e40:	f2 e6 00 00 	ld.d	r6,r9[0]
80005e44:	40 38       	lddsp	r8,sp[0xc]
80005e46:	fa e7 00 00 	st.d	sp[0],r6
80005e4a:	2f 89       	sub	r9,-8
80005e4c:	14 97       	mov	r7,r10
80005e4e:	51 09       	stdsp	sp[0x40],r9
80005e50:	e0 8f 03 ac 	bral	800065a8 <_vfprintf_r+0x1538>
80005e54:	ed b5 00 04 	bld	r5,0x4
80005e58:	c1 61       	brne	80005e84 <_vfprintf_r+0xe14>
80005e5a:	fa f8 06 b4 	ld.w	r8,sp[1716]
80005e5e:	40 3e       	lddsp	lr,sp[0xc]
80005e60:	58 0e       	cp.w	lr,0
80005e62:	c0 80       	breq	80005e72 <_vfprintf_r+0xe02>
80005e64:	10 36       	cp.w	r6,r8
80005e66:	c6 74       	brge	80005f34 <_vfprintf_r+0xec4>
80005e68:	fa cc f9 44 	sub	r12,sp,-1724
80005e6c:	f8 06 00 36 	add	r6,r12,r6<<0x3
80005e70:	c8 08       	rjmp	80005f70 <_vfprintf_r+0xf00>
80005e72:	ee ca ff ff 	sub	r10,r7,-1
80005e76:	10 37       	cp.w	r7,r8
80005e78:	c7 f4       	brge	80005f76 <_vfprintf_r+0xf06>
80005e7a:	fa cb f9 44 	sub	r11,sp,-1724
80005e7e:	f6 06 00 36 	add	r6,r11,r6<<0x3
80005e82:	c7 68       	rjmp	80005f6e <_vfprintf_r+0xefe>
80005e84:	ed b5 00 06 	bld	r5,0x6
80005e88:	c4 a1       	brne	80005f1c <_vfprintf_r+0xeac>
80005e8a:	fa f8 06 b4 	ld.w	r8,sp[1716]
80005e8e:	40 3c       	lddsp	r12,sp[0xc]
80005e90:	58 0c       	cp.w	r12,0
80005e92:	c1 d0       	breq	80005ecc <_vfprintf_r+0xe5c>
80005e94:	10 36       	cp.w	r6,r8
80005e96:	c0 64       	brge	80005ea2 <_vfprintf_r+0xe32>
80005e98:	fa cb f9 44 	sub	r11,sp,-1724
80005e9c:	f6 06 00 36 	add	r6,r11,r6<<0x3
80005ea0:	c1 f8       	rjmp	80005ede <_vfprintf_r+0xe6e>
80005ea2:	fa c8 f9 50 	sub	r8,sp,-1712
80005ea6:	1a d8       	st.w	--sp,r8
80005ea8:	fa c8 fa b8 	sub	r8,sp,-1352
80005eac:	1a d8       	st.w	--sp,r8
80005eae:	fa c8 fb b4 	sub	r8,sp,-1100
80005eb2:	1a d8       	st.w	--sp,r8
80005eb4:	fa c8 f9 40 	sub	r8,sp,-1728
80005eb8:	fa c9 ff b4 	sub	r9,sp,-76
80005ebc:	04 9a       	mov	r10,r2
80005ebe:	0c 9b       	mov	r11,r6
80005ec0:	08 9c       	mov	r12,r4
80005ec2:	fe b0 f7 3f 	rcall	80004d40 <get_arg>
80005ec6:	2f dd       	sub	sp,-12
80005ec8:	98 18       	ld.sh	r8,r12[0x2]
80005eca:	c2 68       	rjmp	80005f16 <_vfprintf_r+0xea6>
80005ecc:	ee ca ff ff 	sub	r10,r7,-1
80005ed0:	10 37       	cp.w	r7,r8
80005ed2:	c0 94       	brge	80005ee4 <_vfprintf_r+0xe74>
80005ed4:	fa c9 f9 44 	sub	r9,sp,-1724
80005ed8:	14 97       	mov	r7,r10
80005eda:	f2 06 00 36 	add	r6,r9,r6<<0x3
80005ede:	ed 08 fd 8a 	ld.sh	r8,r6[-630]
80005ee2:	c1 a8       	rjmp	80005f16 <_vfprintf_r+0xea6>
80005ee4:	41 09       	lddsp	r9,sp[0x40]
80005ee6:	59 f8       	cp.w	r8,31
80005ee8:	e0 89 00 13 	brgt	80005f0e <_vfprintf_r+0xe9e>
80005eec:	f2 cb ff fc 	sub	r11,r9,-4
80005ef0:	51 0b       	stdsp	sp[0x40],r11
80005ef2:	72 09       	ld.w	r9,r9[0x0]
80005ef4:	fa c6 f9 44 	sub	r6,sp,-1724
80005ef8:	ec 08 00 3b 	add	r11,r6,r8<<0x3
80005efc:	2f f8       	sub	r8,-1
80005efe:	f7 49 fd 88 	st.w	r11[-632],r9
80005f02:	fb 48 06 b4 	st.w	sp[1716],r8
80005f06:	14 97       	mov	r7,r10
80005f08:	f1 d9 b0 10 	bfexts	r8,r9,0x0,0x10
80005f0c:	c0 58       	rjmp	80005f16 <_vfprintf_r+0xea6>
80005f0e:	92 18       	ld.sh	r8,r9[0x2]
80005f10:	14 97       	mov	r7,r10
80005f12:	2f c9       	sub	r9,-4
80005f14:	51 09       	stdsp	sp[0x40],r9
80005f16:	5c 78       	castu.h	r8
80005f18:	50 18       	stdsp	sp[0x4],r8
80005f1a:	c4 68       	rjmp	80005fa6 <_vfprintf_r+0xf36>
80005f1c:	fa f8 06 b4 	ld.w	r8,sp[1716]
80005f20:	40 3c       	lddsp	r12,sp[0xc]
80005f22:	58 0c       	cp.w	r12,0
80005f24:	c1 d0       	breq	80005f5e <_vfprintf_r+0xeee>
80005f26:	10 36       	cp.w	r6,r8
80005f28:	c0 64       	brge	80005f34 <_vfprintf_r+0xec4>
80005f2a:	fa cb f9 44 	sub	r11,sp,-1724
80005f2e:	f6 06 00 36 	add	r6,r11,r6<<0x3
80005f32:	c1 f8       	rjmp	80005f70 <_vfprintf_r+0xf00>
80005f34:	fa c8 f9 50 	sub	r8,sp,-1712
80005f38:	1a d8       	st.w	--sp,r8
80005f3a:	fa c8 fa b8 	sub	r8,sp,-1352
80005f3e:	0c 9b       	mov	r11,r6
80005f40:	1a d8       	st.w	--sp,r8
80005f42:	fa c8 fb b4 	sub	r8,sp,-1100
80005f46:	04 9a       	mov	r10,r2
80005f48:	1a d8       	st.w	--sp,r8
80005f4a:	08 9c       	mov	r12,r4
80005f4c:	fa c8 f9 40 	sub	r8,sp,-1728
80005f50:	fa c9 ff b4 	sub	r9,sp,-76
80005f54:	fe b0 f6 f6 	rcall	80004d40 <get_arg>
80005f58:	2f dd       	sub	sp,-12
80005f5a:	78 0b       	ld.w	r11,r12[0x0]
80005f5c:	c2 48       	rjmp	80005fa4 <_vfprintf_r+0xf34>
80005f5e:	ee ca ff ff 	sub	r10,r7,-1
80005f62:	10 37       	cp.w	r7,r8
80005f64:	c0 94       	brge	80005f76 <_vfprintf_r+0xf06>
80005f66:	fa c9 f9 44 	sub	r9,sp,-1724
80005f6a:	f2 06 00 36 	add	r6,r9,r6<<0x3
80005f6e:	14 97       	mov	r7,r10
80005f70:	ec fb fd 88 	ld.w	r11,r6[-632]
80005f74:	c1 88       	rjmp	80005fa4 <_vfprintf_r+0xf34>
80005f76:	41 09       	lddsp	r9,sp[0x40]
80005f78:	59 f8       	cp.w	r8,31
80005f7a:	e0 89 00 11 	brgt	80005f9c <_vfprintf_r+0xf2c>
80005f7e:	f2 cb ff fc 	sub	r11,r9,-4
80005f82:	51 0b       	stdsp	sp[0x40],r11
80005f84:	fa c6 f9 44 	sub	r6,sp,-1724
80005f88:	72 0b       	ld.w	r11,r9[0x0]
80005f8a:	ec 08 00 39 	add	r9,r6,r8<<0x3
80005f8e:	f3 4b fd 88 	st.w	r9[-632],r11
80005f92:	2f f8       	sub	r8,-1
80005f94:	14 97       	mov	r7,r10
80005f96:	fb 48 06 b4 	st.w	sp[1716],r8
80005f9a:	c0 58       	rjmp	80005fa4 <_vfprintf_r+0xf34>
80005f9c:	72 0b       	ld.w	r11,r9[0x0]
80005f9e:	14 97       	mov	r7,r10
80005fa0:	2f c9       	sub	r9,-4
80005fa2:	51 09       	stdsp	sp[0x40],r9
80005fa4:	50 1b       	stdsp	sp[0x4],r11
80005fa6:	30 0e       	mov	lr,0
80005fa8:	50 0e       	stdsp	sp[0x0],lr
80005faa:	1c 98       	mov	r8,lr
80005fac:	e0 8f 02 fe 	bral	800065a8 <_vfprintf_r+0x1538>
80005fb0:	50 a7       	stdsp	sp[0x28],r7
80005fb2:	50 80       	stdsp	sp[0x20],r0
80005fb4:	0c 97       	mov	r7,r6
80005fb6:	04 94       	mov	r4,r2
80005fb8:	06 96       	mov	r6,r3
80005fba:	02 92       	mov	r2,r1
80005fbc:	40 93       	lddsp	r3,sp[0x24]
80005fbe:	40 41       	lddsp	r1,sp[0x10]
80005fc0:	0e 99       	mov	r9,r7
80005fc2:	fa f8 06 b4 	ld.w	r8,sp[1716]
80005fc6:	40 3c       	lddsp	r12,sp[0xc]
80005fc8:	58 0c       	cp.w	r12,0
80005fca:	c1 d0       	breq	80006004 <_vfprintf_r+0xf94>
80005fcc:	10 36       	cp.w	r6,r8
80005fce:	c0 64       	brge	80005fda <_vfprintf_r+0xf6a>
80005fd0:	fa cb f9 44 	sub	r11,sp,-1724
80005fd4:	f6 06 00 36 	add	r6,r11,r6<<0x3
80005fd8:	c1 d8       	rjmp	80006012 <_vfprintf_r+0xfa2>
80005fda:	fa c8 f9 50 	sub	r8,sp,-1712
80005fde:	1a d8       	st.w	--sp,r8
80005fe0:	fa c8 fa b8 	sub	r8,sp,-1352
80005fe4:	1a d8       	st.w	--sp,r8
80005fe6:	fa c8 fb b4 	sub	r8,sp,-1100
80005fea:	1a d8       	st.w	--sp,r8
80005fec:	fa c9 ff b4 	sub	r9,sp,-76
80005ff0:	fa c8 f9 40 	sub	r8,sp,-1728
80005ff4:	04 9a       	mov	r10,r2
80005ff6:	0c 9b       	mov	r11,r6
80005ff8:	08 9c       	mov	r12,r4
80005ffa:	fe b0 f6 a3 	rcall	80004d40 <get_arg>
80005ffe:	2f dd       	sub	sp,-12
80006000:	78 09       	ld.w	r9,r12[0x0]
80006002:	c2 18       	rjmp	80006044 <_vfprintf_r+0xfd4>
80006004:	2f f7       	sub	r7,-1
80006006:	10 39       	cp.w	r9,r8
80006008:	c0 84       	brge	80006018 <_vfprintf_r+0xfa8>
8000600a:	fa ca f9 44 	sub	r10,sp,-1724
8000600e:	f4 06 00 36 	add	r6,r10,r6<<0x3
80006012:	ec f9 fd 88 	ld.w	r9,r6[-632]
80006016:	c1 78       	rjmp	80006044 <_vfprintf_r+0xfd4>
80006018:	41 09       	lddsp	r9,sp[0x40]
8000601a:	59 f8       	cp.w	r8,31
8000601c:	e0 89 00 10 	brgt	8000603c <_vfprintf_r+0xfcc>
80006020:	f2 ca ff fc 	sub	r10,r9,-4
80006024:	51 0a       	stdsp	sp[0x40],r10
80006026:	fa c6 f9 44 	sub	r6,sp,-1724
8000602a:	72 09       	ld.w	r9,r9[0x0]
8000602c:	ec 08 00 3a 	add	r10,r6,r8<<0x3
80006030:	f5 49 fd 88 	st.w	r10[-632],r9
80006034:	2f f8       	sub	r8,-1
80006036:	fb 48 06 b4 	st.w	sp[1716],r8
8000603a:	c0 58       	rjmp	80006044 <_vfprintf_r+0xfd4>
8000603c:	f2 c8 ff fc 	sub	r8,r9,-4
80006040:	51 08       	stdsp	sp[0x40],r8
80006042:	72 09       	ld.w	r9,r9[0x0]
80006044:	33 08       	mov	r8,48
80006046:	fb 68 06 b8 	st.b	sp[1720],r8
8000604a:	37 88       	mov	r8,120
8000604c:	30 0e       	mov	lr,0
8000604e:	fb 68 06 b9 	st.b	sp[1721],r8
80006052:	fe cc c2 c6 	sub	r12,pc,-15674
80006056:	50 19       	stdsp	sp[0x4],r9
80006058:	a1 b5       	sbr	r5,0x1
8000605a:	50 0e       	stdsp	sp[0x0],lr
8000605c:	50 dc       	stdsp	sp[0x34],r12
8000605e:	30 28       	mov	r8,2
80006060:	37 80       	mov	r0,120
80006062:	e0 8f 02 a3 	bral	800065a8 <_vfprintf_r+0x1538>
80006066:	50 a7       	stdsp	sp[0x28],r7
80006068:	50 80       	stdsp	sp[0x20],r0
8000606a:	10 90       	mov	r0,r8
8000606c:	30 08       	mov	r8,0
8000606e:	fb 68 06 bb 	st.b	sp[1723],r8
80006072:	0c 97       	mov	r7,r6
80006074:	04 94       	mov	r4,r2
80006076:	06 96       	mov	r6,r3
80006078:	02 92       	mov	r2,r1
8000607a:	40 93       	lddsp	r3,sp[0x24]
8000607c:	40 41       	lddsp	r1,sp[0x10]
8000607e:	0e 99       	mov	r9,r7
80006080:	fa f8 06 b4 	ld.w	r8,sp[1716]
80006084:	40 3b       	lddsp	r11,sp[0xc]
80006086:	58 0b       	cp.w	r11,0
80006088:	c1 d0       	breq	800060c2 <_vfprintf_r+0x1052>
8000608a:	10 36       	cp.w	r6,r8
8000608c:	c0 64       	brge	80006098 <_vfprintf_r+0x1028>
8000608e:	fa ca f9 44 	sub	r10,sp,-1724
80006092:	f4 06 00 36 	add	r6,r10,r6<<0x3
80006096:	c1 d8       	rjmp	800060d0 <_vfprintf_r+0x1060>
80006098:	fa c8 f9 50 	sub	r8,sp,-1712
8000609c:	1a d8       	st.w	--sp,r8
8000609e:	fa c8 fa b8 	sub	r8,sp,-1352
800060a2:	1a d8       	st.w	--sp,r8
800060a4:	fa c8 fb b4 	sub	r8,sp,-1100
800060a8:	0c 9b       	mov	r11,r6
800060aa:	1a d8       	st.w	--sp,r8
800060ac:	04 9a       	mov	r10,r2
800060ae:	fa c8 f9 40 	sub	r8,sp,-1728
800060b2:	fa c9 ff b4 	sub	r9,sp,-76
800060b6:	08 9c       	mov	r12,r4
800060b8:	fe b0 f6 44 	rcall	80004d40 <get_arg>
800060bc:	2f dd       	sub	sp,-12
800060be:	78 06       	ld.w	r6,r12[0x0]
800060c0:	c2 08       	rjmp	80006100 <_vfprintf_r+0x1090>
800060c2:	2f f7       	sub	r7,-1
800060c4:	10 39       	cp.w	r9,r8
800060c6:	c0 84       	brge	800060d6 <_vfprintf_r+0x1066>
800060c8:	fa c9 f9 44 	sub	r9,sp,-1724
800060cc:	f2 06 00 36 	add	r6,r9,r6<<0x3
800060d0:	ec f6 fd 88 	ld.w	r6,r6[-632]
800060d4:	c1 68       	rjmp	80006100 <_vfprintf_r+0x1090>
800060d6:	41 09       	lddsp	r9,sp[0x40]
800060d8:	59 f8       	cp.w	r8,31
800060da:	e0 89 00 10 	brgt	800060fa <_vfprintf_r+0x108a>
800060de:	f2 ca ff fc 	sub	r10,r9,-4
800060e2:	51 0a       	stdsp	sp[0x40],r10
800060e4:	72 06       	ld.w	r6,r9[0x0]
800060e6:	fa ce f9 44 	sub	lr,sp,-1724
800060ea:	fc 08 00 39 	add	r9,lr,r8<<0x3
800060ee:	f3 46 fd 88 	st.w	r9[-632],r6
800060f2:	2f f8       	sub	r8,-1
800060f4:	fb 48 06 b4 	st.w	sp[1716],r8
800060f8:	c0 48       	rjmp	80006100 <_vfprintf_r+0x1090>
800060fa:	72 06       	ld.w	r6,r9[0x0]
800060fc:	2f c9       	sub	r9,-4
800060fe:	51 09       	stdsp	sp[0x40],r9
80006100:	40 2c       	lddsp	r12,sp[0x8]
80006102:	58 0c       	cp.w	r12,0
80006104:	c1 05       	brlt	80006124 <_vfprintf_r+0x10b4>
80006106:	18 9a       	mov	r10,r12
80006108:	30 0b       	mov	r11,0
8000610a:	0c 9c       	mov	r12,r6
8000610c:	e0 a0 12 f0 	rcall	800086ec <memchr>
80006110:	e0 80 02 df 	breq	800066ce <_vfprintf_r+0x165e>
80006114:	f8 06 01 02 	sub	r2,r12,r6
80006118:	40 2b       	lddsp	r11,sp[0x8]
8000611a:	16 32       	cp.w	r2,r11
8000611c:	e0 89 02 d9 	brgt	800066ce <_vfprintf_r+0x165e>
80006120:	e0 8f 02 d4 	bral	800066c8 <_vfprintf_r+0x1658>
80006124:	30 0a       	mov	r10,0
80006126:	0c 9c       	mov	r12,r6
80006128:	50 2a       	stdsp	sp[0x8],r10
8000612a:	e0 a0 16 51 	rcall	80008dcc <strlen>
8000612e:	18 92       	mov	r2,r12
80006130:	e0 8f 02 d2 	bral	800066d4 <_vfprintf_r+0x1664>
80006134:	50 a7       	stdsp	sp[0x28],r7
80006136:	50 80       	stdsp	sp[0x20],r0
80006138:	0c 97       	mov	r7,r6
8000613a:	04 94       	mov	r4,r2
8000613c:	06 96       	mov	r6,r3
8000613e:	02 92       	mov	r2,r1
80006140:	40 93       	lddsp	r3,sp[0x24]
80006142:	10 90       	mov	r0,r8
80006144:	40 41       	lddsp	r1,sp[0x10]
80006146:	a5 a5       	sbr	r5,0x4
80006148:	c0 a8       	rjmp	8000615c <_vfprintf_r+0x10ec>
8000614a:	50 a7       	stdsp	sp[0x28],r7
8000614c:	50 80       	stdsp	sp[0x20],r0
8000614e:	0c 97       	mov	r7,r6
80006150:	04 94       	mov	r4,r2
80006152:	06 96       	mov	r6,r3
80006154:	02 92       	mov	r2,r1
80006156:	40 93       	lddsp	r3,sp[0x24]
80006158:	10 90       	mov	r0,r8
8000615a:	40 41       	lddsp	r1,sp[0x10]
8000615c:	ed b5 00 05 	bld	r5,0x5
80006160:	c5 61       	brne	8000620c <_vfprintf_r+0x119c>
80006162:	fa f8 06 b4 	ld.w	r8,sp[1716]
80006166:	40 39       	lddsp	r9,sp[0xc]
80006168:	58 09       	cp.w	r9,0
8000616a:	c2 10       	breq	800061ac <_vfprintf_r+0x113c>
8000616c:	10 36       	cp.w	r6,r8
8000616e:	c0 74       	brge	8000617c <_vfprintf_r+0x110c>
80006170:	fa c8 f9 44 	sub	r8,sp,-1724
80006174:	f0 06 00 36 	add	r6,r8,r6<<0x3
80006178:	c2 38       	rjmp	800061be <_vfprintf_r+0x114e>
8000617a:	d7 03       	nop
8000617c:	fa c8 f9 50 	sub	r8,sp,-1712
80006180:	1a d8       	st.w	--sp,r8
80006182:	fa c8 fa b8 	sub	r8,sp,-1352
80006186:	1a d8       	st.w	--sp,r8
80006188:	fa c8 fb b4 	sub	r8,sp,-1100
8000618c:	1a d8       	st.w	--sp,r8
8000618e:	fa c8 f9 40 	sub	r8,sp,-1728
80006192:	fa c9 ff b4 	sub	r9,sp,-76
80006196:	04 9a       	mov	r10,r2
80006198:	0c 9b       	mov	r11,r6
8000619a:	08 9c       	mov	r12,r4
8000619c:	fe b0 f5 d2 	rcall	80004d40 <get_arg>
800061a0:	2f dd       	sub	sp,-12
800061a2:	f8 e8 00 00 	ld.d	r8,r12[0]
800061a6:	fa e9 00 00 	st.d	sp[0],r8
800061aa:	c2 e8       	rjmp	80006206 <_vfprintf_r+0x1196>
800061ac:	ee ca ff ff 	sub	r10,r7,-1
800061b0:	10 37       	cp.w	r7,r8
800061b2:	c0 b4       	brge	800061c8 <_vfprintf_r+0x1158>
800061b4:	fa c8 f9 44 	sub	r8,sp,-1724
800061b8:	14 97       	mov	r7,r10
800061ba:	f0 06 00 36 	add	r6,r8,r6<<0x3
800061be:	ec ea fd 88 	ld.d	r10,r6[-632]
800061c2:	fa eb 00 00 	st.d	sp[0],r10
800061c6:	c2 08       	rjmp	80006206 <_vfprintf_r+0x1196>
800061c8:	41 09       	lddsp	r9,sp[0x40]
800061ca:	59 f8       	cp.w	r8,31
800061cc:	e0 89 00 16 	brgt	800061f8 <_vfprintf_r+0x1188>
800061d0:	f2 e6 00 00 	ld.d	r6,r9[0]
800061d4:	f2 cb ff f8 	sub	r11,r9,-8
800061d8:	fa e7 00 00 	st.d	sp[0],r6
800061dc:	51 0b       	stdsp	sp[0x40],r11
800061de:	fa c6 f9 44 	sub	r6,sp,-1724
800061e2:	ec 08 00 39 	add	r9,r6,r8<<0x3
800061e6:	fa e6 00 00 	ld.d	r6,sp[0]
800061ea:	f2 e7 fd 88 	st.d	r9[-632],r6
800061ee:	2f f8       	sub	r8,-1
800061f0:	14 97       	mov	r7,r10
800061f2:	fb 48 06 b4 	st.w	sp[1716],r8
800061f6:	c0 88       	rjmp	80006206 <_vfprintf_r+0x1196>
800061f8:	f2 e6 00 00 	ld.d	r6,r9[0]
800061fc:	2f 89       	sub	r9,-8
800061fe:	fa e7 00 00 	st.d	sp[0],r6
80006202:	51 09       	stdsp	sp[0x40],r9
80006204:	14 97       	mov	r7,r10
80006206:	30 18       	mov	r8,1
80006208:	e0 8f 01 d0 	bral	800065a8 <_vfprintf_r+0x1538>
8000620c:	ed b5 00 04 	bld	r5,0x4
80006210:	c1 61       	brne	8000623c <_vfprintf_r+0x11cc>
80006212:	fa f8 06 b4 	ld.w	r8,sp[1716]
80006216:	40 3e       	lddsp	lr,sp[0xc]
80006218:	58 0e       	cp.w	lr,0
8000621a:	c0 80       	breq	8000622a <_vfprintf_r+0x11ba>
8000621c:	10 36       	cp.w	r6,r8
8000621e:	c6 74       	brge	800062ec <_vfprintf_r+0x127c>
80006220:	fa cc f9 44 	sub	r12,sp,-1724
80006224:	f8 06 00 36 	add	r6,r12,r6<<0x3
80006228:	c8 08       	rjmp	80006328 <_vfprintf_r+0x12b8>
8000622a:	ee ca ff ff 	sub	r10,r7,-1
8000622e:	10 37       	cp.w	r7,r8
80006230:	c7 f4       	brge	8000632e <_vfprintf_r+0x12be>
80006232:	fa cb f9 44 	sub	r11,sp,-1724
80006236:	f6 06 00 36 	add	r6,r11,r6<<0x3
8000623a:	c7 68       	rjmp	80006326 <_vfprintf_r+0x12b6>
8000623c:	ed b5 00 06 	bld	r5,0x6
80006240:	c4 a1       	brne	800062d4 <_vfprintf_r+0x1264>
80006242:	fa f8 06 b4 	ld.w	r8,sp[1716]
80006246:	40 3c       	lddsp	r12,sp[0xc]
80006248:	58 0c       	cp.w	r12,0
8000624a:	c1 d0       	breq	80006284 <_vfprintf_r+0x1214>
8000624c:	10 36       	cp.w	r6,r8
8000624e:	c0 64       	brge	8000625a <_vfprintf_r+0x11ea>
80006250:	fa cb f9 44 	sub	r11,sp,-1724
80006254:	f6 06 00 36 	add	r6,r11,r6<<0x3
80006258:	c1 f8       	rjmp	80006296 <_vfprintf_r+0x1226>
8000625a:	fa c8 f9 50 	sub	r8,sp,-1712
8000625e:	1a d8       	st.w	--sp,r8
80006260:	fa c8 fa b8 	sub	r8,sp,-1352
80006264:	1a d8       	st.w	--sp,r8
80006266:	fa c8 fb b4 	sub	r8,sp,-1100
8000626a:	1a d8       	st.w	--sp,r8
8000626c:	fa c8 f9 40 	sub	r8,sp,-1728
80006270:	fa c9 ff b4 	sub	r9,sp,-76
80006274:	04 9a       	mov	r10,r2
80006276:	0c 9b       	mov	r11,r6
80006278:	08 9c       	mov	r12,r4
8000627a:	fe b0 f5 63 	rcall	80004d40 <get_arg>
8000627e:	2f dd       	sub	sp,-12
80006280:	98 18       	ld.sh	r8,r12[0x2]
80006282:	c2 68       	rjmp	800062ce <_vfprintf_r+0x125e>
80006284:	ee ca ff ff 	sub	r10,r7,-1
80006288:	10 37       	cp.w	r7,r8
8000628a:	c0 94       	brge	8000629c <_vfprintf_r+0x122c>
8000628c:	fa c9 f9 44 	sub	r9,sp,-1724
80006290:	14 97       	mov	r7,r10
80006292:	f2 06 00 36 	add	r6,r9,r6<<0x3
80006296:	ed 08 fd 8a 	ld.sh	r8,r6[-630]
8000629a:	c1 a8       	rjmp	800062ce <_vfprintf_r+0x125e>
8000629c:	41 09       	lddsp	r9,sp[0x40]
8000629e:	59 f8       	cp.w	r8,31
800062a0:	e0 89 00 13 	brgt	800062c6 <_vfprintf_r+0x1256>
800062a4:	f2 cb ff fc 	sub	r11,r9,-4
800062a8:	51 0b       	stdsp	sp[0x40],r11
800062aa:	72 09       	ld.w	r9,r9[0x0]
800062ac:	fa c6 f9 44 	sub	r6,sp,-1724
800062b0:	ec 08 00 3b 	add	r11,r6,r8<<0x3
800062b4:	2f f8       	sub	r8,-1
800062b6:	f7 49 fd 88 	st.w	r11[-632],r9
800062ba:	fb 48 06 b4 	st.w	sp[1716],r8
800062be:	14 97       	mov	r7,r10
800062c0:	f1 d9 b0 10 	bfexts	r8,r9,0x0,0x10
800062c4:	c0 58       	rjmp	800062ce <_vfprintf_r+0x125e>
800062c6:	92 18       	ld.sh	r8,r9[0x2]
800062c8:	14 97       	mov	r7,r10
800062ca:	2f c9       	sub	r9,-4
800062cc:	51 09       	stdsp	sp[0x40],r9
800062ce:	5c 78       	castu.h	r8
800062d0:	50 18       	stdsp	sp[0x4],r8
800062d2:	c4 68       	rjmp	8000635e <_vfprintf_r+0x12ee>
800062d4:	fa f8 06 b4 	ld.w	r8,sp[1716]
800062d8:	40 3c       	lddsp	r12,sp[0xc]
800062da:	58 0c       	cp.w	r12,0
800062dc:	c1 d0       	breq	80006316 <_vfprintf_r+0x12a6>
800062de:	10 36       	cp.w	r6,r8
800062e0:	c0 64       	brge	800062ec <_vfprintf_r+0x127c>
800062e2:	fa cb f9 44 	sub	r11,sp,-1724
800062e6:	f6 06 00 36 	add	r6,r11,r6<<0x3
800062ea:	c1 f8       	rjmp	80006328 <_vfprintf_r+0x12b8>
800062ec:	fa c8 f9 50 	sub	r8,sp,-1712
800062f0:	1a d8       	st.w	--sp,r8
800062f2:	fa c8 fa b8 	sub	r8,sp,-1352
800062f6:	0c 9b       	mov	r11,r6
800062f8:	1a d8       	st.w	--sp,r8
800062fa:	fa c8 fb b4 	sub	r8,sp,-1100
800062fe:	04 9a       	mov	r10,r2
80006300:	1a d8       	st.w	--sp,r8
80006302:	08 9c       	mov	r12,r4
80006304:	fa c8 f9 40 	sub	r8,sp,-1728
80006308:	fa c9 ff b4 	sub	r9,sp,-76
8000630c:	fe b0 f5 1a 	rcall	80004d40 <get_arg>
80006310:	2f dd       	sub	sp,-12
80006312:	78 0b       	ld.w	r11,r12[0x0]
80006314:	c2 48       	rjmp	8000635c <_vfprintf_r+0x12ec>
80006316:	ee ca ff ff 	sub	r10,r7,-1
8000631a:	10 37       	cp.w	r7,r8
8000631c:	c0 94       	brge	8000632e <_vfprintf_r+0x12be>
8000631e:	fa c9 f9 44 	sub	r9,sp,-1724
80006322:	f2 06 00 36 	add	r6,r9,r6<<0x3
80006326:	14 97       	mov	r7,r10
80006328:	ec fb fd 88 	ld.w	r11,r6[-632]
8000632c:	c1 88       	rjmp	8000635c <_vfprintf_r+0x12ec>
8000632e:	41 09       	lddsp	r9,sp[0x40]
80006330:	59 f8       	cp.w	r8,31
80006332:	e0 89 00 11 	brgt	80006354 <_vfprintf_r+0x12e4>
80006336:	f2 cb ff fc 	sub	r11,r9,-4
8000633a:	51 0b       	stdsp	sp[0x40],r11
8000633c:	fa c6 f9 44 	sub	r6,sp,-1724
80006340:	72 0b       	ld.w	r11,r9[0x0]
80006342:	ec 08 00 39 	add	r9,r6,r8<<0x3
80006346:	f3 4b fd 88 	st.w	r9[-632],r11
8000634a:	2f f8       	sub	r8,-1
8000634c:	14 97       	mov	r7,r10
8000634e:	fb 48 06 b4 	st.w	sp[1716],r8
80006352:	c0 58       	rjmp	8000635c <_vfprintf_r+0x12ec>
80006354:	72 0b       	ld.w	r11,r9[0x0]
80006356:	14 97       	mov	r7,r10
80006358:	2f c9       	sub	r9,-4
8000635a:	51 09       	stdsp	sp[0x40],r9
8000635c:	50 1b       	stdsp	sp[0x4],r11
8000635e:	30 0e       	mov	lr,0
80006360:	30 18       	mov	r8,1
80006362:	50 0e       	stdsp	sp[0x0],lr
80006364:	c2 29       	rjmp	800065a8 <_vfprintf_r+0x1538>
80006366:	50 a7       	stdsp	sp[0x28],r7
80006368:	50 80       	stdsp	sp[0x20],r0
8000636a:	0c 97       	mov	r7,r6
8000636c:	04 94       	mov	r4,r2
8000636e:	06 96       	mov	r6,r3
80006370:	02 92       	mov	r2,r1
80006372:	fe cc c5 e6 	sub	r12,pc,-14874
80006376:	40 93       	lddsp	r3,sp[0x24]
80006378:	10 90       	mov	r0,r8
8000637a:	40 41       	lddsp	r1,sp[0x10]
8000637c:	50 dc       	stdsp	sp[0x34],r12
8000637e:	ed b5 00 05 	bld	r5,0x5
80006382:	c5 51       	brne	8000642c <_vfprintf_r+0x13bc>
80006384:	fa f8 06 b4 	ld.w	r8,sp[1716]
80006388:	40 3b       	lddsp	r11,sp[0xc]
8000638a:	58 0b       	cp.w	r11,0
8000638c:	c2 20       	breq	800063d0 <_vfprintf_r+0x1360>
8000638e:	10 36       	cp.w	r6,r8
80006390:	c0 a4       	brge	800063a4 <_vfprintf_r+0x1334>
80006392:	fa ca f9 44 	sub	r10,sp,-1724
80006396:	f4 06 00 36 	add	r6,r10,r6<<0x3
8000639a:	ec e8 fd 88 	ld.d	r8,r6[-632]
8000639e:	fa e9 00 00 	st.d	sp[0],r8
800063a2:	cf 28       	rjmp	80006586 <_vfprintf_r+0x1516>
800063a4:	fa c8 f9 50 	sub	r8,sp,-1712
800063a8:	1a d8       	st.w	--sp,r8
800063aa:	fa c8 fa b8 	sub	r8,sp,-1352
800063ae:	04 9a       	mov	r10,r2
800063b0:	1a d8       	st.w	--sp,r8
800063b2:	0c 9b       	mov	r11,r6
800063b4:	fa c8 fb b4 	sub	r8,sp,-1100
800063b8:	08 9c       	mov	r12,r4
800063ba:	1a d8       	st.w	--sp,r8
800063bc:	fa c8 f9 40 	sub	r8,sp,-1728
800063c0:	fa c9 ff b4 	sub	r9,sp,-76
800063c4:	fe b0 f4 be 	rcall	80004d40 <get_arg>
800063c8:	2f dd       	sub	sp,-12
800063ca:	f8 ea 00 00 	ld.d	r10,r12[0]
800063ce:	c0 c8       	rjmp	800063e6 <_vfprintf_r+0x1376>
800063d0:	ee ca ff ff 	sub	r10,r7,-1
800063d4:	10 37       	cp.w	r7,r8
800063d6:	c0 b4       	brge	800063ec <_vfprintf_r+0x137c>
800063d8:	fa c9 f9 44 	sub	r9,sp,-1724
800063dc:	14 97       	mov	r7,r10
800063de:	f2 06 00 36 	add	r6,r9,r6<<0x3
800063e2:	ec ea fd 88 	ld.d	r10,r6[-632]
800063e6:	fa eb 00 00 	st.d	sp[0],r10
800063ea:	cc e8       	rjmp	80006586 <_vfprintf_r+0x1516>
800063ec:	41 09       	lddsp	r9,sp[0x40]
800063ee:	59 f8       	cp.w	r8,31
800063f0:	e0 89 00 16 	brgt	8000641c <_vfprintf_r+0x13ac>
800063f4:	f2 e6 00 00 	ld.d	r6,r9[0]
800063f8:	f2 cb ff f8 	sub	r11,r9,-8
800063fc:	fa e7 00 00 	st.d	sp[0],r6
80006400:	51 0b       	stdsp	sp[0x40],r11
80006402:	fa c6 f9 44 	sub	r6,sp,-1724
80006406:	ec 08 00 39 	add	r9,r6,r8<<0x3
8000640a:	fa e6 00 00 	ld.d	r6,sp[0]
8000640e:	f2 e7 fd 88 	st.d	r9[-632],r6
80006412:	2f f8       	sub	r8,-1
80006414:	14 97       	mov	r7,r10
80006416:	fb 48 06 b4 	st.w	sp[1716],r8
8000641a:	cb 68       	rjmp	80006586 <_vfprintf_r+0x1516>
8000641c:	f2 e6 00 00 	ld.d	r6,r9[0]
80006420:	2f 89       	sub	r9,-8
80006422:	fa e7 00 00 	st.d	sp[0],r6
80006426:	51 09       	stdsp	sp[0x40],r9
80006428:	14 97       	mov	r7,r10
8000642a:	ca e8       	rjmp	80006586 <_vfprintf_r+0x1516>
8000642c:	ed b5 00 04 	bld	r5,0x4
80006430:	c1 71       	brne	8000645e <_vfprintf_r+0x13ee>
80006432:	fa f8 06 b4 	ld.w	r8,sp[1716]
80006436:	40 3e       	lddsp	lr,sp[0xc]
80006438:	58 0e       	cp.w	lr,0
8000643a:	c0 80       	breq	8000644a <_vfprintf_r+0x13da>
8000643c:	10 36       	cp.w	r6,r8
8000643e:	c6 94       	brge	80006510 <_vfprintf_r+0x14a0>
80006440:	fa cc f9 44 	sub	r12,sp,-1724
80006444:	f8 06 00 36 	add	r6,r12,r6<<0x3
80006448:	c8 28       	rjmp	8000654c <_vfprintf_r+0x14dc>
8000644a:	ee ca ff ff 	sub	r10,r7,-1
8000644e:	10 37       	cp.w	r7,r8
80006450:	e0 84 00 81 	brge	80006552 <_vfprintf_r+0x14e2>
80006454:	fa cb f9 44 	sub	r11,sp,-1724
80006458:	f6 06 00 36 	add	r6,r11,r6<<0x3
8000645c:	c7 78       	rjmp	8000654a <_vfprintf_r+0x14da>
8000645e:	ed b5 00 06 	bld	r5,0x6
80006462:	c4 b1       	brne	800064f8 <_vfprintf_r+0x1488>
80006464:	fa f8 06 b4 	ld.w	r8,sp[1716]
80006468:	40 3c       	lddsp	r12,sp[0xc]
8000646a:	58 0c       	cp.w	r12,0
8000646c:	c1 d0       	breq	800064a6 <_vfprintf_r+0x1436>
8000646e:	10 36       	cp.w	r6,r8
80006470:	c0 64       	brge	8000647c <_vfprintf_r+0x140c>
80006472:	fa cb f9 44 	sub	r11,sp,-1724
80006476:	f6 06 00 36 	add	r6,r11,r6<<0x3
8000647a:	c1 f8       	rjmp	800064b8 <_vfprintf_r+0x1448>
8000647c:	fa c8 f9 50 	sub	r8,sp,-1712
80006480:	1a d8       	st.w	--sp,r8
80006482:	fa c8 fa b8 	sub	r8,sp,-1352
80006486:	1a d8       	st.w	--sp,r8
80006488:	fa c8 fb b4 	sub	r8,sp,-1100
8000648c:	1a d8       	st.w	--sp,r8
8000648e:	fa c8 f9 40 	sub	r8,sp,-1728
80006492:	fa c9 ff b4 	sub	r9,sp,-76
80006496:	04 9a       	mov	r10,r2
80006498:	0c 9b       	mov	r11,r6
8000649a:	08 9c       	mov	r12,r4
8000649c:	fe b0 f4 52 	rcall	80004d40 <get_arg>
800064a0:	2f dd       	sub	sp,-12
800064a2:	98 18       	ld.sh	r8,r12[0x2]
800064a4:	c2 78       	rjmp	800064f2 <_vfprintf_r+0x1482>
800064a6:	ee ca ff ff 	sub	r10,r7,-1
800064aa:	10 37       	cp.w	r7,r8
800064ac:	c0 a4       	brge	800064c0 <_vfprintf_r+0x1450>
800064ae:	fa c9 f9 44 	sub	r9,sp,-1724
800064b2:	14 97       	mov	r7,r10
800064b4:	f2 06 00 36 	add	r6,r9,r6<<0x3
800064b8:	ed 08 fd 8a 	ld.sh	r8,r6[-630]
800064bc:	c1 b8       	rjmp	800064f2 <_vfprintf_r+0x1482>
800064be:	d7 03       	nop
800064c0:	41 09       	lddsp	r9,sp[0x40]
800064c2:	59 f8       	cp.w	r8,31
800064c4:	e0 89 00 13 	brgt	800064ea <_vfprintf_r+0x147a>
800064c8:	f2 cb ff fc 	sub	r11,r9,-4
800064cc:	51 0b       	stdsp	sp[0x40],r11
800064ce:	72 09       	ld.w	r9,r9[0x0]
800064d0:	fa c6 f9 44 	sub	r6,sp,-1724
800064d4:	ec 08 00 3b 	add	r11,r6,r8<<0x3
800064d8:	2f f8       	sub	r8,-1
800064da:	f7 49 fd 88 	st.w	r11[-632],r9
800064de:	fb 48 06 b4 	st.w	sp[1716],r8
800064e2:	14 97       	mov	r7,r10
800064e4:	f1 d9 b0 10 	bfexts	r8,r9,0x0,0x10
800064e8:	c0 58       	rjmp	800064f2 <_vfprintf_r+0x1482>
800064ea:	92 18       	ld.sh	r8,r9[0x2]
800064ec:	14 97       	mov	r7,r10
800064ee:	2f c9       	sub	r9,-4
800064f0:	51 09       	stdsp	sp[0x40],r9
800064f2:	5c 78       	castu.h	r8
800064f4:	50 18       	stdsp	sp[0x4],r8
800064f6:	c4 68       	rjmp	80006582 <_vfprintf_r+0x1512>
800064f8:	fa f8 06 b4 	ld.w	r8,sp[1716]
800064fc:	40 3c       	lddsp	r12,sp[0xc]
800064fe:	58 0c       	cp.w	r12,0
80006500:	c1 d0       	breq	8000653a <_vfprintf_r+0x14ca>
80006502:	10 36       	cp.w	r6,r8
80006504:	c0 64       	brge	80006510 <_vfprintf_r+0x14a0>
80006506:	fa cb f9 44 	sub	r11,sp,-1724
8000650a:	f6 06 00 36 	add	r6,r11,r6<<0x3
8000650e:	c1 f8       	rjmp	8000654c <_vfprintf_r+0x14dc>
80006510:	fa c8 f9 50 	sub	r8,sp,-1712
80006514:	1a d8       	st.w	--sp,r8
80006516:	fa c8 fa b8 	sub	r8,sp,-1352
8000651a:	0c 9b       	mov	r11,r6
8000651c:	1a d8       	st.w	--sp,r8
8000651e:	fa c8 fb b4 	sub	r8,sp,-1100
80006522:	04 9a       	mov	r10,r2
80006524:	1a d8       	st.w	--sp,r8
80006526:	08 9c       	mov	r12,r4
80006528:	fa c8 f9 40 	sub	r8,sp,-1728
8000652c:	fa c9 ff b4 	sub	r9,sp,-76
80006530:	fe b0 f4 08 	rcall	80004d40 <get_arg>
80006534:	2f dd       	sub	sp,-12
80006536:	78 0b       	ld.w	r11,r12[0x0]
80006538:	c2 48       	rjmp	80006580 <_vfprintf_r+0x1510>
8000653a:	ee ca ff ff 	sub	r10,r7,-1
8000653e:	10 37       	cp.w	r7,r8
80006540:	c0 94       	brge	80006552 <_vfprintf_r+0x14e2>
80006542:	fa c9 f9 44 	sub	r9,sp,-1724
80006546:	f2 06 00 36 	add	r6,r9,r6<<0x3
8000654a:	14 97       	mov	r7,r10
8000654c:	ec fb fd 88 	ld.w	r11,r6[-632]
80006550:	c1 88       	rjmp	80006580 <_vfprintf_r+0x1510>
80006552:	41 09       	lddsp	r9,sp[0x40]
80006554:	59 f8       	cp.w	r8,31
80006556:	e0 89 00 11 	brgt	80006578 <_vfprintf_r+0x1508>
8000655a:	f2 cb ff fc 	sub	r11,r9,-4
8000655e:	51 0b       	stdsp	sp[0x40],r11
80006560:	fa c6 f9 44 	sub	r6,sp,-1724
80006564:	72 0b       	ld.w	r11,r9[0x0]
80006566:	ec 08 00 39 	add	r9,r6,r8<<0x3
8000656a:	f3 4b fd 88 	st.w	r9[-632],r11
8000656e:	2f f8       	sub	r8,-1
80006570:	14 97       	mov	r7,r10
80006572:	fb 48 06 b4 	st.w	sp[1716],r8
80006576:	c0 58       	rjmp	80006580 <_vfprintf_r+0x1510>
80006578:	72 0b       	ld.w	r11,r9[0x0]
8000657a:	14 97       	mov	r7,r10
8000657c:	2f c9       	sub	r9,-4
8000657e:	51 09       	stdsp	sp[0x40],r9
80006580:	50 1b       	stdsp	sp[0x4],r11
80006582:	30 0e       	mov	lr,0
80006584:	50 0e       	stdsp	sp[0x0],lr
80006586:	40 08       	lddsp	r8,sp[0x0]
80006588:	40 1c       	lddsp	r12,sp[0x4]
8000658a:	18 48       	or	r8,r12
8000658c:	5f 19       	srne	r9
8000658e:	0a 98       	mov	r8,r5
80006590:	eb e9 00 09 	and	r9,r5,r9
80006594:	a1 b8       	sbr	r8,0x1
80006596:	58 09       	cp.w	r9,0
80006598:	c0 70       	breq	800065a6 <_vfprintf_r+0x1536>
8000659a:	10 95       	mov	r5,r8
8000659c:	fb 60 06 b9 	st.b	sp[1721],r0
800065a0:	33 08       	mov	r8,48
800065a2:	fb 68 06 b8 	st.b	sp[1720],r8
800065a6:	30 28       	mov	r8,2
800065a8:	30 09       	mov	r9,0
800065aa:	fb 69 06 bb 	st.b	sp[1723],r9
800065ae:	0a 99       	mov	r9,r5
800065b0:	a7 d9       	cbr	r9,0x7
800065b2:	40 2b       	lddsp	r11,sp[0x8]
800065b4:	40 16       	lddsp	r6,sp[0x4]
800065b6:	58 0b       	cp.w	r11,0
800065b8:	5f 1a       	srne	r10
800065ba:	f2 05 17 40 	movge	r5,r9
800065be:	fa c2 f9 78 	sub	r2,sp,-1672
800065c2:	40 09       	lddsp	r9,sp[0x0]
800065c4:	0c 49       	or	r9,r6
800065c6:	5f 19       	srne	r9
800065c8:	f5 e9 10 09 	or	r9,r10,r9
800065cc:	c5 c0       	breq	80006684 <_vfprintf_r+0x1614>
800065ce:	30 19       	mov	r9,1
800065d0:	f2 08 18 00 	cp.b	r8,r9
800065d4:	c0 60       	breq	800065e0 <_vfprintf_r+0x1570>
800065d6:	30 29       	mov	r9,2
800065d8:	f2 08 18 00 	cp.b	r8,r9
800065dc:	c0 41       	brne	800065e4 <_vfprintf_r+0x1574>
800065de:	c3 c8       	rjmp	80006656 <_vfprintf_r+0x15e6>
800065e0:	04 96       	mov	r6,r2
800065e2:	c3 08       	rjmp	80006642 <_vfprintf_r+0x15d2>
800065e4:	04 96       	mov	r6,r2
800065e6:	fa e8 00 00 	ld.d	r8,sp[0]
800065ea:	f5 d8 c0 03 	bfextu	r10,r8,0x0,0x3
800065ee:	2d 0a       	sub	r10,-48
800065f0:	0c fa       	st.b	--r6,r10
800065f2:	f0 0b 16 03 	lsr	r11,r8,0x3
800065f6:	f2 0c 16 03 	lsr	r12,r9,0x3
800065fa:	f7 e9 11 db 	or	r11,r11,r9<<0x1d
800065fe:	18 99       	mov	r9,r12
80006600:	16 98       	mov	r8,r11
80006602:	58 08       	cp.w	r8,0
80006604:	5c 29       	cpc	r9
80006606:	cf 21       	brne	800065ea <_vfprintf_r+0x157a>
80006608:	fa e9 00 00 	st.d	sp[0],r8
8000660c:	ed b5 00 00 	bld	r5,0x0
80006610:	c4 51       	brne	8000669a <_vfprintf_r+0x162a>
80006612:	33 09       	mov	r9,48
80006614:	f2 0a 18 00 	cp.b	r10,r9
80006618:	c4 10       	breq	8000669a <_vfprintf_r+0x162a>
8000661a:	0c f9       	st.b	--r6,r9
8000661c:	c3 f8       	rjmp	8000669a <_vfprintf_r+0x162a>
8000661e:	fa ea 00 00 	ld.d	r10,sp[0]
80006622:	30 a8       	mov	r8,10
80006624:	30 09       	mov	r9,0
80006626:	e0 a0 16 46 	rcall	800092b2 <__avr32_umod64>
8000662a:	30 a8       	mov	r8,10
8000662c:	2d 0a       	sub	r10,-48
8000662e:	30 09       	mov	r9,0
80006630:	ac 8a       	st.b	r6[0x0],r10
80006632:	fa ea 00 00 	ld.d	r10,sp[0]
80006636:	e0 a0 15 0c 	rcall	8000904e <__avr32_udiv64>
8000663a:	16 99       	mov	r9,r11
8000663c:	14 98       	mov	r8,r10
8000663e:	fa e9 00 00 	st.d	sp[0],r8
80006642:	20 16       	sub	r6,1
80006644:	fa ea 00 00 	ld.d	r10,sp[0]
80006648:	58 9a       	cp.w	r10,9
8000664a:	5c 2b       	cpc	r11
8000664c:	fe 9b ff e9 	brhi	8000661e <_vfprintf_r+0x15ae>
80006650:	1b f8       	ld.ub	r8,sp[0x7]
80006652:	2d 08       	sub	r8,-48
80006654:	c2 08       	rjmp	80006694 <_vfprintf_r+0x1624>
80006656:	04 96       	mov	r6,r2
80006658:	fa e8 00 00 	ld.d	r8,sp[0]
8000665c:	f5 d8 c0 04 	bfextu	r10,r8,0x0,0x4
80006660:	40 de       	lddsp	lr,sp[0x34]
80006662:	fc 0a 07 0a 	ld.ub	r10,lr[r10]
80006666:	0c fa       	st.b	--r6,r10
80006668:	f2 0b 16 04 	lsr	r11,r9,0x4
8000666c:	f0 0a 16 04 	lsr	r10,r8,0x4
80006670:	f5 e9 11 ca 	or	r10,r10,r9<<0x1c
80006674:	16 99       	mov	r9,r11
80006676:	14 98       	mov	r8,r10
80006678:	58 08       	cp.w	r8,0
8000667a:	5c 29       	cpc	r9
8000667c:	cf 01       	brne	8000665c <_vfprintf_r+0x15ec>
8000667e:	fa e9 00 00 	st.d	sp[0],r8
80006682:	c0 c8       	rjmp	8000669a <_vfprintf_r+0x162a>
80006684:	58 08       	cp.w	r8,0
80006686:	c0 91       	brne	80006698 <_vfprintf_r+0x1628>
80006688:	ed b5 00 00 	bld	r5,0x0
8000668c:	c0 61       	brne	80006698 <_vfprintf_r+0x1628>
8000668e:	fa c6 f9 79 	sub	r6,sp,-1671
80006692:	33 08       	mov	r8,48
80006694:	ac 88       	st.b	r6[0x0],r8
80006696:	c0 28       	rjmp	8000669a <_vfprintf_r+0x162a>
80006698:	04 96       	mov	r6,r2
8000669a:	0c 12       	sub	r2,r6
8000669c:	c1 c8       	rjmp	800066d4 <_vfprintf_r+0x1664>
8000669e:	50 a7       	stdsp	sp[0x28],r7
800066a0:	50 80       	stdsp	sp[0x20],r0
800066a2:	40 93       	lddsp	r3,sp[0x24]
800066a4:	0c 97       	mov	r7,r6
800066a6:	10 90       	mov	r0,r8
800066a8:	04 94       	mov	r4,r2
800066aa:	40 41       	lddsp	r1,sp[0x10]
800066ac:	58 08       	cp.w	r8,0
800066ae:	e0 80 04 4f 	breq	80006f4c <_vfprintf_r+0x1edc>
800066b2:	fb 68 06 60 	st.b	sp[1632],r8
800066b6:	30 0c       	mov	r12,0
800066b8:	30 08       	mov	r8,0
800066ba:	30 12       	mov	r2,1
800066bc:	fb 68 06 bb 	st.b	sp[1723],r8
800066c0:	50 2c       	stdsp	sp[0x8],r12
800066c2:	fa c6 f9 a0 	sub	r6,sp,-1632
800066c6:	c0 78       	rjmp	800066d4 <_vfprintf_r+0x1664>
800066c8:	30 0b       	mov	r11,0
800066ca:	50 2b       	stdsp	sp[0x8],r11
800066cc:	c0 48       	rjmp	800066d4 <_vfprintf_r+0x1664>
800066ce:	40 22       	lddsp	r2,sp[0x8]
800066d0:	30 0a       	mov	r10,0
800066d2:	50 2a       	stdsp	sp[0x8],r10
800066d4:	40 29       	lddsp	r9,sp[0x8]
800066d6:	e4 09 0c 49 	max	r9,r2,r9
800066da:	fb 38 06 bb 	ld.ub	r8,sp[1723]
800066de:	50 39       	stdsp	sp[0xc],r9
800066e0:	0a 9e       	mov	lr,r5
800066e2:	30 09       	mov	r9,0
800066e4:	e2 1e 00 02 	andl	lr,0x2,COH
800066e8:	f2 08 18 00 	cp.b	r8,r9
800066ec:	fb f8 10 03 	ld.wne	r8,sp[0xc]
800066f0:	f7 b8 01 ff 	subne	r8,-1
800066f4:	fb f8 1a 03 	st.wne	sp[0xc],r8
800066f8:	0a 9b       	mov	r11,r5
800066fa:	58 0e       	cp.w	lr,0
800066fc:	fb fc 10 03 	ld.wne	r12,sp[0xc]
80006700:	f7 bc 01 fe 	subne	r12,-2
80006704:	fb fc 1a 03 	st.wne	sp[0xc],r12
80006708:	e2 1b 00 84 	andl	r11,0x84,COH
8000670c:	50 fe       	stdsp	sp[0x3c],lr
8000670e:	50 9b       	stdsp	sp[0x24],r11
80006710:	c4 71       	brne	8000679e <_vfprintf_r+0x172e>
80006712:	40 8a       	lddsp	r10,sp[0x20]
80006714:	40 39       	lddsp	r9,sp[0xc]
80006716:	12 1a       	sub	r10,r9
80006718:	50 4a       	stdsp	sp[0x10],r10
8000671a:	58 0a       	cp.w	r10,0
8000671c:	e0 89 00 20 	brgt	8000675c <_vfprintf_r+0x16ec>
80006720:	c3 f8       	rjmp	8000679e <_vfprintf_r+0x172e>
80006722:	2f 09       	sub	r9,-16
80006724:	2f f8       	sub	r8,-1
80006726:	fe ce c9 86 	sub	lr,pc,-13946
8000672a:	31 0c       	mov	r12,16
8000672c:	fb 49 06 90 	st.w	sp[1680],r9
80006730:	87 0e       	st.w	r3[0x0],lr
80006732:	87 1c       	st.w	r3[0x4],r12
80006734:	fb 48 06 8c 	st.w	sp[1676],r8
80006738:	58 78       	cp.w	r8,7
8000673a:	e0 89 00 04 	brgt	80006742 <_vfprintf_r+0x16d2>
8000673e:	2f 83       	sub	r3,-8
80006740:	c0 b8       	rjmp	80006756 <_vfprintf_r+0x16e6>
80006742:	fa ca f9 78 	sub	r10,sp,-1672
80006746:	02 9b       	mov	r11,r1
80006748:	08 9c       	mov	r12,r4
8000674a:	fe b0 f4 85 	rcall	80005054 <__sprint_r>
8000674e:	e0 81 04 10 	brne	80006f6e <_vfprintf_r+0x1efe>
80006752:	fa c3 f9 e0 	sub	r3,sp,-1568
80006756:	40 4b       	lddsp	r11,sp[0x10]
80006758:	21 0b       	sub	r11,16
8000675a:	50 4b       	stdsp	sp[0x10],r11
8000675c:	fa f9 06 90 	ld.w	r9,sp[1680]
80006760:	fa f8 06 8c 	ld.w	r8,sp[1676]
80006764:	fe ca c9 c4 	sub	r10,pc,-13884
80006768:	40 4e       	lddsp	lr,sp[0x10]
8000676a:	59 0e       	cp.w	lr,16
8000676c:	fe 99 ff db 	brgt	80006722 <_vfprintf_r+0x16b2>
80006770:	1c 09       	add	r9,lr
80006772:	2f f8       	sub	r8,-1
80006774:	87 0a       	st.w	r3[0x0],r10
80006776:	fb 49 06 90 	st.w	sp[1680],r9
8000677a:	87 1e       	st.w	r3[0x4],lr
8000677c:	fb 48 06 8c 	st.w	sp[1676],r8
80006780:	58 78       	cp.w	r8,7
80006782:	e0 89 00 04 	brgt	8000678a <_vfprintf_r+0x171a>
80006786:	2f 83       	sub	r3,-8
80006788:	c0 b8       	rjmp	8000679e <_vfprintf_r+0x172e>
8000678a:	fa ca f9 78 	sub	r10,sp,-1672
8000678e:	02 9b       	mov	r11,r1
80006790:	08 9c       	mov	r12,r4
80006792:	fe b0 f4 61 	rcall	80005054 <__sprint_r>
80006796:	e0 81 03 ec 	brne	80006f6e <_vfprintf_r+0x1efe>
8000679a:	fa c3 f9 e0 	sub	r3,sp,-1568
8000679e:	30 09       	mov	r9,0
800067a0:	fb 38 06 bb 	ld.ub	r8,sp[1723]
800067a4:	f2 08 18 00 	cp.b	r8,r9
800067a8:	c1 f0       	breq	800067e6 <_vfprintf_r+0x1776>
800067aa:	fa f8 06 90 	ld.w	r8,sp[1680]
800067ae:	fa c9 f9 45 	sub	r9,sp,-1723
800067b2:	2f f8       	sub	r8,-1
800067b4:	87 09       	st.w	r3[0x0],r9
800067b6:	fb 48 06 90 	st.w	sp[1680],r8
800067ba:	30 19       	mov	r9,1
800067bc:	fa f8 06 8c 	ld.w	r8,sp[1676]
800067c0:	87 19       	st.w	r3[0x4],r9
800067c2:	2f f8       	sub	r8,-1
800067c4:	fb 48 06 8c 	st.w	sp[1676],r8
800067c8:	58 78       	cp.w	r8,7
800067ca:	e0 89 00 04 	brgt	800067d2 <_vfprintf_r+0x1762>
800067ce:	2f 83       	sub	r3,-8
800067d0:	c0 b8       	rjmp	800067e6 <_vfprintf_r+0x1776>
800067d2:	fa ca f9 78 	sub	r10,sp,-1672
800067d6:	02 9b       	mov	r11,r1
800067d8:	08 9c       	mov	r12,r4
800067da:	fe b0 f4 3d 	rcall	80005054 <__sprint_r>
800067de:	e0 81 03 c8 	brne	80006f6e <_vfprintf_r+0x1efe>
800067e2:	fa c3 f9 e0 	sub	r3,sp,-1568
800067e6:	40 fc       	lddsp	r12,sp[0x3c]
800067e8:	58 0c       	cp.w	r12,0
800067ea:	c1 f0       	breq	80006828 <_vfprintf_r+0x17b8>
800067ec:	fa f8 06 90 	ld.w	r8,sp[1680]
800067f0:	fa c9 f9 48 	sub	r9,sp,-1720
800067f4:	2f e8       	sub	r8,-2
800067f6:	87 09       	st.w	r3[0x0],r9
800067f8:	fb 48 06 90 	st.w	sp[1680],r8
800067fc:	30 29       	mov	r9,2
800067fe:	fa f8 06 8c 	ld.w	r8,sp[1676]
80006802:	87 19       	st.w	r3[0x4],r9
80006804:	2f f8       	sub	r8,-1
80006806:	fb 48 06 8c 	st.w	sp[1676],r8
8000680a:	58 78       	cp.w	r8,7
8000680c:	e0 89 00 04 	brgt	80006814 <_vfprintf_r+0x17a4>
80006810:	2f 83       	sub	r3,-8
80006812:	c0 b8       	rjmp	80006828 <_vfprintf_r+0x17b8>
80006814:	fa ca f9 78 	sub	r10,sp,-1672
80006818:	02 9b       	mov	r11,r1
8000681a:	08 9c       	mov	r12,r4
8000681c:	fe b0 f4 1c 	rcall	80005054 <__sprint_r>
80006820:	e0 81 03 a7 	brne	80006f6e <_vfprintf_r+0x1efe>
80006824:	fa c3 f9 e0 	sub	r3,sp,-1568
80006828:	40 9b       	lddsp	r11,sp[0x24]
8000682a:	e0 4b 00 80 	cp.w	r11,128
8000682e:	c4 71       	brne	800068bc <_vfprintf_r+0x184c>
80006830:	40 8a       	lddsp	r10,sp[0x20]
80006832:	40 39       	lddsp	r9,sp[0xc]
80006834:	12 1a       	sub	r10,r9
80006836:	50 4a       	stdsp	sp[0x10],r10
80006838:	58 0a       	cp.w	r10,0
8000683a:	e0 89 00 20 	brgt	8000687a <_vfprintf_r+0x180a>
8000683e:	c3 f8       	rjmp	800068bc <_vfprintf_r+0x184c>
80006840:	2f 09       	sub	r9,-16
80006842:	2f f8       	sub	r8,-1
80006844:	fe ce ca 94 	sub	lr,pc,-13676
80006848:	31 0c       	mov	r12,16
8000684a:	fb 49 06 90 	st.w	sp[1680],r9
8000684e:	87 0e       	st.w	r3[0x0],lr
80006850:	87 1c       	st.w	r3[0x4],r12
80006852:	fb 48 06 8c 	st.w	sp[1676],r8
80006856:	58 78       	cp.w	r8,7
80006858:	e0 89 00 04 	brgt	80006860 <_vfprintf_r+0x17f0>
8000685c:	2f 83       	sub	r3,-8
8000685e:	c0 b8       	rjmp	80006874 <_vfprintf_r+0x1804>
80006860:	fa ca f9 78 	sub	r10,sp,-1672
80006864:	02 9b       	mov	r11,r1
80006866:	08 9c       	mov	r12,r4
80006868:	fe b0 f3 f6 	rcall	80005054 <__sprint_r>
8000686c:	e0 81 03 81 	brne	80006f6e <_vfprintf_r+0x1efe>
80006870:	fa c3 f9 e0 	sub	r3,sp,-1568
80006874:	40 4b       	lddsp	r11,sp[0x10]
80006876:	21 0b       	sub	r11,16
80006878:	50 4b       	stdsp	sp[0x10],r11
8000687a:	fa f9 06 90 	ld.w	r9,sp[1680]
8000687e:	fa f8 06 8c 	ld.w	r8,sp[1676]
80006882:	fe ca ca d2 	sub	r10,pc,-13614
80006886:	40 4e       	lddsp	lr,sp[0x10]
80006888:	59 0e       	cp.w	lr,16
8000688a:	fe 99 ff db 	brgt	80006840 <_vfprintf_r+0x17d0>
8000688e:	1c 09       	add	r9,lr
80006890:	2f f8       	sub	r8,-1
80006892:	87 0a       	st.w	r3[0x0],r10
80006894:	fb 49 06 90 	st.w	sp[1680],r9
80006898:	87 1e       	st.w	r3[0x4],lr
8000689a:	fb 48 06 8c 	st.w	sp[1676],r8
8000689e:	58 78       	cp.w	r8,7
800068a0:	e0 89 00 04 	brgt	800068a8 <_vfprintf_r+0x1838>
800068a4:	2f 83       	sub	r3,-8
800068a6:	c0 b8       	rjmp	800068bc <_vfprintf_r+0x184c>
800068a8:	fa ca f9 78 	sub	r10,sp,-1672
800068ac:	02 9b       	mov	r11,r1
800068ae:	08 9c       	mov	r12,r4
800068b0:	fe b0 f3 d2 	rcall	80005054 <__sprint_r>
800068b4:	e0 81 03 5d 	brne	80006f6e <_vfprintf_r+0x1efe>
800068b8:	fa c3 f9 e0 	sub	r3,sp,-1568
800068bc:	40 2c       	lddsp	r12,sp[0x8]
800068be:	04 1c       	sub	r12,r2
800068c0:	50 2c       	stdsp	sp[0x8],r12
800068c2:	58 0c       	cp.w	r12,0
800068c4:	e0 89 00 20 	brgt	80006904 <_vfprintf_r+0x1894>
800068c8:	c3 f8       	rjmp	80006946 <_vfprintf_r+0x18d6>
800068ca:	2f 09       	sub	r9,-16
800068cc:	2f f8       	sub	r8,-1
800068ce:	fe cb cb 1e 	sub	r11,pc,-13538
800068d2:	31 0a       	mov	r10,16
800068d4:	fb 49 06 90 	st.w	sp[1680],r9
800068d8:	87 0b       	st.w	r3[0x0],r11
800068da:	87 1a       	st.w	r3[0x4],r10
800068dc:	fb 48 06 8c 	st.w	sp[1676],r8
800068e0:	58 78       	cp.w	r8,7
800068e2:	e0 89 00 04 	brgt	800068ea <_vfprintf_r+0x187a>
800068e6:	2f 83       	sub	r3,-8
800068e8:	c0 b8       	rjmp	800068fe <_vfprintf_r+0x188e>
800068ea:	fa ca f9 78 	sub	r10,sp,-1672
800068ee:	02 9b       	mov	r11,r1
800068f0:	08 9c       	mov	r12,r4
800068f2:	fe b0 f3 b1 	rcall	80005054 <__sprint_r>
800068f6:	e0 81 03 3c 	brne	80006f6e <_vfprintf_r+0x1efe>
800068fa:	fa c3 f9 e0 	sub	r3,sp,-1568
800068fe:	40 29       	lddsp	r9,sp[0x8]
80006900:	21 09       	sub	r9,16
80006902:	50 29       	stdsp	sp[0x8],r9
80006904:	fa f9 06 90 	ld.w	r9,sp[1680]
80006908:	fa f8 06 8c 	ld.w	r8,sp[1676]
8000690c:	fe ca cb 5c 	sub	r10,pc,-13476
80006910:	40 2e       	lddsp	lr,sp[0x8]
80006912:	59 0e       	cp.w	lr,16
80006914:	fe 99 ff db 	brgt	800068ca <_vfprintf_r+0x185a>
80006918:	1c 09       	add	r9,lr
8000691a:	2f f8       	sub	r8,-1
8000691c:	87 0a       	st.w	r3[0x0],r10
8000691e:	fb 49 06 90 	st.w	sp[1680],r9
80006922:	87 1e       	st.w	r3[0x4],lr
80006924:	fb 48 06 8c 	st.w	sp[1676],r8
80006928:	58 78       	cp.w	r8,7
8000692a:	e0 89 00 04 	brgt	80006932 <_vfprintf_r+0x18c2>
8000692e:	2f 83       	sub	r3,-8
80006930:	c0 b8       	rjmp	80006946 <_vfprintf_r+0x18d6>
80006932:	fa ca f9 78 	sub	r10,sp,-1672
80006936:	02 9b       	mov	r11,r1
80006938:	08 9c       	mov	r12,r4
8000693a:	fe b0 f3 8d 	rcall	80005054 <__sprint_r>
8000693e:	e0 81 03 18 	brne	80006f6e <_vfprintf_r+0x1efe>
80006942:	fa c3 f9 e0 	sub	r3,sp,-1568
80006946:	ed b5 00 08 	bld	r5,0x8
8000694a:	c0 b0       	breq	80006960 <_vfprintf_r+0x18f0>
8000694c:	fa f8 06 90 	ld.w	r8,sp[1680]
80006950:	87 12       	st.w	r3[0x4],r2
80006952:	87 06       	st.w	r3[0x0],r6
80006954:	f0 02 00 02 	add	r2,r8,r2
80006958:	fb 42 06 90 	st.w	sp[1680],r2
8000695c:	e0 8f 01 d4 	bral	80006d04 <_vfprintf_r+0x1c94>
80006960:	e0 40 00 65 	cp.w	r0,101
80006964:	e0 8a 01 d6 	brle	80006d10 <_vfprintf_r+0x1ca0>
80006968:	30 08       	mov	r8,0
8000696a:	30 09       	mov	r9,0
8000696c:	40 5b       	lddsp	r11,sp[0x14]
8000696e:	40 7a       	lddsp	r10,sp[0x1c]
80006970:	e0 a0 13 28 	rcall	80008fc0 <__avr32_f64_cmp_eq>
80006974:	c7 90       	breq	80006a66 <_vfprintf_r+0x19f6>
80006976:	fa f8 06 90 	ld.w	r8,sp[1680]
8000697a:	fe c9 ce d2 	sub	r9,pc,-12590
8000697e:	2f f8       	sub	r8,-1
80006980:	87 09       	st.w	r3[0x0],r9
80006982:	fb 48 06 90 	st.w	sp[1680],r8
80006986:	30 19       	mov	r9,1
80006988:	fa f8 06 8c 	ld.w	r8,sp[1676]
8000698c:	87 19       	st.w	r3[0x4],r9
8000698e:	2f f8       	sub	r8,-1
80006990:	fb 48 06 8c 	st.w	sp[1676],r8
80006994:	58 78       	cp.w	r8,7
80006996:	e0 89 00 05 	brgt	800069a0 <_vfprintf_r+0x1930>
8000699a:	2f 83       	sub	r3,-8
8000699c:	c0 c8       	rjmp	800069b4 <_vfprintf_r+0x1944>
8000699e:	d7 03       	nop
800069a0:	fa ca f9 78 	sub	r10,sp,-1672
800069a4:	02 9b       	mov	r11,r1
800069a6:	08 9c       	mov	r12,r4
800069a8:	fe b0 f3 56 	rcall	80005054 <__sprint_r>
800069ac:	e0 81 02 e1 	brne	80006f6e <_vfprintf_r+0x1efe>
800069b0:	fa c3 f9 e0 	sub	r3,sp,-1568
800069b4:	fa f8 06 ac 	ld.w	r8,sp[1708]
800069b8:	40 6c       	lddsp	r12,sp[0x18]
800069ba:	18 38       	cp.w	r8,r12
800069bc:	c0 55       	brlt	800069c6 <_vfprintf_r+0x1956>
800069be:	ed b5 00 00 	bld	r5,0x0
800069c2:	e0 81 02 6b 	brne	80006e98 <_vfprintf_r+0x1e28>
800069c6:	fa f8 06 90 	ld.w	r8,sp[1680]
800069ca:	2f f8       	sub	r8,-1
800069cc:	40 cb       	lddsp	r11,sp[0x30]
800069ce:	fb 48 06 90 	st.w	sp[1680],r8
800069d2:	30 19       	mov	r9,1
800069d4:	fa f8 06 8c 	ld.w	r8,sp[1676]
800069d8:	87 0b       	st.w	r3[0x0],r11
800069da:	2f f8       	sub	r8,-1
800069dc:	87 19       	st.w	r3[0x4],r9
800069de:	fb 48 06 8c 	st.w	sp[1676],r8
800069e2:	58 78       	cp.w	r8,7
800069e4:	e0 89 00 04 	brgt	800069ec <_vfprintf_r+0x197c>
800069e8:	2f 83       	sub	r3,-8
800069ea:	c0 b8       	rjmp	80006a00 <_vfprintf_r+0x1990>
800069ec:	fa ca f9 78 	sub	r10,sp,-1672
800069f0:	02 9b       	mov	r11,r1
800069f2:	08 9c       	mov	r12,r4
800069f4:	fe b0 f3 30 	rcall	80005054 <__sprint_r>
800069f8:	e0 81 02 bb 	brne	80006f6e <_vfprintf_r+0x1efe>
800069fc:	fa c3 f9 e0 	sub	r3,sp,-1568
80006a00:	40 66       	lddsp	r6,sp[0x18]
80006a02:	20 16       	sub	r6,1
80006a04:	58 06       	cp.w	r6,0
80006a06:	e0 89 00 1d 	brgt	80006a40 <_vfprintf_r+0x19d0>
80006a0a:	e0 8f 02 47 	bral	80006e98 <_vfprintf_r+0x1e28>
80006a0e:	2f 09       	sub	r9,-16
80006a10:	2f f8       	sub	r8,-1
80006a12:	fb 49 06 90 	st.w	sp[1680],r9
80006a16:	87 02       	st.w	r3[0x0],r2
80006a18:	87 10       	st.w	r3[0x4],r0
80006a1a:	fb 48 06 8c 	st.w	sp[1676],r8
80006a1e:	58 78       	cp.w	r8,7
80006a20:	e0 89 00 04 	brgt	80006a28 <_vfprintf_r+0x19b8>
80006a24:	2f 83       	sub	r3,-8
80006a26:	c0 b8       	rjmp	80006a3c <_vfprintf_r+0x19cc>
80006a28:	fa ca f9 78 	sub	r10,sp,-1672
80006a2c:	02 9b       	mov	r11,r1
80006a2e:	08 9c       	mov	r12,r4
80006a30:	fe b0 f3 12 	rcall	80005054 <__sprint_r>
80006a34:	e0 81 02 9d 	brne	80006f6e <_vfprintf_r+0x1efe>
80006a38:	fa c3 f9 e0 	sub	r3,sp,-1568
80006a3c:	21 06       	sub	r6,16
80006a3e:	c0 48       	rjmp	80006a46 <_vfprintf_r+0x19d6>
80006a40:	fe c2 cc 90 	sub	r2,pc,-13168
80006a44:	31 00       	mov	r0,16
80006a46:	fa f9 06 90 	ld.w	r9,sp[1680]
80006a4a:	fa f8 06 8c 	ld.w	r8,sp[1676]
80006a4e:	fe ca cc 9e 	sub	r10,pc,-13154
80006a52:	59 06       	cp.w	r6,16
80006a54:	fe 99 ff dd 	brgt	80006a0e <_vfprintf_r+0x199e>
80006a58:	0c 09       	add	r9,r6
80006a5a:	87 0a       	st.w	r3[0x0],r10
80006a5c:	fb 49 06 90 	st.w	sp[1680],r9
80006a60:	2f f8       	sub	r8,-1
80006a62:	87 16       	st.w	r3[0x4],r6
80006a64:	c5 39       	rjmp	80006d0a <_vfprintf_r+0x1c9a>
80006a66:	fa fa 06 ac 	ld.w	r10,sp[1708]
80006a6a:	58 0a       	cp.w	r10,0
80006a6c:	e0 89 00 92 	brgt	80006b90 <_vfprintf_r+0x1b20>
80006a70:	fa f8 06 90 	ld.w	r8,sp[1680]
80006a74:	fe c9 cf cc 	sub	r9,pc,-12340
80006a78:	2f f8       	sub	r8,-1
80006a7a:	87 09       	st.w	r3[0x0],r9
80006a7c:	fb 48 06 90 	st.w	sp[1680],r8
80006a80:	30 19       	mov	r9,1
80006a82:	fa f8 06 8c 	ld.w	r8,sp[1676]
80006a86:	87 19       	st.w	r3[0x4],r9
80006a88:	2f f8       	sub	r8,-1
80006a8a:	fb 48 06 8c 	st.w	sp[1676],r8
80006a8e:	58 78       	cp.w	r8,7
80006a90:	e0 89 00 04 	brgt	80006a98 <_vfprintf_r+0x1a28>
80006a94:	2f 83       	sub	r3,-8
80006a96:	c0 b8       	rjmp	80006aac <_vfprintf_r+0x1a3c>
80006a98:	fa ca f9 78 	sub	r10,sp,-1672
80006a9c:	02 9b       	mov	r11,r1
80006a9e:	08 9c       	mov	r12,r4
80006aa0:	fe b0 f2 da 	rcall	80005054 <__sprint_r>
80006aa4:	e0 81 02 65 	brne	80006f6e <_vfprintf_r+0x1efe>
80006aa8:	fa c3 f9 e0 	sub	r3,sp,-1568
80006aac:	fa f8 06 ac 	ld.w	r8,sp[1708]
80006ab0:	58 08       	cp.w	r8,0
80006ab2:	c0 81       	brne	80006ac2 <_vfprintf_r+0x1a52>
80006ab4:	40 6a       	lddsp	r10,sp[0x18]
80006ab6:	58 0a       	cp.w	r10,0
80006ab8:	c0 51       	brne	80006ac2 <_vfprintf_r+0x1a52>
80006aba:	ed b5 00 00 	bld	r5,0x0
80006abe:	e0 81 01 ed 	brne	80006e98 <_vfprintf_r+0x1e28>
80006ac2:	40 c9       	lddsp	r9,sp[0x30]
80006ac4:	fa f8 06 90 	ld.w	r8,sp[1680]
80006ac8:	2f f8       	sub	r8,-1
80006aca:	87 09       	st.w	r3[0x0],r9
80006acc:	fb 48 06 90 	st.w	sp[1680],r8
80006ad0:	30 19       	mov	r9,1
80006ad2:	fa f8 06 8c 	ld.w	r8,sp[1676]
80006ad6:	87 19       	st.w	r3[0x4],r9
80006ad8:	2f f8       	sub	r8,-1
80006ada:	fb 48 06 8c 	st.w	sp[1676],r8
80006ade:	58 78       	cp.w	r8,7
80006ae0:	e0 89 00 04 	brgt	80006ae8 <_vfprintf_r+0x1a78>
80006ae4:	2f 83       	sub	r3,-8
80006ae6:	c0 b8       	rjmp	80006afc <_vfprintf_r+0x1a8c>
80006ae8:	fa ca f9 78 	sub	r10,sp,-1672
80006aec:	02 9b       	mov	r11,r1
80006aee:	08 9c       	mov	r12,r4
80006af0:	fe b0 f2 b2 	rcall	80005054 <__sprint_r>
80006af4:	e0 81 02 3d 	brne	80006f6e <_vfprintf_r+0x1efe>
80006af8:	fa c3 f9 e0 	sub	r3,sp,-1568
80006afc:	fa f2 06 ac 	ld.w	r2,sp[1708]
80006b00:	5c 32       	neg	r2
80006b02:	58 02       	cp.w	r2,0
80006b04:	e0 89 00 1d 	brgt	80006b3e <_vfprintf_r+0x1ace>
80006b08:	c3 d8       	rjmp	80006b82 <_vfprintf_r+0x1b12>
80006b0a:	2f 09       	sub	r9,-16
80006b0c:	2f f8       	sub	r8,-1
80006b0e:	31 0e       	mov	lr,16
80006b10:	fb 49 06 90 	st.w	sp[1680],r9
80006b14:	87 00       	st.w	r3[0x0],r0
80006b16:	87 1e       	st.w	r3[0x4],lr
80006b18:	fb 48 06 8c 	st.w	sp[1676],r8
80006b1c:	58 78       	cp.w	r8,7
80006b1e:	e0 89 00 04 	brgt	80006b26 <_vfprintf_r+0x1ab6>
80006b22:	2f 83       	sub	r3,-8
80006b24:	c0 b8       	rjmp	80006b3a <_vfprintf_r+0x1aca>
80006b26:	fa ca f9 78 	sub	r10,sp,-1672
80006b2a:	02 9b       	mov	r11,r1
80006b2c:	08 9c       	mov	r12,r4
80006b2e:	fe b0 f2 93 	rcall	80005054 <__sprint_r>
80006b32:	e0 81 02 1e 	brne	80006f6e <_vfprintf_r+0x1efe>
80006b36:	fa c3 f9 e0 	sub	r3,sp,-1568
80006b3a:	21 02       	sub	r2,16
80006b3c:	c0 38       	rjmp	80006b42 <_vfprintf_r+0x1ad2>
80006b3e:	fe c0 cd 8e 	sub	r0,pc,-12914
80006b42:	fa f9 06 90 	ld.w	r9,sp[1680]
80006b46:	fa f8 06 8c 	ld.w	r8,sp[1676]
80006b4a:	fe ca cd 9a 	sub	r10,pc,-12902
80006b4e:	59 02       	cp.w	r2,16
80006b50:	fe 99 ff dd 	brgt	80006b0a <_vfprintf_r+0x1a9a>
80006b54:	04 09       	add	r9,r2
80006b56:	2f f8       	sub	r8,-1
80006b58:	87 0a       	st.w	r3[0x0],r10
80006b5a:	fb 49 06 90 	st.w	sp[1680],r9
80006b5e:	87 12       	st.w	r3[0x4],r2
80006b60:	fb 48 06 8c 	st.w	sp[1676],r8
80006b64:	58 78       	cp.w	r8,7
80006b66:	e0 89 00 04 	brgt	80006b6e <_vfprintf_r+0x1afe>
80006b6a:	2f 83       	sub	r3,-8
80006b6c:	c0 b8       	rjmp	80006b82 <_vfprintf_r+0x1b12>
80006b6e:	fa ca f9 78 	sub	r10,sp,-1672
80006b72:	02 9b       	mov	r11,r1
80006b74:	08 9c       	mov	r12,r4
80006b76:	fe b0 f2 6f 	rcall	80005054 <__sprint_r>
80006b7a:	e0 81 01 fa 	brne	80006f6e <_vfprintf_r+0x1efe>
80006b7e:	fa c3 f9 e0 	sub	r3,sp,-1568
80006b82:	40 6c       	lddsp	r12,sp[0x18]
80006b84:	fa f8 06 90 	ld.w	r8,sp[1680]
80006b88:	87 06       	st.w	r3[0x0],r6
80006b8a:	87 1c       	st.w	r3[0x4],r12
80006b8c:	18 08       	add	r8,r12
80006b8e:	cb 98       	rjmp	80006d00 <_vfprintf_r+0x1c90>
80006b90:	fa f9 06 90 	ld.w	r9,sp[1680]
80006b94:	fa f8 06 8c 	ld.w	r8,sp[1676]
80006b98:	40 6b       	lddsp	r11,sp[0x18]
80006b9a:	16 3a       	cp.w	r10,r11
80006b9c:	c6 f5       	brlt	80006c7a <_vfprintf_r+0x1c0a>
80006b9e:	16 09       	add	r9,r11
80006ba0:	2f f8       	sub	r8,-1
80006ba2:	87 06       	st.w	r3[0x0],r6
80006ba4:	fb 49 06 90 	st.w	sp[1680],r9
80006ba8:	87 1b       	st.w	r3[0x4],r11
80006baa:	fb 48 06 8c 	st.w	sp[1676],r8
80006bae:	58 78       	cp.w	r8,7
80006bb0:	e0 89 00 04 	brgt	80006bb8 <_vfprintf_r+0x1b48>
80006bb4:	2f 83       	sub	r3,-8
80006bb6:	c0 b8       	rjmp	80006bcc <_vfprintf_r+0x1b5c>
80006bb8:	fa ca f9 78 	sub	r10,sp,-1672
80006bbc:	02 9b       	mov	r11,r1
80006bbe:	08 9c       	mov	r12,r4
80006bc0:	fe b0 f2 4a 	rcall	80005054 <__sprint_r>
80006bc4:	e0 81 01 d5 	brne	80006f6e <_vfprintf_r+0x1efe>
80006bc8:	fa c3 f9 e0 	sub	r3,sp,-1568
80006bcc:	fa f6 06 ac 	ld.w	r6,sp[1708]
80006bd0:	40 6a       	lddsp	r10,sp[0x18]
80006bd2:	14 16       	sub	r6,r10
80006bd4:	58 06       	cp.w	r6,0
80006bd6:	e0 89 00 1c 	brgt	80006c0e <_vfprintf_r+0x1b9e>
80006bda:	c3 d8       	rjmp	80006c54 <_vfprintf_r+0x1be4>
80006bdc:	2f 09       	sub	r9,-16
80006bde:	2f f8       	sub	r8,-1
80006be0:	fb 49 06 90 	st.w	sp[1680],r9
80006be4:	87 02       	st.w	r3[0x0],r2
80006be6:	87 10       	st.w	r3[0x4],r0
80006be8:	fb 48 06 8c 	st.w	sp[1676],r8
80006bec:	58 78       	cp.w	r8,7
80006bee:	e0 89 00 04 	brgt	80006bf6 <_vfprintf_r+0x1b86>
80006bf2:	2f 83       	sub	r3,-8
80006bf4:	c0 b8       	rjmp	80006c0a <_vfprintf_r+0x1b9a>
80006bf6:	fa ca f9 78 	sub	r10,sp,-1672
80006bfa:	02 9b       	mov	r11,r1
80006bfc:	08 9c       	mov	r12,r4
80006bfe:	fe b0 f2 2b 	rcall	80005054 <__sprint_r>
80006c02:	e0 81 01 b6 	brne	80006f6e <_vfprintf_r+0x1efe>
80006c06:	fa c3 f9 e0 	sub	r3,sp,-1568
80006c0a:	21 06       	sub	r6,16
80006c0c:	c0 48       	rjmp	80006c14 <_vfprintf_r+0x1ba4>
80006c0e:	fe c2 ce 5e 	sub	r2,pc,-12706
80006c12:	31 00       	mov	r0,16
80006c14:	fa f9 06 90 	ld.w	r9,sp[1680]
80006c18:	fa f8 06 8c 	ld.w	r8,sp[1676]
80006c1c:	fe ca ce 6c 	sub	r10,pc,-12692
80006c20:	59 06       	cp.w	r6,16
80006c22:	fe 99 ff dd 	brgt	80006bdc <_vfprintf_r+0x1b6c>
80006c26:	0c 09       	add	r9,r6
80006c28:	2f f8       	sub	r8,-1
80006c2a:	87 0a       	st.w	r3[0x0],r10
80006c2c:	fb 49 06 90 	st.w	sp[1680],r9
80006c30:	87 16       	st.w	r3[0x4],r6
80006c32:	fb 48 06 8c 	st.w	sp[1676],r8
80006c36:	58 78       	cp.w	r8,7
80006c38:	e0 89 00 04 	brgt	80006c40 <_vfprintf_r+0x1bd0>
80006c3c:	2f 83       	sub	r3,-8
80006c3e:	c0 b8       	rjmp	80006c54 <_vfprintf_r+0x1be4>
80006c40:	fa ca f9 78 	sub	r10,sp,-1672
80006c44:	02 9b       	mov	r11,r1
80006c46:	08 9c       	mov	r12,r4
80006c48:	fe b0 f2 06 	rcall	80005054 <__sprint_r>
80006c4c:	e0 81 01 91 	brne	80006f6e <_vfprintf_r+0x1efe>
80006c50:	fa c3 f9 e0 	sub	r3,sp,-1568
80006c54:	ed b5 00 00 	bld	r5,0x0
80006c58:	e0 81 01 20 	brne	80006e98 <_vfprintf_r+0x1e28>
80006c5c:	40 c9       	lddsp	r9,sp[0x30]
80006c5e:	fa f8 06 90 	ld.w	r8,sp[1680]
80006c62:	2f f8       	sub	r8,-1
80006c64:	87 09       	st.w	r3[0x0],r9
80006c66:	fb 48 06 90 	st.w	sp[1680],r8
80006c6a:	30 19       	mov	r9,1
80006c6c:	fa f8 06 8c 	ld.w	r8,sp[1676]
80006c70:	87 19       	st.w	r3[0x4],r9
80006c72:	2f f8       	sub	r8,-1
80006c74:	fb 48 06 8c 	st.w	sp[1676],r8
80006c78:	c0 29       	rjmp	80006e7c <_vfprintf_r+0x1e0c>
80006c7a:	14 09       	add	r9,r10
80006c7c:	2f f8       	sub	r8,-1
80006c7e:	fb 49 06 90 	st.w	sp[1680],r9
80006c82:	87 06       	st.w	r3[0x0],r6
80006c84:	87 1a       	st.w	r3[0x4],r10
80006c86:	fb 48 06 8c 	st.w	sp[1676],r8
80006c8a:	58 78       	cp.w	r8,7
80006c8c:	e0 89 00 04 	brgt	80006c94 <_vfprintf_r+0x1c24>
80006c90:	2f 83       	sub	r3,-8
80006c92:	c0 b8       	rjmp	80006ca8 <_vfprintf_r+0x1c38>
80006c94:	fa ca f9 78 	sub	r10,sp,-1672
80006c98:	02 9b       	mov	r11,r1
80006c9a:	08 9c       	mov	r12,r4
80006c9c:	fe b0 f1 dc 	rcall	80005054 <__sprint_r>
80006ca0:	e0 81 01 67 	brne	80006f6e <_vfprintf_r+0x1efe>
80006ca4:	fa c3 f9 e0 	sub	r3,sp,-1568
80006ca8:	40 c8       	lddsp	r8,sp[0x30]
80006caa:	87 08       	st.w	r3[0x0],r8
80006cac:	fa f8 06 90 	ld.w	r8,sp[1680]
80006cb0:	2f f8       	sub	r8,-1
80006cb2:	30 19       	mov	r9,1
80006cb4:	fb 48 06 90 	st.w	sp[1680],r8
80006cb8:	87 19       	st.w	r3[0x4],r9
80006cba:	fa f8 06 8c 	ld.w	r8,sp[1676]
80006cbe:	2f f8       	sub	r8,-1
80006cc0:	fb 48 06 8c 	st.w	sp[1676],r8
80006cc4:	fa f2 06 ac 	ld.w	r2,sp[1708]
80006cc8:	58 78       	cp.w	r8,7
80006cca:	e0 89 00 04 	brgt	80006cd2 <_vfprintf_r+0x1c62>
80006cce:	2f 83       	sub	r3,-8
80006cd0:	c0 b8       	rjmp	80006ce6 <_vfprintf_r+0x1c76>
80006cd2:	fa ca f9 78 	sub	r10,sp,-1672
80006cd6:	02 9b       	mov	r11,r1
80006cd8:	08 9c       	mov	r12,r4
80006cda:	fe b0 f1 bd 	rcall	80005054 <__sprint_r>
80006cde:	e0 81 01 48 	brne	80006f6e <_vfprintf_r+0x1efe>
80006ce2:	fa c3 f9 e0 	sub	r3,sp,-1568
80006ce6:	04 06       	add	r6,r2
80006ce8:	fa f8 06 ac 	ld.w	r8,sp[1708]
80006cec:	87 06       	st.w	r3[0x0],r6
80006cee:	fa f9 06 90 	ld.w	r9,sp[1680]
80006cf2:	40 66       	lddsp	r6,sp[0x18]
80006cf4:	40 6e       	lddsp	lr,sp[0x18]
80006cf6:	10 16       	sub	r6,r8
80006cf8:	f2 08 01 08 	sub	r8,r9,r8
80006cfc:	87 16       	st.w	r3[0x4],r6
80006cfe:	1c 08       	add	r8,lr
80006d00:	fb 48 06 90 	st.w	sp[1680],r8
80006d04:	fa f8 06 8c 	ld.w	r8,sp[1676]
80006d08:	2f f8       	sub	r8,-1
80006d0a:	fb 48 06 8c 	st.w	sp[1676],r8
80006d0e:	cb 78       	rjmp	80006e7c <_vfprintf_r+0x1e0c>
80006d10:	40 6c       	lddsp	r12,sp[0x18]
80006d12:	58 1c       	cp.w	r12,1
80006d14:	e0 89 00 06 	brgt	80006d20 <_vfprintf_r+0x1cb0>
80006d18:	ed b5 00 00 	bld	r5,0x0
80006d1c:	e0 81 00 85 	brne	80006e26 <_vfprintf_r+0x1db6>
80006d20:	fa f8 06 90 	ld.w	r8,sp[1680]
80006d24:	2f f8       	sub	r8,-1
80006d26:	30 19       	mov	r9,1
80006d28:	fb 48 06 90 	st.w	sp[1680],r8
80006d2c:	87 06       	st.w	r3[0x0],r6
80006d2e:	fa f8 06 8c 	ld.w	r8,sp[1676]
80006d32:	87 19       	st.w	r3[0x4],r9
80006d34:	2f f8       	sub	r8,-1
80006d36:	fb 48 06 8c 	st.w	sp[1676],r8
80006d3a:	58 78       	cp.w	r8,7
80006d3c:	e0 89 00 04 	brgt	80006d44 <_vfprintf_r+0x1cd4>
80006d40:	2f 83       	sub	r3,-8
80006d42:	c0 b8       	rjmp	80006d58 <_vfprintf_r+0x1ce8>
80006d44:	fa ca f9 78 	sub	r10,sp,-1672
80006d48:	02 9b       	mov	r11,r1
80006d4a:	08 9c       	mov	r12,r4
80006d4c:	fe b0 f1 84 	rcall	80005054 <__sprint_r>
80006d50:	e0 81 01 0f 	brne	80006f6e <_vfprintf_r+0x1efe>
80006d54:	fa c3 f9 e0 	sub	r3,sp,-1568
80006d58:	fa f8 06 90 	ld.w	r8,sp[1680]
80006d5c:	2f f8       	sub	r8,-1
80006d5e:	40 cb       	lddsp	r11,sp[0x30]
80006d60:	fb 48 06 90 	st.w	sp[1680],r8
80006d64:	30 19       	mov	r9,1
80006d66:	fa f8 06 8c 	ld.w	r8,sp[1676]
80006d6a:	87 0b       	st.w	r3[0x0],r11
80006d6c:	2f f8       	sub	r8,-1
80006d6e:	87 19       	st.w	r3[0x4],r9
80006d70:	fb 48 06 8c 	st.w	sp[1676],r8
80006d74:	58 78       	cp.w	r8,7
80006d76:	e0 89 00 05 	brgt	80006d80 <_vfprintf_r+0x1d10>
80006d7a:	2f 83       	sub	r3,-8
80006d7c:	c0 c8       	rjmp	80006d94 <_vfprintf_r+0x1d24>
80006d7e:	d7 03       	nop
80006d80:	fa ca f9 78 	sub	r10,sp,-1672
80006d84:	02 9b       	mov	r11,r1
80006d86:	08 9c       	mov	r12,r4
80006d88:	fe b0 f1 66 	rcall	80005054 <__sprint_r>
80006d8c:	e0 81 00 f1 	brne	80006f6e <_vfprintf_r+0x1efe>
80006d90:	fa c3 f9 e0 	sub	r3,sp,-1568
80006d94:	30 08       	mov	r8,0
80006d96:	30 09       	mov	r9,0
80006d98:	40 5b       	lddsp	r11,sp[0x14]
80006d9a:	40 7a       	lddsp	r10,sp[0x1c]
80006d9c:	e0 a0 11 12 	rcall	80008fc0 <__avr32_f64_cmp_eq>
80006da0:	40 68       	lddsp	r8,sp[0x18]
80006da2:	20 18       	sub	r8,1
80006da4:	58 0c       	cp.w	r12,0
80006da6:	c0 d1       	brne	80006dc0 <_vfprintf_r+0x1d50>
80006da8:	2f f6       	sub	r6,-1
80006daa:	87 18       	st.w	r3[0x4],r8
80006dac:	87 06       	st.w	r3[0x0],r6
80006dae:	fa f6 06 90 	ld.w	r6,sp[1680]
80006db2:	10 06       	add	r6,r8
80006db4:	fa f8 06 8c 	ld.w	r8,sp[1676]
80006db8:	fb 46 06 90 	st.w	sp[1680],r6
80006dbc:	2f f8       	sub	r8,-1
80006dbe:	c3 18       	rjmp	80006e20 <_vfprintf_r+0x1db0>
80006dc0:	10 96       	mov	r6,r8
80006dc2:	58 08       	cp.w	r8,0
80006dc4:	e0 89 00 1c 	brgt	80006dfc <_vfprintf_r+0x1d8c>
80006dc8:	c4 b8       	rjmp	80006e5e <_vfprintf_r+0x1dee>
80006dca:	2f 09       	sub	r9,-16
80006dcc:	2f f8       	sub	r8,-1
80006dce:	fb 49 06 90 	st.w	sp[1680],r9
80006dd2:	87 02       	st.w	r3[0x0],r2
80006dd4:	87 10       	st.w	r3[0x4],r0
80006dd6:	fb 48 06 8c 	st.w	sp[1676],r8
80006dda:	58 78       	cp.w	r8,7
80006ddc:	e0 89 00 04 	brgt	80006de4 <_vfprintf_r+0x1d74>
80006de0:	2f 83       	sub	r3,-8
80006de2:	c0 b8       	rjmp	80006df8 <_vfprintf_r+0x1d88>
80006de4:	fa ca f9 78 	sub	r10,sp,-1672
80006de8:	02 9b       	mov	r11,r1
80006dea:	08 9c       	mov	r12,r4
80006dec:	fe b0 f1 34 	rcall	80005054 <__sprint_r>
80006df0:	e0 81 00 bf 	brne	80006f6e <_vfprintf_r+0x1efe>
80006df4:	fa c3 f9 e0 	sub	r3,sp,-1568
80006df8:	21 06       	sub	r6,16
80006dfa:	c0 48       	rjmp	80006e02 <_vfprintf_r+0x1d92>
80006dfc:	fe c2 d0 4c 	sub	r2,pc,-12212
80006e00:	31 00       	mov	r0,16
80006e02:	fa f9 06 90 	ld.w	r9,sp[1680]
80006e06:	fa f8 06 8c 	ld.w	r8,sp[1676]
80006e0a:	fe ca d0 5a 	sub	r10,pc,-12198
80006e0e:	59 06       	cp.w	r6,16
80006e10:	fe 99 ff dd 	brgt	80006dca <_vfprintf_r+0x1d5a>
80006e14:	0c 09       	add	r9,r6
80006e16:	87 0a       	st.w	r3[0x0],r10
80006e18:	fb 49 06 90 	st.w	sp[1680],r9
80006e1c:	2f f8       	sub	r8,-1
80006e1e:	87 16       	st.w	r3[0x4],r6
80006e20:	fb 48 06 8c 	st.w	sp[1676],r8
80006e24:	c0 e8       	rjmp	80006e40 <_vfprintf_r+0x1dd0>
80006e26:	fa f8 06 90 	ld.w	r8,sp[1680]
80006e2a:	2f f8       	sub	r8,-1
80006e2c:	30 19       	mov	r9,1
80006e2e:	fb 48 06 90 	st.w	sp[1680],r8
80006e32:	87 06       	st.w	r3[0x0],r6
80006e34:	fa f8 06 8c 	ld.w	r8,sp[1676]
80006e38:	87 19       	st.w	r3[0x4],r9
80006e3a:	2f f8       	sub	r8,-1
80006e3c:	fb 48 06 8c 	st.w	sp[1676],r8
80006e40:	58 78       	cp.w	r8,7
80006e42:	e0 89 00 04 	brgt	80006e4a <_vfprintf_r+0x1dda>
80006e46:	2f 83       	sub	r3,-8
80006e48:	c0 b8       	rjmp	80006e5e <_vfprintf_r+0x1dee>
80006e4a:	fa ca f9 78 	sub	r10,sp,-1672
80006e4e:	02 9b       	mov	r11,r1
80006e50:	08 9c       	mov	r12,r4
80006e52:	fe b0 f1 01 	rcall	80005054 <__sprint_r>
80006e56:	e0 81 00 8c 	brne	80006f6e <_vfprintf_r+0x1efe>
80006e5a:	fa c3 f9 e0 	sub	r3,sp,-1568
80006e5e:	40 ea       	lddsp	r10,sp[0x38]
80006e60:	fa f8 06 90 	ld.w	r8,sp[1680]
80006e64:	14 08       	add	r8,r10
80006e66:	fa c9 f9 64 	sub	r9,sp,-1692
80006e6a:	fb 48 06 90 	st.w	sp[1680],r8
80006e6e:	87 1a       	st.w	r3[0x4],r10
80006e70:	fa f8 06 8c 	ld.w	r8,sp[1676]
80006e74:	87 09       	st.w	r3[0x0],r9
80006e76:	2f f8       	sub	r8,-1
80006e78:	fb 48 06 8c 	st.w	sp[1676],r8
80006e7c:	58 78       	cp.w	r8,7
80006e7e:	e0 89 00 04 	brgt	80006e86 <_vfprintf_r+0x1e16>
80006e82:	2f 83       	sub	r3,-8
80006e84:	c0 a8       	rjmp	80006e98 <_vfprintf_r+0x1e28>
80006e86:	fa ca f9 78 	sub	r10,sp,-1672
80006e8a:	02 9b       	mov	r11,r1
80006e8c:	08 9c       	mov	r12,r4
80006e8e:	fe b0 f0 e3 	rcall	80005054 <__sprint_r>
80006e92:	c6 e1       	brne	80006f6e <_vfprintf_r+0x1efe>
80006e94:	fa c3 f9 e0 	sub	r3,sp,-1568
80006e98:	e2 15 00 04 	andl	r5,0x4,COH
80006e9c:	c3 f0       	breq	80006f1a <_vfprintf_r+0x1eaa>
80006e9e:	40 86       	lddsp	r6,sp[0x20]
80006ea0:	40 39       	lddsp	r9,sp[0xc]
80006ea2:	12 16       	sub	r6,r9
80006ea4:	58 06       	cp.w	r6,0
80006ea6:	e0 89 00 1a 	brgt	80006eda <_vfprintf_r+0x1e6a>
80006eaa:	c3 88       	rjmp	80006f1a <_vfprintf_r+0x1eaa>
80006eac:	2f 09       	sub	r9,-16
80006eae:	2f f8       	sub	r8,-1
80006eb0:	fb 49 06 90 	st.w	sp[1680],r9
80006eb4:	87 05       	st.w	r3[0x0],r5
80006eb6:	87 12       	st.w	r3[0x4],r2
80006eb8:	fb 48 06 8c 	st.w	sp[1676],r8
80006ebc:	58 78       	cp.w	r8,7
80006ebe:	e0 89 00 04 	brgt	80006ec6 <_vfprintf_r+0x1e56>
80006ec2:	2f 83       	sub	r3,-8
80006ec4:	c0 98       	rjmp	80006ed6 <_vfprintf_r+0x1e66>
80006ec6:	00 9a       	mov	r10,r0
80006ec8:	02 9b       	mov	r11,r1
80006eca:	08 9c       	mov	r12,r4
80006ecc:	fe b0 f0 c4 	rcall	80005054 <__sprint_r>
80006ed0:	c4 f1       	brne	80006f6e <_vfprintf_r+0x1efe>
80006ed2:	fa c3 f9 e0 	sub	r3,sp,-1568
80006ed6:	21 06       	sub	r6,16
80006ed8:	c0 68       	rjmp	80006ee4 <_vfprintf_r+0x1e74>
80006eda:	fe c5 d1 3a 	sub	r5,pc,-11974
80006ede:	31 02       	mov	r2,16
80006ee0:	fa c0 f9 78 	sub	r0,sp,-1672
80006ee4:	fa f9 06 90 	ld.w	r9,sp[1680]
80006ee8:	fa f8 06 8c 	ld.w	r8,sp[1676]
80006eec:	fe ca d1 4c 	sub	r10,pc,-11956
80006ef0:	59 06       	cp.w	r6,16
80006ef2:	fe 99 ff dd 	brgt	80006eac <_vfprintf_r+0x1e3c>
80006ef6:	0c 09       	add	r9,r6
80006ef8:	2f f8       	sub	r8,-1
80006efa:	87 0a       	st.w	r3[0x0],r10
80006efc:	87 16       	st.w	r3[0x4],r6
80006efe:	fb 49 06 90 	st.w	sp[1680],r9
80006f02:	fb 48 06 8c 	st.w	sp[1676],r8
80006f06:	58 78       	cp.w	r8,7
80006f08:	e0 8a 00 09 	brle	80006f1a <_vfprintf_r+0x1eaa>
80006f0c:	fa ca f9 78 	sub	r10,sp,-1672
80006f10:	02 9b       	mov	r11,r1
80006f12:	08 9c       	mov	r12,r4
80006f14:	fe b0 f0 a0 	rcall	80005054 <__sprint_r>
80006f18:	c2 b1       	brne	80006f6e <_vfprintf_r+0x1efe>
80006f1a:	40 bc       	lddsp	r12,sp[0x2c]
80006f1c:	40 36       	lddsp	r6,sp[0xc]
80006f1e:	40 8e       	lddsp	lr,sp[0x20]
80006f20:	ec 0e 0c 48 	max	r8,r6,lr
80006f24:	10 0c       	add	r12,r8
80006f26:	50 bc       	stdsp	sp[0x2c],r12
80006f28:	fa f8 06 90 	ld.w	r8,sp[1680]
80006f2c:	58 08       	cp.w	r8,0
80006f2e:	c0 80       	breq	80006f3e <_vfprintf_r+0x1ece>
80006f30:	fa ca f9 78 	sub	r10,sp,-1672
80006f34:	02 9b       	mov	r11,r1
80006f36:	08 9c       	mov	r12,r4
80006f38:	fe b0 f0 8e 	rcall	80005054 <__sprint_r>
80006f3c:	c1 91       	brne	80006f6e <_vfprintf_r+0x1efe>
80006f3e:	30 0b       	mov	r11,0
80006f40:	fa c3 f9 e0 	sub	r3,sp,-1568
80006f44:	fb 4b 06 8c 	st.w	sp[1676],r11
80006f48:	fe 9f f1 22 	bral	8000518c <_vfprintf_r+0x11c>
80006f4c:	08 95       	mov	r5,r4
80006f4e:	fa f8 06 90 	ld.w	r8,sp[1680]
80006f52:	58 08       	cp.w	r8,0
80006f54:	c0 80       	breq	80006f64 <_vfprintf_r+0x1ef4>
80006f56:	08 9c       	mov	r12,r4
80006f58:	fa ca f9 78 	sub	r10,sp,-1672
80006f5c:	02 9b       	mov	r11,r1
80006f5e:	fe b0 f0 7b 	rcall	80005054 <__sprint_r>
80006f62:	c0 61       	brne	80006f6e <_vfprintf_r+0x1efe>
80006f64:	30 08       	mov	r8,0
80006f66:	fb 48 06 8c 	st.w	sp[1676],r8
80006f6a:	c0 28       	rjmp	80006f6e <_vfprintf_r+0x1efe>
80006f6c:	40 41       	lddsp	r1,sp[0x10]
80006f6e:	82 68       	ld.sh	r8,r1[0xc]
80006f70:	ed b8 00 06 	bld	r8,0x6
80006f74:	c0 31       	brne	80006f7a <_vfprintf_r+0x1f0a>
80006f76:	3f fa       	mov	r10,-1
80006f78:	50 ba       	stdsp	sp[0x2c],r10
80006f7a:	40 bc       	lddsp	r12,sp[0x2c]
80006f7c:	fe 3d f9 44 	sub	sp,-1724
80006f80:	d8 32       	popm	r0-r7,pc
80006f82:	d7 03       	nop

80006f84 <__swsetup_r>:
80006f84:	d4 21       	pushm	r4-r7,lr
80006f86:	e0 68 01 1c 	mov	r8,284
80006f8a:	18 96       	mov	r6,r12
80006f8c:	16 97       	mov	r7,r11
80006f8e:	70 0c       	ld.w	r12,r8[0x0]
80006f90:	58 0c       	cp.w	r12,0
80006f92:	c0 60       	breq	80006f9e <__swsetup_r+0x1a>
80006f94:	78 68       	ld.w	r8,r12[0x18]
80006f96:	58 08       	cp.w	r8,0
80006f98:	c0 31       	brne	80006f9e <__swsetup_r+0x1a>
80006f9a:	e0 a0 08 77 	rcall	80008088 <__sinit>
80006f9e:	fe c8 d0 ce 	sub	r8,pc,-12082
80006fa2:	10 37       	cp.w	r7,r8
80006fa4:	c0 61       	brne	80006fb0 <__swsetup_r+0x2c>
80006fa6:	e0 68 01 1c 	mov	r8,284
80006faa:	70 08       	ld.w	r8,r8[0x0]
80006fac:	70 07       	ld.w	r7,r8[0x0]
80006fae:	c1 28       	rjmp	80006fd2 <__swsetup_r+0x4e>
80006fb0:	fe c8 d0 c0 	sub	r8,pc,-12096
80006fb4:	10 37       	cp.w	r7,r8
80006fb6:	c0 61       	brne	80006fc2 <__swsetup_r+0x3e>
80006fb8:	e0 68 01 1c 	mov	r8,284
80006fbc:	70 08       	ld.w	r8,r8[0x0]
80006fbe:	70 17       	ld.w	r7,r8[0x4]
80006fc0:	c0 98       	rjmp	80006fd2 <__swsetup_r+0x4e>
80006fc2:	fe c8 d0 b2 	sub	r8,pc,-12110
80006fc6:	10 37       	cp.w	r7,r8
80006fc8:	c0 51       	brne	80006fd2 <__swsetup_r+0x4e>
80006fca:	e0 68 01 1c 	mov	r8,284
80006fce:	70 08       	ld.w	r8,r8[0x0]
80006fd0:	70 27       	ld.w	r7,r8[0x8]
80006fd2:	8e 68       	ld.sh	r8,r7[0xc]
80006fd4:	ed b8 00 03 	bld	r8,0x3
80006fd8:	c1 e0       	breq	80007014 <__swsetup_r+0x90>
80006fda:	ed b8 00 04 	bld	r8,0x4
80006fde:	c3 e1       	brne	8000705a <__swsetup_r+0xd6>
80006fe0:	ed b8 00 02 	bld	r8,0x2
80006fe4:	c1 51       	brne	8000700e <__swsetup_r+0x8a>
80006fe6:	6e db       	ld.w	r11,r7[0x34]
80006fe8:	58 0b       	cp.w	r11,0
80006fea:	c0 a0       	breq	80006ffe <__swsetup_r+0x7a>
80006fec:	ee c8 ff bc 	sub	r8,r7,-68
80006ff0:	10 3b       	cp.w	r11,r8
80006ff2:	c0 40       	breq	80006ffa <__swsetup_r+0x76>
80006ff4:	0c 9c       	mov	r12,r6
80006ff6:	e0 a0 08 e3 	rcall	800081bc <_free_r>
80006ffa:	30 08       	mov	r8,0
80006ffc:	8f d8       	st.w	r7[0x34],r8
80006ffe:	8e 68       	ld.sh	r8,r7[0xc]
80007000:	e0 18 ff db 	andl	r8,0xffdb
80007004:	ae 68       	st.h	r7[0xc],r8
80007006:	30 08       	mov	r8,0
80007008:	8f 18       	st.w	r7[0x4],r8
8000700a:	6e 48       	ld.w	r8,r7[0x10]
8000700c:	8f 08       	st.w	r7[0x0],r8
8000700e:	8e 68       	ld.sh	r8,r7[0xc]
80007010:	a3 b8       	sbr	r8,0x3
80007012:	ae 68       	st.h	r7[0xc],r8
80007014:	6e 48       	ld.w	r8,r7[0x10]
80007016:	58 08       	cp.w	r8,0
80007018:	c0 b1       	brne	8000702e <__swsetup_r+0xaa>
8000701a:	8e 68       	ld.sh	r8,r7[0xc]
8000701c:	e2 18 02 80 	andl	r8,0x280,COH
80007020:	e0 48 02 00 	cp.w	r8,512
80007024:	c0 50       	breq	8000702e <__swsetup_r+0xaa>
80007026:	0c 9c       	mov	r12,r6
80007028:	0e 9b       	mov	r11,r7
8000702a:	e0 a0 0b 03 	rcall	80008630 <__smakebuf_r>
8000702e:	8e 69       	ld.sh	r9,r7[0xc]
80007030:	f1 d9 c0 01 	bfextu	r8,r9,0x0,0x1
80007034:	c0 70       	breq	80007042 <__swsetup_r+0xbe>
80007036:	30 08       	mov	r8,0
80007038:	8f 28       	st.w	r7[0x8],r8
8000703a:	6e 58       	ld.w	r8,r7[0x14]
8000703c:	5c 38       	neg	r8
8000703e:	8f 68       	st.w	r7[0x18],r8
80007040:	c0 68       	rjmp	8000704c <__swsetup_r+0xc8>
80007042:	ed b9 00 01 	bld	r9,0x1
80007046:	ef f8 10 05 	ld.wne	r8,r7[0x14]
8000704a:	8f 28       	st.w	r7[0x8],r8
8000704c:	6e 48       	ld.w	r8,r7[0x10]
8000704e:	58 08       	cp.w	r8,0
80007050:	c0 61       	brne	8000705c <__swsetup_r+0xd8>
80007052:	8e 68       	ld.sh	r8,r7[0xc]
80007054:	ed b8 00 07 	bld	r8,0x7
80007058:	c0 21       	brne	8000705c <__swsetup_r+0xd8>
8000705a:	dc 2a       	popm	r4-r7,pc,r12=-1
8000705c:	d8 2a       	popm	r4-r7,pc,r12=0
8000705e:	d7 03       	nop

80007060 <__register_exitproc>:
80007060:	d4 31       	pushm	r0-r7,lr
80007062:	fe c8 d5 76 	sub	r8,pc,-10890
80007066:	70 03       	ld.w	r3,r8[0x0]
80007068:	67 24       	ld.w	r4,r3[0x48]
8000706a:	e6 c8 ff b4 	sub	r8,r3,-76
8000706e:	58 04       	cp.w	r4,0
80007070:	f0 04 17 00 	moveq	r4,r8
80007074:	e7 f4 0a 12 	st.weq	r3[0x48],r4
80007078:	18 97       	mov	r7,r12
8000707a:	16 96       	mov	r6,r11
8000707c:	14 95       	mov	r5,r10
8000707e:	12 92       	mov	r2,r9
80007080:	68 18       	ld.w	r8,r4[0x4]
80007082:	59 f8       	cp.w	r8,31
80007084:	e0 8a 00 0e 	brle	800070a0 <__register_exitproc+0x40>
80007088:	e0 6c 00 8c 	mov	r12,140
8000708c:	fe b0 e9 78 	rcall	8000437c <malloc>
80007090:	18 94       	mov	r4,r12
80007092:	c3 80       	breq	80007102 <__register_exitproc+0xa2>
80007094:	67 28       	ld.w	r8,r3[0x48]
80007096:	99 08       	st.w	r12[0x0],r8
80007098:	e7 4c 00 48 	st.w	r3[72],r12
8000709c:	30 08       	mov	r8,0
8000709e:	99 18       	st.w	r12[0x4],r8
800070a0:	58 07       	cp.w	r7,0
800070a2:	c2 70       	breq	800070f0 <__register_exitproc+0x90>
800070a4:	e8 fc 00 88 	ld.w	r12,r4[136]
800070a8:	58 0c       	cp.w	r12,0
800070aa:	c0 d1       	brne	800070c4 <__register_exitproc+0x64>
800070ac:	e0 6c 01 08 	mov	r12,264
800070b0:	fe b0 e9 66 	rcall	8000437c <malloc>
800070b4:	c2 70       	breq	80007102 <__register_exitproc+0xa2>
800070b6:	30 08       	mov	r8,0
800070b8:	e9 4c 00 88 	st.w	r4[136],r12
800070bc:	f9 48 01 04 	st.w	r12[260],r8
800070c0:	f9 48 01 00 	st.w	r12[256],r8
800070c4:	68 18       	ld.w	r8,r4[0x4]
800070c6:	f0 c9 ff e0 	sub	r9,r8,-32
800070ca:	f8 08 09 25 	st.w	r12[r8<<0x2],r5
800070ce:	f8 09 09 22 	st.w	r12[r9<<0x2],r2
800070d2:	30 1a       	mov	r10,1
800070d4:	f8 f9 01 00 	ld.w	r9,r12[256]
800070d8:	f4 08 09 48 	lsl	r8,r10,r8
800070dc:	10 49       	or	r9,r8
800070de:	f9 49 01 00 	st.w	r12[256],r9
800070e2:	58 27       	cp.w	r7,2
800070e4:	f9 f9 00 41 	ld.weq	r9,r12[0x104]
800070e8:	f3 d8 e0 38 	oreq	r8,r9,r8
800070ec:	f9 f8 0a 41 	st.weq	r12[0x104],r8
800070f0:	68 18       	ld.w	r8,r4[0x4]
800070f2:	30 0c       	mov	r12,0
800070f4:	f0 c9 ff ff 	sub	r9,r8,-1
800070f8:	2f e8       	sub	r8,-2
800070fa:	89 19       	st.w	r4[0x4],r9
800070fc:	e8 08 09 26 	st.w	r4[r8<<0x2],r6
80007100:	d8 32       	popm	r0-r7,pc
80007102:	dc 3a       	popm	r0-r7,pc,r12=-1

80007104 <__call_exitprocs>:
80007104:	d4 31       	pushm	r0-r7,lr
80007106:	20 3d       	sub	sp,12
80007108:	fe c8 d6 1c 	sub	r8,pc,-10724
8000710c:	50 2c       	stdsp	sp[0x8],r12
8000710e:	70 08       	ld.w	r8,r8[0x0]
80007110:	16 91       	mov	r1,r11
80007112:	50 08       	stdsp	sp[0x0],r8
80007114:	2b 88       	sub	r8,-72
80007116:	50 18       	stdsp	sp[0x4],r8
80007118:	40 0a       	lddsp	r10,sp[0x0]
8000711a:	40 14       	lddsp	r4,sp[0x4]
8000711c:	75 27       	ld.w	r7,r10[0x48]
8000711e:	c5 58       	rjmp	800071c8 <__call_exitprocs+0xc4>
80007120:	6e 15       	ld.w	r5,r7[0x4]
80007122:	ee f6 00 88 	ld.w	r6,r7[136]
80007126:	ea c2 ff ff 	sub	r2,r5,-1
8000712a:	20 15       	sub	r5,1
8000712c:	ee 02 00 22 	add	r2,r7,r2<<0x2
80007130:	ec 05 00 23 	add	r3,r6,r5<<0x2
80007134:	c3 58       	rjmp	8000719e <__call_exitprocs+0x9a>
80007136:	58 01       	cp.w	r1,0
80007138:	c0 70       	breq	80007146 <__call_exitprocs+0x42>
8000713a:	58 06       	cp.w	r6,0
8000713c:	c2 e0       	breq	80007198 <__call_exitprocs+0x94>
8000713e:	e6 f8 00 80 	ld.w	r8,r3[128]
80007142:	02 38       	cp.w	r8,r1
80007144:	c2 a1       	brne	80007198 <__call_exitprocs+0x94>
80007146:	6e 19       	ld.w	r9,r7[0x4]
80007148:	64 08       	ld.w	r8,r2[0x0]
8000714a:	20 19       	sub	r9,1
8000714c:	12 35       	cp.w	r5,r9
8000714e:	ef f5 0a 01 	st.weq	r7[0x4],r5
80007152:	f9 b9 01 00 	movne	r9,0
80007156:	e5 f9 1a 00 	st.wne	r2[0x0],r9
8000715a:	58 08       	cp.w	r8,0
8000715c:	c1 e0       	breq	80007198 <__call_exitprocs+0x94>
8000715e:	6e 10       	ld.w	r0,r7[0x4]
80007160:	58 06       	cp.w	r6,0
80007162:	c0 90       	breq	80007174 <__call_exitprocs+0x70>
80007164:	30 1a       	mov	r10,1
80007166:	f4 05 09 49 	lsl	r9,r10,r5
8000716a:	ec fa 01 00 	ld.w	r10,r6[256]
8000716e:	f3 ea 00 0a 	and	r10,r9,r10
80007172:	c0 31       	brne	80007178 <__call_exitprocs+0x74>
80007174:	5d 18       	icall	r8
80007176:	c0 b8       	rjmp	8000718c <__call_exitprocs+0x88>
80007178:	ec fa 01 04 	ld.w	r10,r6[260]
8000717c:	66 0b       	ld.w	r11,r3[0x0]
8000717e:	14 69       	and	r9,r10
80007180:	c0 41       	brne	80007188 <__call_exitprocs+0x84>
80007182:	40 2c       	lddsp	r12,sp[0x8]
80007184:	5d 18       	icall	r8
80007186:	c0 38       	rjmp	8000718c <__call_exitprocs+0x88>
80007188:	16 9c       	mov	r12,r11
8000718a:	5d 18       	icall	r8
8000718c:	6e 18       	ld.w	r8,r7[0x4]
8000718e:	10 30       	cp.w	r0,r8
80007190:	cc 41       	brne	80007118 <__call_exitprocs+0x14>
80007192:	68 08       	ld.w	r8,r4[0x0]
80007194:	0e 38       	cp.w	r8,r7
80007196:	cc 11       	brne	80007118 <__call_exitprocs+0x14>
80007198:	20 15       	sub	r5,1
8000719a:	20 43       	sub	r3,4
8000719c:	20 42       	sub	r2,4
8000719e:	58 05       	cp.w	r5,0
800071a0:	cc b4       	brge	80007136 <__call_exitprocs+0x32>
800071a2:	6e 18       	ld.w	r8,r7[0x4]
800071a4:	58 08       	cp.w	r8,0
800071a6:	c0 f1       	brne	800071c4 <__call_exitprocs+0xc0>
800071a8:	6e 08       	ld.w	r8,r7[0x0]
800071aa:	58 08       	cp.w	r8,0
800071ac:	c0 c0       	breq	800071c4 <__call_exitprocs+0xc0>
800071ae:	89 08       	st.w	r4[0x0],r8
800071b0:	58 06       	cp.w	r6,0
800071b2:	c0 40       	breq	800071ba <__call_exitprocs+0xb6>
800071b4:	0c 9c       	mov	r12,r6
800071b6:	fe b0 e8 db 	rcall	8000436c <free>
800071ba:	0e 9c       	mov	r12,r7
800071bc:	fe b0 e8 d8 	rcall	8000436c <free>
800071c0:	68 07       	ld.w	r7,r4[0x0]
800071c2:	c0 38       	rjmp	800071c8 <__call_exitprocs+0xc4>
800071c4:	0e 94       	mov	r4,r7
800071c6:	6e 07       	ld.w	r7,r7[0x0]
800071c8:	58 07       	cp.w	r7,0
800071ca:	ca b1       	brne	80007120 <__call_exitprocs+0x1c>
800071cc:	2f dd       	sub	sp,-12
800071ce:	d8 32       	popm	r0-r7,pc

800071d0 <quorem>:
800071d0:	d4 31       	pushm	r0-r7,lr
800071d2:	20 2d       	sub	sp,8
800071d4:	18 97       	mov	r7,r12
800071d6:	78 48       	ld.w	r8,r12[0x10]
800071d8:	76 46       	ld.w	r6,r11[0x10]
800071da:	0c 38       	cp.w	r8,r6
800071dc:	c0 34       	brge	800071e2 <quorem+0x12>
800071de:	30 0c       	mov	r12,0
800071e0:	c8 58       	rjmp	800072ea <quorem+0x11a>
800071e2:	ec c2 ff fc 	sub	r2,r6,-4
800071e6:	f6 c3 ff ec 	sub	r3,r11,-20
800071ea:	f6 02 03 29 	ld.w	r9,r11[r2<<0x2]
800071ee:	f8 02 03 2c 	ld.w	r12,r12[r2<<0x2]
800071f2:	2f f9       	sub	r9,-1
800071f4:	20 16       	sub	r6,1
800071f6:	f8 09 0d 08 	divu	r8,r12,r9
800071fa:	f6 02 00 22 	add	r2,r11,r2<<0x2
800071fe:	ee c4 ff ec 	sub	r4,r7,-20
80007202:	10 95       	mov	r5,r8
80007204:	58 08       	cp.w	r8,0
80007206:	c4 10       	breq	80007288 <quorem+0xb8>
80007208:	30 09       	mov	r9,0
8000720a:	06 9a       	mov	r10,r3
8000720c:	08 98       	mov	r8,r4
8000720e:	12 91       	mov	r1,r9
80007210:	50 0b       	stdsp	sp[0x0],r11
80007212:	70 0e       	ld.w	lr,r8[0x0]
80007214:	b1 8e       	lsr	lr,0x10
80007216:	50 1e       	stdsp	sp[0x4],lr
80007218:	15 0e       	ld.w	lr,r10++
8000721a:	fc 00 16 10 	lsr	r0,lr,0x10
8000721e:	fd de c0 10 	bfextu	lr,lr,0x0,0x10
80007222:	ea 0e 03 41 	mac	r1,r5,lr
80007226:	fd d1 c0 10 	bfextu	lr,r1,0x0,0x10
8000722a:	b1 81       	lsr	r1,0x10
8000722c:	40 1b       	lddsp	r11,sp[0x4]
8000722e:	ea 00 02 40 	mul	r0,r5,r0
80007232:	e2 00 00 00 	add	r0,r1,r0
80007236:	e3 d0 c0 10 	bfextu	r1,r0,0x0,0x10
8000723a:	02 1b       	sub	r11,r1
8000723c:	50 1b       	stdsp	sp[0x4],r11
8000723e:	70 0b       	ld.w	r11,r8[0x0]
80007240:	e3 db c0 10 	bfextu	r1,r11,0x0,0x10
80007244:	02 09       	add	r9,r1
80007246:	f2 0e 01 0e 	sub	lr,r9,lr
8000724a:	b0 1e       	st.h	r8[0x2],lr
8000724c:	fc 09 14 10 	asr	r9,lr,0x10
80007250:	40 1e       	lddsp	lr,sp[0x4]
80007252:	fc 09 00 09 	add	r9,lr,r9
80007256:	b0 09       	st.h	r8[0x0],r9
80007258:	e0 01 16 10 	lsr	r1,r0,0x10
8000725c:	2f c8       	sub	r8,-4
8000725e:	b1 49       	asr	r9,0x10
80007260:	04 3a       	cp.w	r10,r2
80007262:	fe 98 ff d8 	brls	80007212 <quorem+0x42>
80007266:	40 0b       	lddsp	r11,sp[0x0]
80007268:	58 0c       	cp.w	r12,0
8000726a:	c0 f1       	brne	80007288 <quorem+0xb8>
8000726c:	ec c8 ff fb 	sub	r8,r6,-5
80007270:	ee 08 00 28 	add	r8,r7,r8<<0x2
80007274:	c0 28       	rjmp	80007278 <quorem+0xa8>
80007276:	20 16       	sub	r6,1
80007278:	20 48       	sub	r8,4
8000727a:	08 38       	cp.w	r8,r4
8000727c:	e0 88 00 05 	brls	80007286 <quorem+0xb6>
80007280:	70 09       	ld.w	r9,r8[0x0]
80007282:	58 09       	cp.w	r9,0
80007284:	cf 90       	breq	80007276 <quorem+0xa6>
80007286:	8f 46       	st.w	r7[0x10],r6
80007288:	0e 9c       	mov	r12,r7
8000728a:	e0 a0 0a d2 	rcall	8000882e <__mcmp>
8000728e:	c2 d5       	brlt	800072e8 <quorem+0x118>
80007290:	2f f5       	sub	r5,-1
80007292:	08 98       	mov	r8,r4
80007294:	30 09       	mov	r9,0
80007296:	07 0b       	ld.w	r11,r3++
80007298:	f6 0a 16 10 	lsr	r10,r11,0x10
8000729c:	70 0c       	ld.w	r12,r8[0x0]
8000729e:	f7 db c0 10 	bfextu	r11,r11,0x0,0x10
800072a2:	f8 0e 16 10 	lsr	lr,r12,0x10
800072a6:	14 1e       	sub	lr,r10
800072a8:	f5 dc c0 10 	bfextu	r10,r12,0x0,0x10
800072ac:	16 1a       	sub	r10,r11
800072ae:	12 0a       	add	r10,r9
800072b0:	b0 1a       	st.h	r8[0x2],r10
800072b2:	b1 4a       	asr	r10,0x10
800072b4:	fc 0a 00 09 	add	r9,lr,r10
800072b8:	b0 09       	st.h	r8[0x0],r9
800072ba:	2f c8       	sub	r8,-4
800072bc:	b1 49       	asr	r9,0x10
800072be:	04 33       	cp.w	r3,r2
800072c0:	fe 98 ff eb 	brls	80007296 <quorem+0xc6>
800072c4:	ec c8 ff fb 	sub	r8,r6,-5
800072c8:	ee 08 03 29 	ld.w	r9,r7[r8<<0x2]
800072cc:	58 09       	cp.w	r9,0
800072ce:	c0 d1       	brne	800072e8 <quorem+0x118>
800072d0:	ee 08 00 28 	add	r8,r7,r8<<0x2
800072d4:	c0 28       	rjmp	800072d8 <quorem+0x108>
800072d6:	20 16       	sub	r6,1
800072d8:	20 48       	sub	r8,4
800072da:	08 38       	cp.w	r8,r4
800072dc:	e0 88 00 05 	brls	800072e6 <quorem+0x116>
800072e0:	70 09       	ld.w	r9,r8[0x0]
800072e2:	58 09       	cp.w	r9,0
800072e4:	cf 90       	breq	800072d6 <quorem+0x106>
800072e6:	8f 46       	st.w	r7[0x10],r6
800072e8:	0a 9c       	mov	r12,r5
800072ea:	2f ed       	sub	sp,-8
800072ec:	d8 32       	popm	r0-r7,pc
800072ee:	d7 03       	nop

800072f0 <_dtoa_r>:
800072f0:	d4 31       	pushm	r0-r7,lr
800072f2:	21 ad       	sub	sp,104
800072f4:	fa c4 ff 74 	sub	r4,sp,-140
800072f8:	18 97       	mov	r7,r12
800072fa:	16 95       	mov	r5,r11
800072fc:	68 2c       	ld.w	r12,r4[0x8]
800072fe:	50 c9       	stdsp	sp[0x30],r9
80007300:	68 16       	ld.w	r6,r4[0x4]
80007302:	68 09       	ld.w	r9,r4[0x0]
80007304:	50 e8       	stdsp	sp[0x38],r8
80007306:	14 94       	mov	r4,r10
80007308:	51 2c       	stdsp	sp[0x48],r12
8000730a:	fa e5 00 08 	st.d	sp[8],r4
8000730e:	51 59       	stdsp	sp[0x54],r9
80007310:	6e 95       	ld.w	r5,r7[0x24]
80007312:	58 05       	cp.w	r5,0
80007314:	c0 91       	brne	80007326 <_dtoa_r+0x36>
80007316:	31 0c       	mov	r12,16
80007318:	fe b0 e8 32 	rcall	8000437c <malloc>
8000731c:	99 35       	st.w	r12[0xc],r5
8000731e:	8f 9c       	st.w	r7[0x24],r12
80007320:	99 15       	st.w	r12[0x4],r5
80007322:	99 25       	st.w	r12[0x8],r5
80007324:	99 05       	st.w	r12[0x0],r5
80007326:	6e 99       	ld.w	r9,r7[0x24]
80007328:	72 08       	ld.w	r8,r9[0x0]
8000732a:	58 08       	cp.w	r8,0
8000732c:	c0 f0       	breq	8000734a <_dtoa_r+0x5a>
8000732e:	72 1a       	ld.w	r10,r9[0x4]
80007330:	91 1a       	st.w	r8[0x4],r10
80007332:	30 1a       	mov	r10,1
80007334:	72 19       	ld.w	r9,r9[0x4]
80007336:	f4 09 09 49 	lsl	r9,r10,r9
8000733a:	10 9b       	mov	r11,r8
8000733c:	91 29       	st.w	r8[0x8],r9
8000733e:	0e 9c       	mov	r12,r7
80007340:	e0 a0 0a 90 	rcall	80008860 <_Bfree>
80007344:	6e 98       	ld.w	r8,r7[0x24]
80007346:	30 09       	mov	r9,0
80007348:	91 09       	st.w	r8[0x0],r9
8000734a:	40 28       	lddsp	r8,sp[0x8]
8000734c:	10 94       	mov	r4,r8
8000734e:	58 08       	cp.w	r8,0
80007350:	c0 64       	brge	8000735c <_dtoa_r+0x6c>
80007352:	f1 d8 c0 1f 	bfextu	r8,r8,0x0,0x1f
80007356:	50 28       	stdsp	sp[0x8],r8
80007358:	30 18       	mov	r8,1
8000735a:	c0 28       	rjmp	8000735e <_dtoa_r+0x6e>
8000735c:	30 08       	mov	r8,0
8000735e:	8d 08       	st.w	r6[0x0],r8
80007360:	fc 1c 7f f0 	movh	r12,0x7ff0
80007364:	40 26       	lddsp	r6,sp[0x8]
80007366:	0c 98       	mov	r8,r6
80007368:	e6 18 7f f0 	andh	r8,0x7ff0,COH
8000736c:	18 38       	cp.w	r8,r12
8000736e:	c2 01       	brne	800073ae <_dtoa_r+0xbe>
80007370:	e0 68 27 0f 	mov	r8,9999
80007374:	41 5b       	lddsp	r11,sp[0x54]
80007376:	97 08       	st.w	r11[0x0],r8
80007378:	40 3a       	lddsp	r10,sp[0xc]
8000737a:	58 0a       	cp.w	r10,0
8000737c:	c0 71       	brne	8000738a <_dtoa_r+0x9a>
8000737e:	ed d6 c0 14 	bfextu	r6,r6,0x0,0x14
80007382:	c0 41       	brne	8000738a <_dtoa_r+0x9a>
80007384:	fe cc d4 c4 	sub	r12,pc,-11068
80007388:	c0 38       	rjmp	8000738e <_dtoa_r+0x9e>
8000738a:	fe cc d4 be 	sub	r12,pc,-11074
8000738e:	41 29       	lddsp	r9,sp[0x48]
80007390:	58 09       	cp.w	r9,0
80007392:	e0 80 05 9a 	breq	80007ec6 <_dtoa_r+0xbd6>
80007396:	f8 c8 ff fd 	sub	r8,r12,-3
8000739a:	f8 c9 ff f8 	sub	r9,r12,-8
8000739e:	11 8b       	ld.ub	r11,r8[0x0]
800073a0:	30 0a       	mov	r10,0
800073a2:	41 25       	lddsp	r5,sp[0x48]
800073a4:	f4 0b 18 00 	cp.b	r11,r10
800073a8:	f2 08 17 10 	movne	r8,r9
800073ac:	c1 68       	rjmp	800073d8 <_dtoa_r+0xe8>
800073ae:	fa ea 00 08 	ld.d	r10,sp[8]
800073b2:	30 08       	mov	r8,0
800073b4:	fa eb 00 3c 	st.d	sp[60],r10
800073b8:	30 09       	mov	r9,0
800073ba:	e0 a0 0e 03 	rcall	80008fc0 <__avr32_f64_cmp_eq>
800073be:	c1 00       	breq	800073de <_dtoa_r+0xee>
800073c0:	30 18       	mov	r8,1
800073c2:	41 5a       	lddsp	r10,sp[0x54]
800073c4:	95 08       	st.w	r10[0x0],r8
800073c6:	fe cc d9 1e 	sub	r12,pc,-9954
800073ca:	41 29       	lddsp	r9,sp[0x48]
800073cc:	f8 08 00 08 	add	r8,r12,r8
800073d0:	58 09       	cp.w	r9,0
800073d2:	e0 80 05 7a 	breq	80007ec6 <_dtoa_r+0xbd6>
800073d6:	12 95       	mov	r5,r9
800073d8:	8b 08       	st.w	r5[0x0],r8
800073da:	e0 8f 05 76 	bral	80007ec6 <_dtoa_r+0xbd6>
800073de:	fa c8 ff 9c 	sub	r8,sp,-100
800073e2:	fa c9 ff a0 	sub	r9,sp,-96
800073e6:	fa ea 00 3c 	ld.d	r10,sp[60]
800073ea:	0e 9c       	mov	r12,r7
800073ec:	eb d6 c2 8b 	bfextu	r5,r6,0x14,0xb
800073f0:	e0 a0 0a 8a 	rcall	80008904 <__d2b>
800073f4:	18 93       	mov	r3,r12
800073f6:	58 05       	cp.w	r5,0
800073f8:	c0 d0       	breq	80007412 <_dtoa_r+0x122>
800073fa:	fa ea 00 3c 	ld.d	r10,sp[60]
800073fe:	30 04       	mov	r4,0
80007400:	f1 db c0 14 	bfextu	r8,r11,0x0,0x14
80007404:	ea c5 03 ff 	sub	r5,r5,1023
80007408:	10 9b       	mov	r11,r8
8000740a:	51 74       	stdsp	sp[0x5c],r4
8000740c:	ea 1b 3f f0 	orh	r11,0x3ff0
80007410:	c2 58       	rjmp	8000745a <_dtoa_r+0x16a>
80007412:	41 88       	lddsp	r8,sp[0x60]
80007414:	41 9c       	lddsp	r12,sp[0x64]
80007416:	10 0c       	add	r12,r8
80007418:	f8 c5 fb ce 	sub	r5,r12,-1074
8000741c:	e0 45 00 20 	cp.w	r5,32
80007420:	e0 8a 00 0e 	brle	8000743c <_dtoa_r+0x14c>
80007424:	f8 cc fb ee 	sub	r12,r12,-1042
80007428:	40 3b       	lddsp	r11,sp[0xc]
8000742a:	ea 08 11 40 	rsub	r8,r5,64
8000742e:	f6 0c 0a 4c 	lsr	r12,r11,r12
80007432:	ec 08 09 46 	lsl	r6,r6,r8
80007436:	0c 4c       	or	r12,r6
80007438:	c0 78       	rjmp	80007446 <_dtoa_r+0x156>
8000743a:	d7 03       	nop
8000743c:	ea 0c 11 20 	rsub	r12,r5,32
80007440:	40 3a       	lddsp	r10,sp[0xc]
80007442:	f4 0c 09 4c 	lsl	r12,r10,r12
80007446:	fe b0 e5 46 	rcall	80003ed2 <__avr32_u32_to_f64>
8000744a:	fc 18 fe 10 	movh	r8,0xfe10
8000744e:	30 19       	mov	r9,1
80007450:	ea c5 04 33 	sub	r5,r5,1075
80007454:	f0 0b 00 0b 	add	r11,r8,r11
80007458:	51 79       	stdsp	sp[0x5c],r9
8000745a:	30 08       	mov	r8,0
8000745c:	fc 19 3f f8 	movh	r9,0x3ff8
80007460:	fe b0 e3 ce 	rcall	80003bfc <__avr32_f64_sub>
80007464:	e0 68 43 61 	mov	r8,17249
80007468:	ea 18 63 6f 	orh	r8,0x636f
8000746c:	e0 69 87 a7 	mov	r9,34727
80007470:	ea 19 3f d2 	orh	r9,0x3fd2
80007474:	fe b0 e2 d8 	rcall	80003a24 <__avr32_f64_mul>
80007478:	e0 68 c8 b3 	mov	r8,51379
8000747c:	ea 18 8b 60 	orh	r8,0x8b60
80007480:	e0 69 8a 28 	mov	r9,35368
80007484:	ea 19 3f c6 	orh	r9,0x3fc6
80007488:	fe b0 e4 88 	rcall	80003d98 <__avr32_f64_add>
8000748c:	0a 9c       	mov	r12,r5
8000748e:	14 90       	mov	r0,r10
80007490:	16 91       	mov	r1,r11
80007492:	fe b0 e5 24 	rcall	80003eda <__avr32_s32_to_f64>
80007496:	e0 68 79 fb 	mov	r8,31227
8000749a:	ea 18 50 9f 	orh	r8,0x509f
8000749e:	e0 69 44 13 	mov	r9,17427
800074a2:	ea 19 3f d3 	orh	r9,0x3fd3
800074a6:	fe b0 e2 bf 	rcall	80003a24 <__avr32_f64_mul>
800074aa:	14 98       	mov	r8,r10
800074ac:	16 99       	mov	r9,r11
800074ae:	00 9a       	mov	r10,r0
800074b0:	02 9b       	mov	r11,r1
800074b2:	fe b0 e4 73 	rcall	80003d98 <__avr32_f64_add>
800074b6:	14 90       	mov	r0,r10
800074b8:	16 91       	mov	r1,r11
800074ba:	fe b0 e4 f9 	rcall	80003eac <__avr32_f64_to_s32>
800074be:	30 08       	mov	r8,0
800074c0:	18 96       	mov	r6,r12
800074c2:	30 09       	mov	r9,0
800074c4:	00 9a       	mov	r10,r0
800074c6:	02 9b       	mov	r11,r1
800074c8:	fe b0 e5 79 	rcall	80003fba <__avr32_f64_cmp_lt>
800074cc:	c0 c0       	breq	800074e4 <_dtoa_r+0x1f4>
800074ce:	0c 9c       	mov	r12,r6
800074d0:	fe b0 e5 05 	rcall	80003eda <__avr32_s32_to_f64>
800074d4:	14 98       	mov	r8,r10
800074d6:	16 99       	mov	r9,r11
800074d8:	00 9a       	mov	r10,r0
800074da:	02 9b       	mov	r11,r1
800074dc:	e0 a0 0d 72 	rcall	80008fc0 <__avr32_f64_cmp_eq>
800074e0:	f7 b6 00 01 	subeq	r6,1
800074e4:	59 66       	cp.w	r6,22
800074e6:	e0 88 00 05 	brls	800074f0 <_dtoa_r+0x200>
800074ea:	30 18       	mov	r8,1
800074ec:	51 48       	stdsp	sp[0x50],r8
800074ee:	c1 38       	rjmp	80007514 <_dtoa_r+0x224>
800074f0:	fe c8 d5 74 	sub	r8,pc,-10892
800074f4:	fa ea 00 3c 	ld.d	r10,sp[60]
800074f8:	f0 06 02 38 	ld.d	r8,r8[r6<<0x3]
800074fc:	fe b0 e5 5f 	rcall	80003fba <__avr32_f64_cmp_lt>
80007500:	f9 b4 00 00 	moveq	r4,0
80007504:	fb f4 0a 14 	st.weq	sp[0x50],r4
80007508:	f7 b6 01 01 	subne	r6,1
8000750c:	f9 bc 01 00 	movne	r12,0
80007510:	fb fc 1a 14 	st.wne	sp[0x50],r12
80007514:	41 90       	lddsp	r0,sp[0x64]
80007516:	20 10       	sub	r0,1
80007518:	0a 10       	sub	r0,r5
8000751a:	c0 46       	brmi	80007522 <_dtoa_r+0x232>
8000751c:	50 40       	stdsp	sp[0x10],r0
8000751e:	30 00       	mov	r0,0
80007520:	c0 48       	rjmp	80007528 <_dtoa_r+0x238>
80007522:	30 0b       	mov	r11,0
80007524:	5c 30       	neg	r0
80007526:	50 4b       	stdsp	sp[0x10],r11
80007528:	ec 02 11 00 	rsub	r2,r6,0
8000752c:	58 06       	cp.w	r6,0
8000752e:	fb fa 40 04 	ld.wge	r10,sp[0x10]
80007532:	f5 d6 e4 0a 	addge	r10,r10,r6
80007536:	fb fa 4a 04 	st.wge	sp[0x10],r10
8000753a:	fb f6 4a 11 	st.wge	sp[0x44],r6
8000753e:	f9 b2 04 00 	movge	r2,0
80007542:	e1 d6 e5 10 	sublt	r0,r0,r6
80007546:	f9 b9 05 00 	movlt	r9,0
8000754a:	fb f9 5a 11 	st.wlt	sp[0x44],r9
8000754e:	40 c8       	lddsp	r8,sp[0x30]
80007550:	58 98       	cp.w	r8,9
80007552:	e0 8b 00 20 	brhi	80007592 <_dtoa_r+0x2a2>
80007556:	58 58       	cp.w	r8,5
80007558:	f9 b4 0a 01 	movle	r4,1
8000755c:	fb f5 90 0c 	ld.wgt	r5,sp[0x30]
80007560:	f7 b5 09 04 	subgt	r5,4
80007564:	fb f5 9a 0c 	st.wgt	sp[0x30],r5
80007568:	f9 b4 09 00 	movgt	r4,0
8000756c:	40 cc       	lddsp	r12,sp[0x30]
8000756e:	58 3c       	cp.w	r12,3
80007570:	c2 d0       	breq	800075ca <_dtoa_r+0x2da>
80007572:	e0 89 00 05 	brgt	8000757c <_dtoa_r+0x28c>
80007576:	58 2c       	cp.w	r12,2
80007578:	c1 01       	brne	80007598 <_dtoa_r+0x2a8>
8000757a:	c1 88       	rjmp	800075aa <_dtoa_r+0x2ba>
8000757c:	40 cb       	lddsp	r11,sp[0x30]
8000757e:	58 4b       	cp.w	r11,4
80007580:	c0 60       	breq	8000758c <_dtoa_r+0x29c>
80007582:	58 5b       	cp.w	r11,5
80007584:	c0 a1       	brne	80007598 <_dtoa_r+0x2a8>
80007586:	30 1a       	mov	r10,1
80007588:	50 da       	stdsp	sp[0x34],r10
8000758a:	c2 28       	rjmp	800075ce <_dtoa_r+0x2de>
8000758c:	30 19       	mov	r9,1
8000758e:	50 d9       	stdsp	sp[0x34],r9
80007590:	c0 f8       	rjmp	800075ae <_dtoa_r+0x2be>
80007592:	30 08       	mov	r8,0
80007594:	30 14       	mov	r4,1
80007596:	50 c8       	stdsp	sp[0x30],r8
80007598:	3f f5       	mov	r5,-1
8000759a:	30 1c       	mov	r12,1
8000759c:	30 0b       	mov	r11,0
8000759e:	50 95       	stdsp	sp[0x24],r5
800075a0:	50 dc       	stdsp	sp[0x34],r12
800075a2:	0a 91       	mov	r1,r5
800075a4:	31 28       	mov	r8,18
800075a6:	50 eb       	stdsp	sp[0x38],r11
800075a8:	c2 08       	rjmp	800075e8 <_dtoa_r+0x2f8>
800075aa:	30 0a       	mov	r10,0
800075ac:	50 da       	stdsp	sp[0x34],r10
800075ae:	40 e9       	lddsp	r9,sp[0x38]
800075b0:	58 09       	cp.w	r9,0
800075b2:	e0 89 00 07 	brgt	800075c0 <_dtoa_r+0x2d0>
800075b6:	30 18       	mov	r8,1
800075b8:	50 98       	stdsp	sp[0x24],r8
800075ba:	10 91       	mov	r1,r8
800075bc:	50 e8       	stdsp	sp[0x38],r8
800075be:	c1 58       	rjmp	800075e8 <_dtoa_r+0x2f8>
800075c0:	40 e5       	lddsp	r5,sp[0x38]
800075c2:	50 95       	stdsp	sp[0x24],r5
800075c4:	0a 91       	mov	r1,r5
800075c6:	0a 98       	mov	r8,r5
800075c8:	c1 08       	rjmp	800075e8 <_dtoa_r+0x2f8>
800075ca:	30 0c       	mov	r12,0
800075cc:	50 dc       	stdsp	sp[0x34],r12
800075ce:	40 eb       	lddsp	r11,sp[0x38]
800075d0:	ec 0b 00 0b 	add	r11,r6,r11
800075d4:	50 9b       	stdsp	sp[0x24],r11
800075d6:	16 98       	mov	r8,r11
800075d8:	2f f8       	sub	r8,-1
800075da:	58 08       	cp.w	r8,0
800075dc:	e0 89 00 05 	brgt	800075e6 <_dtoa_r+0x2f6>
800075e0:	10 91       	mov	r1,r8
800075e2:	30 18       	mov	r8,1
800075e4:	c0 28       	rjmp	800075e8 <_dtoa_r+0x2f8>
800075e6:	10 91       	mov	r1,r8
800075e8:	30 09       	mov	r9,0
800075ea:	6e 9a       	ld.w	r10,r7[0x24]
800075ec:	95 19       	st.w	r10[0x4],r9
800075ee:	30 49       	mov	r9,4
800075f0:	c0 68       	rjmp	800075fc <_dtoa_r+0x30c>
800075f2:	d7 03       	nop
800075f4:	6a 1a       	ld.w	r10,r5[0x4]
800075f6:	a1 79       	lsl	r9,0x1
800075f8:	2f fa       	sub	r10,-1
800075fa:	8b 1a       	st.w	r5[0x4],r10
800075fc:	6e 95       	ld.w	r5,r7[0x24]
800075fe:	f2 ca ff ec 	sub	r10,r9,-20
80007602:	10 3a       	cp.w	r10,r8
80007604:	fe 98 ff f8 	brls	800075f4 <_dtoa_r+0x304>
80007608:	6a 1b       	ld.w	r11,r5[0x4]
8000760a:	0e 9c       	mov	r12,r7
8000760c:	e0 a0 09 44 	rcall	80008894 <_Balloc>
80007610:	58 e1       	cp.w	r1,14
80007612:	5f 88       	srls	r8
80007614:	8b 0c       	st.w	r5[0x0],r12
80007616:	f1 e4 00 04 	and	r4,r8,r4
8000761a:	6e 98       	ld.w	r8,r7[0x24]
8000761c:	70 08       	ld.w	r8,r8[0x0]
8000761e:	50 88       	stdsp	sp[0x20],r8
80007620:	e0 80 01 82 	breq	80007924 <_dtoa_r+0x634>
80007624:	58 06       	cp.w	r6,0
80007626:	e0 8a 00 43 	brle	800076ac <_dtoa_r+0x3bc>
8000762a:	f3 d6 c0 04 	bfextu	r9,r6,0x0,0x4
8000762e:	fe c8 d6 b2 	sub	r8,pc,-10574
80007632:	f0 09 02 34 	ld.d	r4,r8[r9<<0x3]
80007636:	fa e5 00 18 	st.d	sp[24],r4
8000763a:	ec 04 14 04 	asr	r4,r6,0x4
8000763e:	ed b4 00 04 	bld	r4,0x4
80007642:	c0 30       	breq	80007648 <_dtoa_r+0x358>
80007644:	30 25       	mov	r5,2
80007646:	c1 08       	rjmp	80007666 <_dtoa_r+0x376>
80007648:	fe c8 d6 04 	sub	r8,pc,-10748
8000764c:	f0 e8 00 20 	ld.d	r8,r8[32]
80007650:	fa ea 00 3c 	ld.d	r10,sp[60]
80007654:	e9 d4 c0 04 	bfextu	r4,r4,0x0,0x4
80007658:	fe b0 e4 e6 	rcall	80004024 <__avr32_f64_div>
8000765c:	30 35       	mov	r5,3
8000765e:	14 98       	mov	r8,r10
80007660:	16 99       	mov	r9,r11
80007662:	fa e9 00 08 	st.d	sp[8],r8
80007666:	fe cc d6 22 	sub	r12,pc,-10718
8000766a:	50 a3       	stdsp	sp[0x28],r3
8000766c:	0c 93       	mov	r3,r6
8000766e:	18 96       	mov	r6,r12
80007670:	c0 f8       	rjmp	8000768e <_dtoa_r+0x39e>
80007672:	fa ea 00 18 	ld.d	r10,sp[24]
80007676:	ed b4 00 00 	bld	r4,0x0
8000767a:	c0 81       	brne	8000768a <_dtoa_r+0x39a>
8000767c:	ec e8 00 00 	ld.d	r8,r6[0]
80007680:	2f f5       	sub	r5,-1
80007682:	fe b0 e1 d1 	rcall	80003a24 <__avr32_f64_mul>
80007686:	fa eb 00 18 	st.d	sp[24],r10
8000768a:	a1 54       	asr	r4,0x1
8000768c:	2f 86       	sub	r6,-8
8000768e:	58 04       	cp.w	r4,0
80007690:	cf 11       	brne	80007672 <_dtoa_r+0x382>
80007692:	fa e8 00 18 	ld.d	r8,sp[24]
80007696:	fa ea 00 08 	ld.d	r10,sp[8]
8000769a:	06 96       	mov	r6,r3
8000769c:	fe b0 e4 c4 	rcall	80004024 <__avr32_f64_div>
800076a0:	40 a3       	lddsp	r3,sp[0x28]
800076a2:	14 98       	mov	r8,r10
800076a4:	16 99       	mov	r9,r11
800076a6:	fa e9 00 08 	st.d	sp[8],r8
800076aa:	c2 f8       	rjmp	80007708 <_dtoa_r+0x418>
800076ac:	ec 08 11 00 	rsub	r8,r6,0
800076b0:	c0 31       	brne	800076b6 <_dtoa_r+0x3c6>
800076b2:	30 25       	mov	r5,2
800076b4:	c2 a8       	rjmp	80007708 <_dtoa_r+0x418>
800076b6:	fe cc d6 72 	sub	r12,pc,-10638
800076ba:	f0 04 14 04 	asr	r4,r8,0x4
800076be:	50 1c       	stdsp	sp[0x4],r12
800076c0:	f1 d8 c0 04 	bfextu	r8,r8,0x0,0x4
800076c4:	fe c9 d7 48 	sub	r9,pc,-10424
800076c8:	fa ea 00 3c 	ld.d	r10,sp[60]
800076cc:	f2 08 02 38 	ld.d	r8,r9[r8<<0x3]
800076d0:	fe b0 e1 aa 	rcall	80003a24 <__avr32_f64_mul>
800076d4:	40 1c       	lddsp	r12,sp[0x4]
800076d6:	50 63       	stdsp	sp[0x18],r3
800076d8:	30 25       	mov	r5,2
800076da:	0c 93       	mov	r3,r6
800076dc:	fa eb 00 08 	st.d	sp[8],r10
800076e0:	18 96       	mov	r6,r12
800076e2:	c0 f8       	rjmp	80007700 <_dtoa_r+0x410>
800076e4:	fa ea 00 08 	ld.d	r10,sp[8]
800076e8:	ed b4 00 00 	bld	r4,0x0
800076ec:	c0 81       	brne	800076fc <_dtoa_r+0x40c>
800076ee:	ec e8 00 00 	ld.d	r8,r6[0]
800076f2:	2f f5       	sub	r5,-1
800076f4:	fe b0 e1 98 	rcall	80003a24 <__avr32_f64_mul>
800076f8:	fa eb 00 08 	st.d	sp[8],r10
800076fc:	a1 54       	asr	r4,0x1
800076fe:	2f 86       	sub	r6,-8
80007700:	58 04       	cp.w	r4,0
80007702:	cf 11       	brne	800076e4 <_dtoa_r+0x3f4>
80007704:	06 96       	mov	r6,r3
80007706:	40 63       	lddsp	r3,sp[0x18]
80007708:	41 4a       	lddsp	r10,sp[0x50]
8000770a:	58 0a       	cp.w	r10,0
8000770c:	c2 a0       	breq	80007760 <_dtoa_r+0x470>
8000770e:	fa e8 00 08 	ld.d	r8,sp[8]
80007712:	58 01       	cp.w	r1,0
80007714:	5f 94       	srgt	r4
80007716:	fa e9 00 18 	st.d	sp[24],r8
8000771a:	30 08       	mov	r8,0
8000771c:	fc 19 3f f0 	movh	r9,0x3ff0
80007720:	fa ea 00 18 	ld.d	r10,sp[24]
80007724:	fe b0 e4 4b 	rcall	80003fba <__avr32_f64_cmp_lt>
80007728:	f9 bc 00 00 	moveq	r12,0
8000772c:	f9 bc 01 01 	movne	r12,1
80007730:	e9 ec 00 0c 	and	r12,r4,r12
80007734:	c1 60       	breq	80007760 <_dtoa_r+0x470>
80007736:	40 98       	lddsp	r8,sp[0x24]
80007738:	58 08       	cp.w	r8,0
8000773a:	e0 8a 00 f1 	brle	8000791c <_dtoa_r+0x62c>
8000773e:	30 08       	mov	r8,0
80007740:	fc 19 40 24 	movh	r9,0x4024
80007744:	ec c4 00 01 	sub	r4,r6,1
80007748:	fa ea 00 18 	ld.d	r10,sp[24]
8000774c:	2f f5       	sub	r5,-1
8000774e:	50 64       	stdsp	sp[0x18],r4
80007750:	fe b0 e1 6a 	rcall	80003a24 <__avr32_f64_mul>
80007754:	40 94       	lddsp	r4,sp[0x24]
80007756:	14 98       	mov	r8,r10
80007758:	16 99       	mov	r9,r11
8000775a:	fa e9 00 08 	st.d	sp[8],r8
8000775e:	c0 38       	rjmp	80007764 <_dtoa_r+0x474>
80007760:	50 66       	stdsp	sp[0x18],r6
80007762:	02 94       	mov	r4,r1
80007764:	0a 9c       	mov	r12,r5
80007766:	fe b0 e3 ba 	rcall	80003eda <__avr32_s32_to_f64>
8000776a:	fa e8 00 08 	ld.d	r8,sp[8]
8000776e:	fe b0 e1 5b 	rcall	80003a24 <__avr32_f64_mul>
80007772:	30 08       	mov	r8,0
80007774:	fc 19 40 1c 	movh	r9,0x401c
80007778:	fe b0 e3 10 	rcall	80003d98 <__avr32_f64_add>
8000777c:	14 98       	mov	r8,r10
8000777e:	16 99       	mov	r9,r11
80007780:	fa e9 00 28 	st.d	sp[40],r8
80007784:	fc 18 fc c0 	movh	r8,0xfcc0
80007788:	40 a5       	lddsp	r5,sp[0x28]
8000778a:	10 05       	add	r5,r8
8000778c:	50 a5       	stdsp	sp[0x28],r5
8000778e:	58 04       	cp.w	r4,0
80007790:	c2 11       	brne	800077d2 <_dtoa_r+0x4e2>
80007792:	fa ea 00 08 	ld.d	r10,sp[8]
80007796:	30 08       	mov	r8,0
80007798:	fc 19 40 14 	movh	r9,0x4014
8000779c:	fe b0 e2 30 	rcall	80003bfc <__avr32_f64_sub>
800077a0:	40 bc       	lddsp	r12,sp[0x2c]
800077a2:	fa eb 00 08 	st.d	sp[8],r10
800077a6:	14 98       	mov	r8,r10
800077a8:	16 99       	mov	r9,r11
800077aa:	18 9a       	mov	r10,r12
800077ac:	0a 9b       	mov	r11,r5
800077ae:	fe b0 e4 06 	rcall	80003fba <__avr32_f64_cmp_lt>
800077b2:	e0 81 02 54 	brne	80007c5a <_dtoa_r+0x96a>
800077b6:	0a 98       	mov	r8,r5
800077b8:	40 b9       	lddsp	r9,sp[0x2c]
800077ba:	ee 18 80 00 	eorh	r8,0x8000
800077be:	fa ea 00 08 	ld.d	r10,sp[8]
800077c2:	10 95       	mov	r5,r8
800077c4:	12 98       	mov	r8,r9
800077c6:	0a 99       	mov	r9,r5
800077c8:	fe b0 e3 f9 	rcall	80003fba <__avr32_f64_cmp_lt>
800077cc:	e0 81 02 3e 	brne	80007c48 <_dtoa_r+0x958>
800077d0:	ca 68       	rjmp	8000791c <_dtoa_r+0x62c>
800077d2:	fe c9 d8 56 	sub	r9,pc,-10154
800077d6:	e8 c8 00 01 	sub	r8,r4,1
800077da:	40 d5       	lddsp	r5,sp[0x34]
800077dc:	58 05       	cp.w	r5,0
800077de:	c4 f0       	breq	8000787c <_dtoa_r+0x58c>
800077e0:	30 0c       	mov	r12,0
800077e2:	f2 08 02 38 	ld.d	r8,r9[r8<<0x3]
800077e6:	51 3c       	stdsp	sp[0x4c],r12
800077e8:	30 0a       	mov	r10,0
800077ea:	fc 1b 3f e0 	movh	r11,0x3fe0
800077ee:	fe b0 e4 1b 	rcall	80004024 <__avr32_f64_div>
800077f2:	fa e8 00 28 	ld.d	r8,sp[40]
800077f6:	40 85       	lddsp	r5,sp[0x20]
800077f8:	fe b0 e2 02 	rcall	80003bfc <__avr32_f64_sub>
800077fc:	fa eb 00 28 	st.d	sp[40],r10
80007800:	fa ea 00 08 	ld.d	r10,sp[8]
80007804:	fe b0 e3 54 	rcall	80003eac <__avr32_f64_to_s32>
80007808:	51 6c       	stdsp	sp[0x58],r12
8000780a:	fe b0 e3 68 	rcall	80003eda <__avr32_s32_to_f64>
8000780e:	14 98       	mov	r8,r10
80007810:	16 99       	mov	r9,r11
80007812:	fa ea 00 08 	ld.d	r10,sp[8]
80007816:	fe b0 e1 f3 	rcall	80003bfc <__avr32_f64_sub>
8000781a:	fa eb 00 08 	st.d	sp[8],r10
8000781e:	41 68       	lddsp	r8,sp[0x58]
80007820:	2d 08       	sub	r8,-48
80007822:	0a c8       	st.b	r5++,r8
80007824:	41 39       	lddsp	r9,sp[0x4c]
80007826:	2f f9       	sub	r9,-1
80007828:	51 39       	stdsp	sp[0x4c],r9
8000782a:	fa e8 00 28 	ld.d	r8,sp[40]
8000782e:	fe b0 e3 c6 	rcall	80003fba <__avr32_f64_cmp_lt>
80007832:	e0 81 03 39 	brne	80007ea4 <_dtoa_r+0xbb4>
80007836:	fa e8 00 08 	ld.d	r8,sp[8]
8000783a:	30 0a       	mov	r10,0
8000783c:	fc 1b 3f f0 	movh	r11,0x3ff0
80007840:	fe b0 e1 de 	rcall	80003bfc <__avr32_f64_sub>
80007844:	fa e8 00 28 	ld.d	r8,sp[40]
80007848:	fe b0 e3 b9 	rcall	80003fba <__avr32_f64_cmp_lt>
8000784c:	fa ea 00 28 	ld.d	r10,sp[40]
80007850:	30 08       	mov	r8,0
80007852:	fc 19 40 24 	movh	r9,0x4024
80007856:	e0 81 00 da 	brne	80007a0a <_dtoa_r+0x71a>
8000785a:	41 3c       	lddsp	r12,sp[0x4c]
8000785c:	08 3c       	cp.w	r12,r4
8000785e:	c5 f4       	brge	8000791c <_dtoa_r+0x62c>
80007860:	fe b0 e0 e2 	rcall	80003a24 <__avr32_f64_mul>
80007864:	30 08       	mov	r8,0
80007866:	fa eb 00 28 	st.d	sp[40],r10
8000786a:	fc 19 40 24 	movh	r9,0x4024
8000786e:	fa ea 00 08 	ld.d	r10,sp[8]
80007872:	fe b0 e0 d9 	rcall	80003a24 <__avr32_f64_mul>
80007876:	fa eb 00 08 	st.d	sp[8],r10
8000787a:	cc 3b       	rjmp	80007800 <_dtoa_r+0x510>
8000787c:	40 85       	lddsp	r5,sp[0x20]
8000787e:	08 05       	add	r5,r4
80007880:	f2 08 02 3a 	ld.d	r10,r9[r8<<0x3]
80007884:	51 35       	stdsp	sp[0x4c],r5
80007886:	fa e8 00 28 	ld.d	r8,sp[40]
8000788a:	40 85       	lddsp	r5,sp[0x20]
8000788c:	fe b0 e0 cc 	rcall	80003a24 <__avr32_f64_mul>
80007890:	fa eb 00 28 	st.d	sp[40],r10
80007894:	fa ea 00 08 	ld.d	r10,sp[8]
80007898:	fe b0 e3 0a 	rcall	80003eac <__avr32_f64_to_s32>
8000789c:	51 6c       	stdsp	sp[0x58],r12
8000789e:	fe b0 e3 1e 	rcall	80003eda <__avr32_s32_to_f64>
800078a2:	14 98       	mov	r8,r10
800078a4:	16 99       	mov	r9,r11
800078a6:	fa ea 00 08 	ld.d	r10,sp[8]
800078aa:	fe b0 e1 a9 	rcall	80003bfc <__avr32_f64_sub>
800078ae:	fa eb 00 08 	st.d	sp[8],r10
800078b2:	41 68       	lddsp	r8,sp[0x58]
800078b4:	2d 08       	sub	r8,-48
800078b6:	0a c8       	st.b	r5++,r8
800078b8:	41 3c       	lddsp	r12,sp[0x4c]
800078ba:	18 35       	cp.w	r5,r12
800078bc:	c2 81       	brne	8000790c <_dtoa_r+0x61c>
800078be:	30 08       	mov	r8,0
800078c0:	fc 19 3f e0 	movh	r9,0x3fe0
800078c4:	fa ea 00 28 	ld.d	r10,sp[40]
800078c8:	fe b0 e2 68 	rcall	80003d98 <__avr32_f64_add>
800078cc:	40 85       	lddsp	r5,sp[0x20]
800078ce:	fa e8 00 08 	ld.d	r8,sp[8]
800078d2:	08 05       	add	r5,r4
800078d4:	fe b0 e3 73 	rcall	80003fba <__avr32_f64_cmp_lt>
800078d8:	e0 81 00 99 	brne	80007a0a <_dtoa_r+0x71a>
800078dc:	fa e8 00 28 	ld.d	r8,sp[40]
800078e0:	30 0a       	mov	r10,0
800078e2:	fc 1b 3f e0 	movh	r11,0x3fe0
800078e6:	fe b0 e1 8b 	rcall	80003bfc <__avr32_f64_sub>
800078ea:	14 98       	mov	r8,r10
800078ec:	16 99       	mov	r9,r11
800078ee:	fa ea 00 08 	ld.d	r10,sp[8]
800078f2:	fe b0 e3 64 	rcall	80003fba <__avr32_f64_cmp_lt>
800078f6:	c1 30       	breq	8000791c <_dtoa_r+0x62c>
800078f8:	33 09       	mov	r9,48
800078fa:	0a 98       	mov	r8,r5
800078fc:	11 7a       	ld.ub	r10,--r8
800078fe:	f2 0a 18 00 	cp.b	r10,r9
80007902:	e0 81 02 d1 	brne	80007ea4 <_dtoa_r+0xbb4>
80007906:	10 95       	mov	r5,r8
80007908:	cf 9b       	rjmp	800078fa <_dtoa_r+0x60a>
8000790a:	d7 03       	nop
8000790c:	30 08       	mov	r8,0
8000790e:	fc 19 40 24 	movh	r9,0x4024
80007912:	fe b0 e0 89 	rcall	80003a24 <__avr32_f64_mul>
80007916:	fa eb 00 08 	st.d	sp[8],r10
8000791a:	cb db       	rjmp	80007894 <_dtoa_r+0x5a4>
8000791c:	fa ea 00 3c 	ld.d	r10,sp[60]
80007920:	fa eb 00 08 	st.d	sp[8],r10
80007924:	58 e6       	cp.w	r6,14
80007926:	5f ab       	srle	r11
80007928:	41 8a       	lddsp	r10,sp[0x60]
8000792a:	30 08       	mov	r8,0
8000792c:	f4 09 11 ff 	rsub	r9,r10,-1
80007930:	f7 e9 03 f9 	and	r9,r11,r9>>0x1f
80007934:	f0 09 18 00 	cp.b	r9,r8
80007938:	e0 80 00 82 	breq	80007a3c <_dtoa_r+0x74c>
8000793c:	40 ea       	lddsp	r10,sp[0x38]
8000793e:	58 01       	cp.w	r1,0
80007940:	5f a9       	srle	r9
80007942:	f3 ea 03 f9 	and	r9,r9,r10>>0x1f
80007946:	fe ca d9 ca 	sub	r10,pc,-9782
8000794a:	f4 06 02 34 	ld.d	r4,r10[r6<<0x3]
8000794e:	fa e5 00 10 	st.d	sp[16],r4
80007952:	f0 09 18 00 	cp.b	r9,r8
80007956:	c1 40       	breq	8000797e <_dtoa_r+0x68e>
80007958:	58 01       	cp.w	r1,0
8000795a:	e0 81 01 77 	brne	80007c48 <_dtoa_r+0x958>
8000795e:	30 08       	mov	r8,0
80007960:	fc 19 40 14 	movh	r9,0x4014
80007964:	08 9a       	mov	r10,r4
80007966:	0a 9b       	mov	r11,r5
80007968:	fe b0 e0 5e 	rcall	80003a24 <__avr32_f64_mul>
8000796c:	fa e8 00 08 	ld.d	r8,sp[8]
80007970:	e0 a0 0b 3b 	rcall	80008fe6 <__avr32_f64_cmp_ge>
80007974:	e0 81 01 6a 	brne	80007c48 <_dtoa_r+0x958>
80007978:	02 92       	mov	r2,r1
8000797a:	e0 8f 01 72 	bral	80007c5e <_dtoa_r+0x96e>
8000797e:	40 85       	lddsp	r5,sp[0x20]
80007980:	30 14       	mov	r4,1
80007982:	fa e8 00 10 	ld.d	r8,sp[16]
80007986:	fa ea 00 08 	ld.d	r10,sp[8]
8000798a:	fe b0 e3 4d 	rcall	80004024 <__avr32_f64_div>
8000798e:	fe b0 e2 8f 	rcall	80003eac <__avr32_f64_to_s32>
80007992:	18 92       	mov	r2,r12
80007994:	fe b0 e2 a3 	rcall	80003eda <__avr32_s32_to_f64>
80007998:	fa e8 00 10 	ld.d	r8,sp[16]
8000799c:	fe b0 e0 44 	rcall	80003a24 <__avr32_f64_mul>
800079a0:	14 98       	mov	r8,r10
800079a2:	16 99       	mov	r9,r11
800079a4:	fa ea 00 08 	ld.d	r10,sp[8]
800079a8:	fe b0 e1 2a 	rcall	80003bfc <__avr32_f64_sub>
800079ac:	fa eb 00 08 	st.d	sp[8],r10
800079b0:	e4 c8 ff d0 	sub	r8,r2,-48
800079b4:	0a c8       	st.b	r5++,r8
800079b6:	fc 19 40 24 	movh	r9,0x4024
800079ba:	30 08       	mov	r8,0
800079bc:	02 34       	cp.w	r4,r1
800079be:	c3 31       	brne	80007a24 <_dtoa_r+0x734>
800079c0:	fa e8 00 08 	ld.d	r8,sp[8]
800079c4:	fe b0 e1 ea 	rcall	80003d98 <__avr32_f64_add>
800079c8:	16 91       	mov	r1,r11
800079ca:	14 90       	mov	r0,r10
800079cc:	14 98       	mov	r8,r10
800079ce:	02 99       	mov	r9,r1
800079d0:	fa ea 00 10 	ld.d	r10,sp[16]
800079d4:	fe b0 e2 f3 	rcall	80003fba <__avr32_f64_cmp_lt>
800079d8:	c1 a1       	brne	80007a0c <_dtoa_r+0x71c>
800079da:	fa e8 00 10 	ld.d	r8,sp[16]
800079de:	00 9a       	mov	r10,r0
800079e0:	02 9b       	mov	r11,r1
800079e2:	e0 a0 0a ef 	rcall	80008fc0 <__avr32_f64_cmp_eq>
800079e6:	e0 80 02 5e 	breq	80007ea2 <_dtoa_r+0xbb2>
800079ea:	e5 d2 c0 01 	bfextu	r2,r2,0x0,0x1
800079ee:	c0 f1       	brne	80007a0c <_dtoa_r+0x71c>
800079f0:	e0 8f 02 59 	bral	80007ea2 <_dtoa_r+0xbb2>
800079f4:	40 8a       	lddsp	r10,sp[0x20]
800079f6:	14 38       	cp.w	r8,r10
800079f8:	c0 30       	breq	800079fe <_dtoa_r+0x70e>
800079fa:	10 95       	mov	r5,r8
800079fc:	c0 98       	rjmp	80007a0e <_dtoa_r+0x71e>
800079fe:	33 08       	mov	r8,48
80007a00:	40 89       	lddsp	r9,sp[0x20]
80007a02:	2f f6       	sub	r6,-1
80007a04:	b2 88       	st.b	r9[0x0],r8
80007a06:	40 88       	lddsp	r8,sp[0x20]
80007a08:	c0 88       	rjmp	80007a18 <_dtoa_r+0x728>
80007a0a:	40 66       	lddsp	r6,sp[0x18]
80007a0c:	33 99       	mov	r9,57
80007a0e:	0a 98       	mov	r8,r5
80007a10:	11 7a       	ld.ub	r10,--r8
80007a12:	f2 0a 18 00 	cp.b	r10,r9
80007a16:	ce f0       	breq	800079f4 <_dtoa_r+0x704>
80007a18:	50 66       	stdsp	sp[0x18],r6
80007a1a:	11 89       	ld.ub	r9,r8[0x0]
80007a1c:	2f f9       	sub	r9,-1
80007a1e:	b0 89       	st.b	r8[0x0],r9
80007a20:	e0 8f 02 42 	bral	80007ea4 <_dtoa_r+0xbb4>
80007a24:	fe b0 e0 00 	rcall	80003a24 <__avr32_f64_mul>
80007a28:	2f f4       	sub	r4,-1
80007a2a:	fa eb 00 08 	st.d	sp[8],r10
80007a2e:	30 08       	mov	r8,0
80007a30:	30 09       	mov	r9,0
80007a32:	e0 a0 0a c7 	rcall	80008fc0 <__avr32_f64_cmp_eq>
80007a36:	ca 60       	breq	80007982 <_dtoa_r+0x692>
80007a38:	e0 8f 02 35 	bral	80007ea2 <_dtoa_r+0xbb2>
80007a3c:	40 d8       	lddsp	r8,sp[0x34]
80007a3e:	58 08       	cp.w	r8,0
80007a40:	c0 51       	brne	80007a4a <_dtoa_r+0x75a>
80007a42:	04 98       	mov	r8,r2
80007a44:	00 95       	mov	r5,r0
80007a46:	40 d4       	lddsp	r4,sp[0x34]
80007a48:	c3 78       	rjmp	80007ab6 <_dtoa_r+0x7c6>
80007a4a:	40 c5       	lddsp	r5,sp[0x30]
80007a4c:	58 15       	cp.w	r5,1
80007a4e:	e0 89 00 0f 	brgt	80007a6c <_dtoa_r+0x77c>
80007a52:	41 74       	lddsp	r4,sp[0x5c]
80007a54:	58 04       	cp.w	r4,0
80007a56:	c0 40       	breq	80007a5e <_dtoa_r+0x76e>
80007a58:	f4 c9 fb cd 	sub	r9,r10,-1075
80007a5c:	c0 48       	rjmp	80007a64 <_dtoa_r+0x774>
80007a5e:	41 99       	lddsp	r9,sp[0x64]
80007a60:	f2 09 11 36 	rsub	r9,r9,54
80007a64:	04 98       	mov	r8,r2
80007a66:	00 95       	mov	r5,r0
80007a68:	c1 c8       	rjmp	80007aa0 <_dtoa_r+0x7b0>
80007a6a:	d7 03       	nop
80007a6c:	e2 c8 00 01 	sub	r8,r1,1
80007a70:	58 01       	cp.w	r1,0
80007a72:	e0 05 17 40 	movge	r5,r0
80007a76:	e2 09 17 40 	movge	r9,r1
80007a7a:	e1 d1 e5 15 	sublt	r5,r0,r1
80007a7e:	f9 b9 05 00 	movlt	r9,0
80007a82:	10 32       	cp.w	r2,r8
80007a84:	e5 d8 e4 18 	subge	r8,r2,r8
80007a88:	f1 d2 e5 18 	sublt	r8,r8,r2
80007a8c:	e5 d8 e5 02 	addlt	r2,r2,r8
80007a90:	fb fc 50 11 	ld.wlt	r12,sp[0x44]
80007a94:	f9 d8 e5 0c 	addlt	r12,r12,r8
80007a98:	fb fc 5a 11 	st.wlt	sp[0x44],r12
80007a9c:	f9 b8 05 00 	movlt	r8,0
80007aa0:	40 4b       	lddsp	r11,sp[0x10]
80007aa2:	12 0b       	add	r11,r9
80007aa4:	50 08       	stdsp	sp[0x0],r8
80007aa6:	50 4b       	stdsp	sp[0x10],r11
80007aa8:	12 00       	add	r0,r9
80007aaa:	30 1b       	mov	r11,1
80007aac:	0e 9c       	mov	r12,r7
80007aae:	e0 a0 08 a7 	rcall	80008bfc <__i2b>
80007ab2:	40 08       	lddsp	r8,sp[0x0]
80007ab4:	18 94       	mov	r4,r12
80007ab6:	40 4a       	lddsp	r10,sp[0x10]
80007ab8:	58 05       	cp.w	r5,0
80007aba:	5f 99       	srgt	r9
80007abc:	58 0a       	cp.w	r10,0
80007abe:	5f 9a       	srgt	r10
80007ac0:	f5 e9 00 09 	and	r9,r10,r9
80007ac4:	c0 80       	breq	80007ad4 <_dtoa_r+0x7e4>
80007ac6:	40 4c       	lddsp	r12,sp[0x10]
80007ac8:	f8 05 0d 49 	min	r9,r12,r5
80007acc:	12 1c       	sub	r12,r9
80007ace:	12 10       	sub	r0,r9
80007ad0:	50 4c       	stdsp	sp[0x10],r12
80007ad2:	12 15       	sub	r5,r9
80007ad4:	58 02       	cp.w	r2,0
80007ad6:	e0 8a 00 27 	brle	80007b24 <_dtoa_r+0x834>
80007ada:	40 db       	lddsp	r11,sp[0x34]
80007adc:	58 0b       	cp.w	r11,0
80007ade:	c1 d0       	breq	80007b18 <_dtoa_r+0x828>
80007ae0:	58 08       	cp.w	r8,0
80007ae2:	e0 8a 00 17 	brle	80007b10 <_dtoa_r+0x820>
80007ae6:	10 9a       	mov	r10,r8
80007ae8:	50 08       	stdsp	sp[0x0],r8
80007aea:	08 9b       	mov	r11,r4
80007aec:	0e 9c       	mov	r12,r7
80007aee:	e0 a0 08 cd 	rcall	80008c88 <__pow5mult>
80007af2:	06 9a       	mov	r10,r3
80007af4:	18 9b       	mov	r11,r12
80007af6:	18 94       	mov	r4,r12
80007af8:	0e 9c       	mov	r12,r7
80007afa:	e0 a0 08 01 	rcall	80008afc <__multiply>
80007afe:	18 99       	mov	r9,r12
80007b00:	06 9b       	mov	r11,r3
80007b02:	50 19       	stdsp	sp[0x4],r9
80007b04:	0e 9c       	mov	r12,r7
80007b06:	e0 a0 06 ad 	rcall	80008860 <_Bfree>
80007b0a:	40 19       	lddsp	r9,sp[0x4]
80007b0c:	40 08       	lddsp	r8,sp[0x0]
80007b0e:	12 93       	mov	r3,r9
80007b10:	e4 08 01 0a 	sub	r10,r2,r8
80007b14:	c0 80       	breq	80007b24 <_dtoa_r+0x834>
80007b16:	c0 28       	rjmp	80007b1a <_dtoa_r+0x82a>
80007b18:	04 9a       	mov	r10,r2
80007b1a:	06 9b       	mov	r11,r3
80007b1c:	0e 9c       	mov	r12,r7
80007b1e:	e0 a0 08 b5 	rcall	80008c88 <__pow5mult>
80007b22:	18 93       	mov	r3,r12
80007b24:	30 1b       	mov	r11,1
80007b26:	0e 9c       	mov	r12,r7
80007b28:	e0 a0 08 6a 	rcall	80008bfc <__i2b>
80007b2c:	41 1a       	lddsp	r10,sp[0x44]
80007b2e:	18 92       	mov	r2,r12
80007b30:	58 0a       	cp.w	r10,0
80007b32:	e0 8a 00 07 	brle	80007b40 <_dtoa_r+0x850>
80007b36:	18 9b       	mov	r11,r12
80007b38:	0e 9c       	mov	r12,r7
80007b3a:	e0 a0 08 a7 	rcall	80008c88 <__pow5mult>
80007b3e:	18 92       	mov	r2,r12
80007b40:	40 c9       	lddsp	r9,sp[0x30]
80007b42:	58 19       	cp.w	r9,1
80007b44:	e0 89 00 14 	brgt	80007b6c <_dtoa_r+0x87c>
80007b48:	40 38       	lddsp	r8,sp[0xc]
80007b4a:	58 08       	cp.w	r8,0
80007b4c:	c1 01       	brne	80007b6c <_dtoa_r+0x87c>
80007b4e:	40 29       	lddsp	r9,sp[0x8]
80007b50:	f1 d9 c0 14 	bfextu	r8,r9,0x0,0x14
80007b54:	c0 c1       	brne	80007b6c <_dtoa_r+0x87c>
80007b56:	12 98       	mov	r8,r9
80007b58:	e6 18 7f f0 	andh	r8,0x7ff0,COH
80007b5c:	c0 80       	breq	80007b6c <_dtoa_r+0x87c>
80007b5e:	40 4c       	lddsp	r12,sp[0x10]
80007b60:	30 1b       	mov	r11,1
80007b62:	2f fc       	sub	r12,-1
80007b64:	2f f0       	sub	r0,-1
80007b66:	50 4c       	stdsp	sp[0x10],r12
80007b68:	50 6b       	stdsp	sp[0x18],r11
80007b6a:	c0 38       	rjmp	80007b70 <_dtoa_r+0x880>
80007b6c:	30 0a       	mov	r10,0
80007b6e:	50 6a       	stdsp	sp[0x18],r10
80007b70:	41 19       	lddsp	r9,sp[0x44]
80007b72:	58 09       	cp.w	r9,0
80007b74:	c0 31       	brne	80007b7a <_dtoa_r+0x88a>
80007b76:	30 1c       	mov	r12,1
80007b78:	c0 98       	rjmp	80007b8a <_dtoa_r+0x89a>
80007b7a:	64 48       	ld.w	r8,r2[0x10]
80007b7c:	2f c8       	sub	r8,-4
80007b7e:	e4 08 03 2c 	ld.w	r12,r2[r8<<0x2]
80007b82:	e0 a0 05 df 	rcall	80008740 <__hi0bits>
80007b86:	f8 0c 11 20 	rsub	r12,r12,32
80007b8a:	40 4b       	lddsp	r11,sp[0x10]
80007b8c:	f8 0b 00 08 	add	r8,r12,r11
80007b90:	f1 d8 c0 05 	bfextu	r8,r8,0x0,0x5
80007b94:	c0 c0       	breq	80007bac <_dtoa_r+0x8bc>
80007b96:	f0 08 11 20 	rsub	r8,r8,32
80007b9a:	58 48       	cp.w	r8,4
80007b9c:	e0 8a 00 06 	brle	80007ba8 <_dtoa_r+0x8b8>
80007ba0:	20 48       	sub	r8,4
80007ba2:	10 0b       	add	r11,r8
80007ba4:	50 4b       	stdsp	sp[0x10],r11
80007ba6:	c0 78       	rjmp	80007bb4 <_dtoa_r+0x8c4>
80007ba8:	58 48       	cp.w	r8,4
80007baa:	c0 70       	breq	80007bb8 <_dtoa_r+0x8c8>
80007bac:	40 4a       	lddsp	r10,sp[0x10]
80007bae:	2e 48       	sub	r8,-28
80007bb0:	10 0a       	add	r10,r8
80007bb2:	50 4a       	stdsp	sp[0x10],r10
80007bb4:	10 00       	add	r0,r8
80007bb6:	10 05       	add	r5,r8
80007bb8:	58 00       	cp.w	r0,0
80007bba:	e0 8a 00 08 	brle	80007bca <_dtoa_r+0x8da>
80007bbe:	06 9b       	mov	r11,r3
80007bc0:	00 9a       	mov	r10,r0
80007bc2:	0e 9c       	mov	r12,r7
80007bc4:	e0 a0 07 58 	rcall	80008a74 <__lshift>
80007bc8:	18 93       	mov	r3,r12
80007bca:	40 49       	lddsp	r9,sp[0x10]
80007bcc:	58 09       	cp.w	r9,0
80007bce:	e0 8a 00 08 	brle	80007bde <_dtoa_r+0x8ee>
80007bd2:	04 9b       	mov	r11,r2
80007bd4:	12 9a       	mov	r10,r9
80007bd6:	0e 9c       	mov	r12,r7
80007bd8:	e0 a0 07 4e 	rcall	80008a74 <__lshift>
80007bdc:	18 92       	mov	r2,r12
80007bde:	41 48       	lddsp	r8,sp[0x50]
80007be0:	58 08       	cp.w	r8,0
80007be2:	c1 b0       	breq	80007c18 <_dtoa_r+0x928>
80007be4:	04 9b       	mov	r11,r2
80007be6:	06 9c       	mov	r12,r3
80007be8:	e0 a0 06 23 	rcall	8000882e <__mcmp>
80007bec:	c1 64       	brge	80007c18 <_dtoa_r+0x928>
80007bee:	06 9b       	mov	r11,r3
80007bf0:	30 09       	mov	r9,0
80007bf2:	30 aa       	mov	r10,10
80007bf4:	0e 9c       	mov	r12,r7
80007bf6:	e0 a0 08 0b 	rcall	80008c0c <__multadd>
80007bfa:	20 16       	sub	r6,1
80007bfc:	18 93       	mov	r3,r12
80007bfe:	40 dc       	lddsp	r12,sp[0x34]
80007c00:	58 0c       	cp.w	r12,0
80007c02:	c0 31       	brne	80007c08 <_dtoa_r+0x918>
80007c04:	40 91       	lddsp	r1,sp[0x24]
80007c06:	c0 98       	rjmp	80007c18 <_dtoa_r+0x928>
80007c08:	08 9b       	mov	r11,r4
80007c0a:	40 91       	lddsp	r1,sp[0x24]
80007c0c:	30 09       	mov	r9,0
80007c0e:	30 aa       	mov	r10,10
80007c10:	0e 9c       	mov	r12,r7
80007c12:	e0 a0 07 fd 	rcall	80008c0c <__multadd>
80007c16:	18 94       	mov	r4,r12
80007c18:	58 01       	cp.w	r1,0
80007c1a:	5f a9       	srle	r9
80007c1c:	40 cb       	lddsp	r11,sp[0x30]
80007c1e:	58 2b       	cp.w	r11,2
80007c20:	5f 98       	srgt	r8
80007c22:	f3 e8 00 08 	and	r8,r9,r8
80007c26:	c2 50       	breq	80007c70 <_dtoa_r+0x980>
80007c28:	58 01       	cp.w	r1,0
80007c2a:	c1 11       	brne	80007c4c <_dtoa_r+0x95c>
80007c2c:	04 9b       	mov	r11,r2
80007c2e:	02 99       	mov	r9,r1
80007c30:	30 5a       	mov	r10,5
80007c32:	0e 9c       	mov	r12,r7
80007c34:	e0 a0 07 ec 	rcall	80008c0c <__multadd>
80007c38:	18 92       	mov	r2,r12
80007c3a:	18 9b       	mov	r11,r12
80007c3c:	06 9c       	mov	r12,r3
80007c3e:	e0 a0 05 f8 	rcall	8000882e <__mcmp>
80007c42:	e0 89 00 0f 	brgt	80007c60 <_dtoa_r+0x970>
80007c46:	c0 38       	rjmp	80007c4c <_dtoa_r+0x95c>
80007c48:	30 02       	mov	r2,0
80007c4a:	04 94       	mov	r4,r2
80007c4c:	40 ea       	lddsp	r10,sp[0x38]
80007c4e:	30 09       	mov	r9,0
80007c50:	5c da       	com	r10
80007c52:	40 85       	lddsp	r5,sp[0x20]
80007c54:	50 6a       	stdsp	sp[0x18],r10
80007c56:	50 49       	stdsp	sp[0x10],r9
80007c58:	c0 f9       	rjmp	80007e76 <_dtoa_r+0xb86>
80007c5a:	08 92       	mov	r2,r4
80007c5c:	40 66       	lddsp	r6,sp[0x18]
80007c5e:	04 94       	mov	r4,r2
80007c60:	2f f6       	sub	r6,-1
80007c62:	50 66       	stdsp	sp[0x18],r6
80007c64:	33 18       	mov	r8,49
80007c66:	40 85       	lddsp	r5,sp[0x20]
80007c68:	0a c8       	st.b	r5++,r8
80007c6a:	30 08       	mov	r8,0
80007c6c:	50 48       	stdsp	sp[0x10],r8
80007c6e:	c0 49       	rjmp	80007e76 <_dtoa_r+0xb86>
80007c70:	40 dc       	lddsp	r12,sp[0x34]
80007c72:	58 0c       	cp.w	r12,0
80007c74:	e0 80 00 b5 	breq	80007dde <_dtoa_r+0xaee>
80007c78:	58 05       	cp.w	r5,0
80007c7a:	e0 8a 00 08 	brle	80007c8a <_dtoa_r+0x99a>
80007c7e:	08 9b       	mov	r11,r4
80007c80:	0a 9a       	mov	r10,r5
80007c82:	0e 9c       	mov	r12,r7
80007c84:	e0 a0 06 f8 	rcall	80008a74 <__lshift>
80007c88:	18 94       	mov	r4,r12
80007c8a:	40 6b       	lddsp	r11,sp[0x18]
80007c8c:	58 0b       	cp.w	r11,0
80007c8e:	c0 31       	brne	80007c94 <_dtoa_r+0x9a4>
80007c90:	08 9c       	mov	r12,r4
80007c92:	c1 38       	rjmp	80007cb8 <_dtoa_r+0x9c8>
80007c94:	68 1b       	ld.w	r11,r4[0x4]
80007c96:	0e 9c       	mov	r12,r7
80007c98:	e0 a0 05 fe 	rcall	80008894 <_Balloc>
80007c9c:	68 4a       	ld.w	r10,r4[0x10]
80007c9e:	18 95       	mov	r5,r12
80007ca0:	e8 cb ff f4 	sub	r11,r4,-12
80007ca4:	2f ea       	sub	r10,-2
80007ca6:	2f 4c       	sub	r12,-12
80007ca8:	a3 6a       	lsl	r10,0x2
80007caa:	fe b0 e5 8d 	rcall	800047c4 <memcpy>
80007cae:	0a 9b       	mov	r11,r5
80007cb0:	30 1a       	mov	r10,1
80007cb2:	0e 9c       	mov	r12,r7
80007cb4:	e0 a0 06 e0 	rcall	80008a74 <__lshift>
80007cb8:	50 44       	stdsp	sp[0x10],r4
80007cba:	40 3a       	lddsp	r10,sp[0xc]
80007cbc:	30 19       	mov	r9,1
80007cbe:	f5 da c0 01 	bfextu	r10,r10,0x0,0x1
80007cc2:	18 94       	mov	r4,r12
80007cc4:	50 da       	stdsp	sp[0x34],r10
80007cc6:	40 85       	lddsp	r5,sp[0x20]
80007cc8:	50 99       	stdsp	sp[0x24],r9
80007cca:	50 26       	stdsp	sp[0x8],r6
80007ccc:	50 e1       	stdsp	sp[0x38],r1
80007cce:	04 9b       	mov	r11,r2
80007cd0:	06 9c       	mov	r12,r3
80007cd2:	fe b0 fa 7f 	rcall	800071d0 <quorem>
80007cd6:	40 4b       	lddsp	r11,sp[0x10]
80007cd8:	f8 c0 ff d0 	sub	r0,r12,-48
80007cdc:	06 9c       	mov	r12,r3
80007cde:	e0 a0 05 a8 	rcall	8000882e <__mcmp>
80007ce2:	08 9a       	mov	r10,r4
80007ce4:	50 6c       	stdsp	sp[0x18],r12
80007ce6:	04 9b       	mov	r11,r2
80007ce8:	0e 9c       	mov	r12,r7
80007cea:	e0 a0 06 5d 	rcall	800089a4 <__mdiff>
80007cee:	18 91       	mov	r1,r12
80007cf0:	78 38       	ld.w	r8,r12[0xc]
80007cf2:	58 08       	cp.w	r8,0
80007cf4:	c0 30       	breq	80007cfa <_dtoa_r+0xa0a>
80007cf6:	30 16       	mov	r6,1
80007cf8:	c0 68       	rjmp	80007d04 <_dtoa_r+0xa14>
80007cfa:	18 9b       	mov	r11,r12
80007cfc:	06 9c       	mov	r12,r3
80007cfe:	e0 a0 05 98 	rcall	8000882e <__mcmp>
80007d02:	18 96       	mov	r6,r12
80007d04:	0e 9c       	mov	r12,r7
80007d06:	02 9b       	mov	r11,r1
80007d08:	e0 a0 05 ac 	rcall	80008860 <_Bfree>
80007d0c:	40 cc       	lddsp	r12,sp[0x30]
80007d0e:	ed ec 10 08 	or	r8,r6,r12
80007d12:	c0 d1       	brne	80007d2c <_dtoa_r+0xa3c>
80007d14:	40 db       	lddsp	r11,sp[0x34]
80007d16:	58 0b       	cp.w	r11,0
80007d18:	c0 a1       	brne	80007d2c <_dtoa_r+0xa3c>
80007d1a:	40 26       	lddsp	r6,sp[0x8]
80007d1c:	e0 40 00 39 	cp.w	r0,57
80007d20:	c3 00       	breq	80007d80 <_dtoa_r+0xa90>
80007d22:	40 6a       	lddsp	r10,sp[0x18]
80007d24:	58 0a       	cp.w	r10,0
80007d26:	e0 89 00 24 	brgt	80007d6e <_dtoa_r+0xa7e>
80007d2a:	c2 f8       	rjmp	80007d88 <_dtoa_r+0xa98>
80007d2c:	40 69       	lddsp	r9,sp[0x18]
80007d2e:	58 09       	cp.w	r9,0
80007d30:	c0 85       	brlt	80007d40 <_dtoa_r+0xa50>
80007d32:	12 98       	mov	r8,r9
80007d34:	40 cc       	lddsp	r12,sp[0x30]
80007d36:	18 48       	or	r8,r12
80007d38:	c1 d1       	brne	80007d72 <_dtoa_r+0xa82>
80007d3a:	40 db       	lddsp	r11,sp[0x34]
80007d3c:	58 0b       	cp.w	r11,0
80007d3e:	c1 a1       	brne	80007d72 <_dtoa_r+0xa82>
80007d40:	0c 99       	mov	r9,r6
80007d42:	40 26       	lddsp	r6,sp[0x8]
80007d44:	58 09       	cp.w	r9,0
80007d46:	e0 8a 00 21 	brle	80007d88 <_dtoa_r+0xa98>
80007d4a:	06 9b       	mov	r11,r3
80007d4c:	30 1a       	mov	r10,1
80007d4e:	0e 9c       	mov	r12,r7
80007d50:	e0 a0 06 92 	rcall	80008a74 <__lshift>
80007d54:	04 9b       	mov	r11,r2
80007d56:	18 93       	mov	r3,r12
80007d58:	e0 a0 05 6b 	rcall	8000882e <__mcmp>
80007d5c:	e0 89 00 06 	brgt	80007d68 <_dtoa_r+0xa78>
80007d60:	c1 41       	brne	80007d88 <_dtoa_r+0xa98>
80007d62:	ed b0 00 00 	bld	r0,0x0
80007d66:	c1 11       	brne	80007d88 <_dtoa_r+0xa98>
80007d68:	e0 40 00 39 	cp.w	r0,57
80007d6c:	c0 a0       	breq	80007d80 <_dtoa_r+0xa90>
80007d6e:	2f f0       	sub	r0,-1
80007d70:	c0 c8       	rjmp	80007d88 <_dtoa_r+0xa98>
80007d72:	58 06       	cp.w	r6,0
80007d74:	e0 8a 00 0c 	brle	80007d8c <_dtoa_r+0xa9c>
80007d78:	40 26       	lddsp	r6,sp[0x8]
80007d7a:	e0 40 00 39 	cp.w	r0,57
80007d7e:	c0 41       	brne	80007d86 <_dtoa_r+0xa96>
80007d80:	33 98       	mov	r8,57
80007d82:	0a c8       	st.b	r5++,r8
80007d84:	c6 78       	rjmp	80007e52 <_dtoa_r+0xb62>
80007d86:	2f f0       	sub	r0,-1
80007d88:	0a c0       	st.b	r5++,r0
80007d8a:	c7 58       	rjmp	80007e74 <_dtoa_r+0xb84>
80007d8c:	0a c0       	st.b	r5++,r0
80007d8e:	40 9a       	lddsp	r10,sp[0x24]
80007d90:	40 e9       	lddsp	r9,sp[0x38]
80007d92:	12 3a       	cp.w	r10,r9
80007d94:	c4 30       	breq	80007e1a <_dtoa_r+0xb2a>
80007d96:	06 9b       	mov	r11,r3
80007d98:	30 09       	mov	r9,0
80007d9a:	30 aa       	mov	r10,10
80007d9c:	0e 9c       	mov	r12,r7
80007d9e:	e0 a0 07 37 	rcall	80008c0c <__multadd>
80007da2:	40 48       	lddsp	r8,sp[0x10]
80007da4:	18 93       	mov	r3,r12
80007da6:	08 38       	cp.w	r8,r4
80007da8:	c0 91       	brne	80007dba <_dtoa_r+0xaca>
80007daa:	10 9b       	mov	r11,r8
80007dac:	30 09       	mov	r9,0
80007dae:	30 aa       	mov	r10,10
80007db0:	0e 9c       	mov	r12,r7
80007db2:	e0 a0 07 2d 	rcall	80008c0c <__multadd>
80007db6:	50 4c       	stdsp	sp[0x10],r12
80007db8:	c0 e8       	rjmp	80007dd4 <_dtoa_r+0xae4>
80007dba:	40 4b       	lddsp	r11,sp[0x10]
80007dbc:	30 09       	mov	r9,0
80007dbe:	30 aa       	mov	r10,10
80007dc0:	0e 9c       	mov	r12,r7
80007dc2:	e0 a0 07 25 	rcall	80008c0c <__multadd>
80007dc6:	08 9b       	mov	r11,r4
80007dc8:	50 4c       	stdsp	sp[0x10],r12
80007dca:	30 09       	mov	r9,0
80007dcc:	30 aa       	mov	r10,10
80007dce:	0e 9c       	mov	r12,r7
80007dd0:	e0 a0 07 1e 	rcall	80008c0c <__multadd>
80007dd4:	18 94       	mov	r4,r12
80007dd6:	40 9c       	lddsp	r12,sp[0x24]
80007dd8:	2f fc       	sub	r12,-1
80007dda:	50 9c       	stdsp	sp[0x24],r12
80007ddc:	c7 9b       	rjmp	80007cce <_dtoa_r+0x9de>
80007dde:	30 18       	mov	r8,1
80007de0:	06 90       	mov	r0,r3
80007de2:	40 85       	lddsp	r5,sp[0x20]
80007de4:	08 93       	mov	r3,r4
80007de6:	0c 94       	mov	r4,r6
80007de8:	10 96       	mov	r6,r8
80007dea:	04 9b       	mov	r11,r2
80007dec:	00 9c       	mov	r12,r0
80007dee:	fe b0 f9 f1 	rcall	800071d0 <quorem>
80007df2:	2d 0c       	sub	r12,-48
80007df4:	0a cc       	st.b	r5++,r12
80007df6:	02 36       	cp.w	r6,r1
80007df8:	c0 a4       	brge	80007e0c <_dtoa_r+0xb1c>
80007dfa:	00 9b       	mov	r11,r0
80007dfc:	30 09       	mov	r9,0
80007dfe:	30 aa       	mov	r10,10
80007e00:	0e 9c       	mov	r12,r7
80007e02:	2f f6       	sub	r6,-1
80007e04:	e0 a0 07 04 	rcall	80008c0c <__multadd>
80007e08:	18 90       	mov	r0,r12
80007e0a:	cf 0b       	rjmp	80007dea <_dtoa_r+0xafa>
80007e0c:	08 96       	mov	r6,r4
80007e0e:	30 0b       	mov	r11,0
80007e10:	06 94       	mov	r4,r3
80007e12:	50 4b       	stdsp	sp[0x10],r11
80007e14:	00 93       	mov	r3,r0
80007e16:	18 90       	mov	r0,r12
80007e18:	c0 28       	rjmp	80007e1c <_dtoa_r+0xb2c>
80007e1a:	40 26       	lddsp	r6,sp[0x8]
80007e1c:	06 9b       	mov	r11,r3
80007e1e:	30 1a       	mov	r10,1
80007e20:	0e 9c       	mov	r12,r7
80007e22:	e0 a0 06 29 	rcall	80008a74 <__lshift>
80007e26:	04 9b       	mov	r11,r2
80007e28:	18 93       	mov	r3,r12
80007e2a:	e0 a0 05 02 	rcall	8000882e <__mcmp>
80007e2e:	e0 89 00 12 	brgt	80007e52 <_dtoa_r+0xb62>
80007e32:	c1 b1       	brne	80007e68 <_dtoa_r+0xb78>
80007e34:	e1 d0 c0 01 	bfextu	r0,r0,0x0,0x1
80007e38:	c0 d1       	brne	80007e52 <_dtoa_r+0xb62>
80007e3a:	c1 78       	rjmp	80007e68 <_dtoa_r+0xb78>
80007e3c:	40 89       	lddsp	r9,sp[0x20]
80007e3e:	12 38       	cp.w	r8,r9
80007e40:	c0 30       	breq	80007e46 <_dtoa_r+0xb56>
80007e42:	10 95       	mov	r5,r8
80007e44:	c0 88       	rjmp	80007e54 <_dtoa_r+0xb64>
80007e46:	2f f6       	sub	r6,-1
80007e48:	50 66       	stdsp	sp[0x18],r6
80007e4a:	33 18       	mov	r8,49
80007e4c:	40 8c       	lddsp	r12,sp[0x20]
80007e4e:	b8 88       	st.b	r12[0x0],r8
80007e50:	c1 38       	rjmp	80007e76 <_dtoa_r+0xb86>
80007e52:	33 9a       	mov	r10,57
80007e54:	0a 98       	mov	r8,r5
80007e56:	11 79       	ld.ub	r9,--r8
80007e58:	f4 09 18 00 	cp.b	r9,r10
80007e5c:	cf 00       	breq	80007e3c <_dtoa_r+0xb4c>
80007e5e:	2f f9       	sub	r9,-1
80007e60:	b0 89       	st.b	r8[0x0],r9
80007e62:	c0 98       	rjmp	80007e74 <_dtoa_r+0xb84>
80007e64:	10 95       	mov	r5,r8
80007e66:	c0 28       	rjmp	80007e6a <_dtoa_r+0xb7a>
80007e68:	33 09       	mov	r9,48
80007e6a:	0a 98       	mov	r8,r5
80007e6c:	11 7a       	ld.ub	r10,--r8
80007e6e:	f2 0a 18 00 	cp.b	r10,r9
80007e72:	cf 90       	breq	80007e64 <_dtoa_r+0xb74>
80007e74:	50 66       	stdsp	sp[0x18],r6
80007e76:	04 9b       	mov	r11,r2
80007e78:	0e 9c       	mov	r12,r7
80007e7a:	e0 a0 04 f3 	rcall	80008860 <_Bfree>
80007e7e:	58 04       	cp.w	r4,0
80007e80:	c1 20       	breq	80007ea4 <_dtoa_r+0xbb4>
80007e82:	40 4b       	lddsp	r11,sp[0x10]
80007e84:	08 3b       	cp.w	r11,r4
80007e86:	5f 19       	srne	r9
80007e88:	58 0b       	cp.w	r11,0
80007e8a:	5f 18       	srne	r8
80007e8c:	f3 e8 00 08 	and	r8,r9,r8
80007e90:	c0 40       	breq	80007e98 <_dtoa_r+0xba8>
80007e92:	0e 9c       	mov	r12,r7
80007e94:	e0 a0 04 e6 	rcall	80008860 <_Bfree>
80007e98:	08 9b       	mov	r11,r4
80007e9a:	0e 9c       	mov	r12,r7
80007e9c:	e0 a0 04 e2 	rcall	80008860 <_Bfree>
80007ea0:	c0 28       	rjmp	80007ea4 <_dtoa_r+0xbb4>
80007ea2:	50 66       	stdsp	sp[0x18],r6
80007ea4:	0e 9c       	mov	r12,r7
80007ea6:	06 9b       	mov	r11,r3
80007ea8:	e0 a0 04 dc 	rcall	80008860 <_Bfree>
80007eac:	30 08       	mov	r8,0
80007eae:	aa 88       	st.b	r5[0x0],r8
80007eb0:	40 68       	lddsp	r8,sp[0x18]
80007eb2:	41 5a       	lddsp	r10,sp[0x54]
80007eb4:	2f f8       	sub	r8,-1
80007eb6:	41 29       	lddsp	r9,sp[0x48]
80007eb8:	95 08       	st.w	r10[0x0],r8
80007eba:	40 8c       	lddsp	r12,sp[0x20]
80007ebc:	58 09       	cp.w	r9,0
80007ebe:	fb f8 10 12 	ld.wne	r8,sp[0x48]
80007ec2:	f1 f5 1a 00 	st.wne	r8[0x0],r5
80007ec6:	2e 6d       	sub	sp,-104
80007ec8:	d8 32       	popm	r0-r7,pc
80007eca:	d7 03       	nop

80007ecc <__errno>:
80007ecc:	e0 68 01 1c 	mov	r8,284
80007ed0:	70 0c       	ld.w	r12,r8[0x0]
80007ed2:	2f 4c       	sub	r12,-12
80007ed4:	5e fc       	retal	r12
80007ed6:	d7 03       	nop

80007ed8 <_fflush_r>:
80007ed8:	d4 21       	pushm	r4-r7,lr
80007eda:	16 97       	mov	r7,r11
80007edc:	18 96       	mov	r6,r12
80007ede:	76 48       	ld.w	r8,r11[0x10]
80007ee0:	58 08       	cp.w	r8,0
80007ee2:	c7 f0       	breq	80007fe0 <_fflush_r+0x108>
80007ee4:	58 0c       	cp.w	r12,0
80007ee6:	c0 50       	breq	80007ef0 <_fflush_r+0x18>
80007ee8:	78 68       	ld.w	r8,r12[0x18]
80007eea:	58 08       	cp.w	r8,0
80007eec:	c0 21       	brne	80007ef0 <_fflush_r+0x18>
80007eee:	cc dc       	rcall	80008088 <__sinit>
80007ef0:	fe c8 e0 20 	sub	r8,pc,-8160
80007ef4:	10 37       	cp.w	r7,r8
80007ef6:	c0 31       	brne	80007efc <_fflush_r+0x24>
80007ef8:	6c 07       	ld.w	r7,r6[0x0]
80007efa:	c0 c8       	rjmp	80007f12 <_fflush_r+0x3a>
80007efc:	fe c8 e0 0c 	sub	r8,pc,-8180
80007f00:	10 37       	cp.w	r7,r8
80007f02:	c0 31       	brne	80007f08 <_fflush_r+0x30>
80007f04:	6c 17       	ld.w	r7,r6[0x4]
80007f06:	c0 68       	rjmp	80007f12 <_fflush_r+0x3a>
80007f08:	fe c8 df f8 	sub	r8,pc,-8200
80007f0c:	10 37       	cp.w	r7,r8
80007f0e:	ed f7 00 02 	ld.weq	r7,r6[0x8]
80007f12:	8e 6a       	ld.sh	r10,r7[0xc]
80007f14:	14 98       	mov	r8,r10
80007f16:	ed ba 00 03 	bld	r10,0x3
80007f1a:	c4 20       	breq	80007f9e <_fflush_r+0xc6>
80007f1c:	ab ba       	sbr	r10,0xb
80007f1e:	ae 6a       	st.h	r7[0xc],r10
80007f20:	6e 18       	ld.w	r8,r7[0x4]
80007f22:	58 08       	cp.w	r8,0
80007f24:	e0 89 00 06 	brgt	80007f30 <_fflush_r+0x58>
80007f28:	6f 08       	ld.w	r8,r7[0x40]
80007f2a:	58 08       	cp.w	r8,0
80007f2c:	e0 8a 00 5a 	brle	80007fe0 <_fflush_r+0x108>
80007f30:	6e b8       	ld.w	r8,r7[0x2c]
80007f32:	58 08       	cp.w	r8,0
80007f34:	c5 60       	breq	80007fe0 <_fflush_r+0x108>
80007f36:	e2 1a 10 00 	andl	r10,0x1000,COH
80007f3a:	c0 30       	breq	80007f40 <_fflush_r+0x68>
80007f3c:	6f 55       	ld.w	r5,r7[0x54]
80007f3e:	c0 f8       	rjmp	80007f5c <_fflush_r+0x84>
80007f40:	30 19       	mov	r9,1
80007f42:	6e 8b       	ld.w	r11,r7[0x20]
80007f44:	0c 9c       	mov	r12,r6
80007f46:	5d 18       	icall	r8
80007f48:	18 95       	mov	r5,r12
80007f4a:	5b fc       	cp.w	r12,-1
80007f4c:	c0 81       	brne	80007f5c <_fflush_r+0x84>
80007f4e:	6c 38       	ld.w	r8,r6[0xc]
80007f50:	59 d8       	cp.w	r8,29
80007f52:	c4 70       	breq	80007fe0 <_fflush_r+0x108>
80007f54:	8e 68       	ld.sh	r8,r7[0xc]
80007f56:	a7 a8       	sbr	r8,0x6
80007f58:	ae 68       	st.h	r7[0xc],r8
80007f5a:	d8 22       	popm	r4-r7,pc
80007f5c:	8e 68       	ld.sh	r8,r7[0xc]
80007f5e:	ed b8 00 02 	bld	r8,0x2
80007f62:	c0 91       	brne	80007f74 <_fflush_r+0x9c>
80007f64:	6e 18       	ld.w	r8,r7[0x4]
80007f66:	10 15       	sub	r5,r8
80007f68:	6e d8       	ld.w	r8,r7[0x34]
80007f6a:	58 08       	cp.w	r8,0
80007f6c:	ef f8 10 10 	ld.wne	r8,r7[0x40]
80007f70:	eb d8 e1 15 	subne	r5,r5,r8
80007f74:	6e b8       	ld.w	r8,r7[0x2c]
80007f76:	0c 9c       	mov	r12,r6
80007f78:	30 09       	mov	r9,0
80007f7a:	0a 9a       	mov	r10,r5
80007f7c:	6e 8b       	ld.w	r11,r7[0x20]
80007f7e:	5d 18       	icall	r8
80007f80:	8e 68       	ld.sh	r8,r7[0xc]
80007f82:	0a 3c       	cp.w	r12,r5
80007f84:	c2 61       	brne	80007fd0 <_fflush_r+0xf8>
80007f86:	ab d8       	cbr	r8,0xb
80007f88:	30 0c       	mov	r12,0
80007f8a:	6e 49       	ld.w	r9,r7[0x10]
80007f8c:	ae 68       	st.h	r7[0xc],r8
80007f8e:	8f 1c       	st.w	r7[0x4],r12
80007f90:	8f 09       	st.w	r7[0x0],r9
80007f92:	ed b8 00 0c 	bld	r8,0xc
80007f96:	c2 51       	brne	80007fe0 <_fflush_r+0x108>
80007f98:	ef 45 00 54 	st.w	r7[84],r5
80007f9c:	d8 22       	popm	r4-r7,pc
80007f9e:	6e 45       	ld.w	r5,r7[0x10]
80007fa0:	58 05       	cp.w	r5,0
80007fa2:	c1 f0       	breq	80007fe0 <_fflush_r+0x108>
80007fa4:	6e 04       	ld.w	r4,r7[0x0]
80007fa6:	f5 da c0 02 	bfextu	r10,r10,0x0,0x2
80007faa:	8f 05       	st.w	r7[0x0],r5
80007fac:	f9 b8 01 00 	movne	r8,0
80007fb0:	ef f8 00 05 	ld.weq	r8,r7[0x14]
80007fb4:	0a 14       	sub	r4,r5
80007fb6:	8f 28       	st.w	r7[0x8],r8
80007fb8:	c1 18       	rjmp	80007fda <_fflush_r+0x102>
80007fba:	08 99       	mov	r9,r4
80007fbc:	0a 9a       	mov	r10,r5
80007fbe:	6e a8       	ld.w	r8,r7[0x28]
80007fc0:	6e 8b       	ld.w	r11,r7[0x20]
80007fc2:	0c 9c       	mov	r12,r6
80007fc4:	5d 18       	icall	r8
80007fc6:	18 14       	sub	r4,r12
80007fc8:	58 0c       	cp.w	r12,0
80007fca:	e0 89 00 07 	brgt	80007fd8 <_fflush_r+0x100>
80007fce:	8e 68       	ld.sh	r8,r7[0xc]
80007fd0:	a7 a8       	sbr	r8,0x6
80007fd2:	3f fc       	mov	r12,-1
80007fd4:	ae 68       	st.h	r7[0xc],r8
80007fd6:	d8 22       	popm	r4-r7,pc
80007fd8:	18 05       	add	r5,r12
80007fda:	58 04       	cp.w	r4,0
80007fdc:	fe 99 ff ef 	brgt	80007fba <_fflush_r+0xe2>
80007fe0:	d8 2a       	popm	r4-r7,pc,r12=0
80007fe2:	d7 03       	nop

80007fe4 <__sfp_lock_acquire>:
80007fe4:	5e fc       	retal	r12

80007fe6 <__sfp_lock_release>:
80007fe6:	5e fc       	retal	r12

80007fe8 <_cleanup_r>:
80007fe8:	d4 01       	pushm	lr
80007fea:	fe cb f0 ae 	sub	r11,pc,-3922
80007fee:	e0 a0 02 f7 	rcall	800085dc <_fwalk>
80007ff2:	d8 02       	popm	pc

80007ff4 <__sfmoreglue>:
80007ff4:	d4 21       	pushm	r4-r7,lr
80007ff6:	16 95       	mov	r5,r11
80007ff8:	f6 06 10 5c 	mul	r6,r11,92
80007ffc:	ec cb ff f4 	sub	r11,r6,-12
80008000:	fe b0 e1 c6 	rcall	8000438c <_malloc_r>
80008004:	18 97       	mov	r7,r12
80008006:	c0 90       	breq	80008018 <__sfmoreglue+0x24>
80008008:	99 15       	st.w	r12[0x4],r5
8000800a:	30 0b       	mov	r11,0
8000800c:	2f 4c       	sub	r12,-12
8000800e:	0c 9a       	mov	r10,r6
80008010:	8f 2c       	st.w	r7[0x8],r12
80008012:	8f 0b       	st.w	r7[0x0],r11
80008014:	fe b0 e4 7c 	rcall	8000490c <memset>
80008018:	0e 9c       	mov	r12,r7
8000801a:	d8 22       	popm	r4-r7,pc

8000801c <__sfp>:
8000801c:	d4 21       	pushm	r4-r7,lr
8000801e:	fe c8 e5 32 	sub	r8,pc,-6862
80008022:	18 96       	mov	r6,r12
80008024:	70 07       	ld.w	r7,r8[0x0]
80008026:	6e 68       	ld.w	r8,r7[0x18]
80008028:	58 08       	cp.w	r8,0
8000802a:	c0 31       	brne	80008030 <__sfp+0x14>
8000802c:	0e 9c       	mov	r12,r7
8000802e:	c2 dc       	rcall	80008088 <__sinit>
80008030:	ee c7 ff 28 	sub	r7,r7,-216
80008034:	30 05       	mov	r5,0
80008036:	6e 2c       	ld.w	r12,r7[0x8]
80008038:	6e 18       	ld.w	r8,r7[0x4]
8000803a:	c0 68       	rjmp	80008046 <__sfp+0x2a>
8000803c:	98 69       	ld.sh	r9,r12[0xc]
8000803e:	ea 09 19 00 	cp.h	r9,r5
80008042:	c1 10       	breq	80008064 <__sfp+0x48>
80008044:	2a 4c       	sub	r12,-92
80008046:	20 18       	sub	r8,1
80008048:	cf a7       	brpl	8000803c <__sfp+0x20>
8000804a:	6e 08       	ld.w	r8,r7[0x0]
8000804c:	58 08       	cp.w	r8,0
8000804e:	c0 61       	brne	8000805a <__sfp+0x3e>
80008050:	30 4b       	mov	r11,4
80008052:	0c 9c       	mov	r12,r6
80008054:	cd 0f       	rcall	80007ff4 <__sfmoreglue>
80008056:	8f 0c       	st.w	r7[0x0],r12
80008058:	c0 30       	breq	8000805e <__sfp+0x42>
8000805a:	6e 07       	ld.w	r7,r7[0x0]
8000805c:	ce db       	rjmp	80008036 <__sfp+0x1a>
8000805e:	30 c8       	mov	r8,12
80008060:	8d 38       	st.w	r6[0xc],r8
80008062:	d8 22       	popm	r4-r7,pc
80008064:	30 08       	mov	r8,0
80008066:	f9 48 00 4c 	st.w	r12[76],r8
8000806a:	99 08       	st.w	r12[0x0],r8
8000806c:	99 28       	st.w	r12[0x8],r8
8000806e:	99 18       	st.w	r12[0x4],r8
80008070:	99 48       	st.w	r12[0x10],r8
80008072:	99 58       	st.w	r12[0x14],r8
80008074:	99 68       	st.w	r12[0x18],r8
80008076:	99 d8       	st.w	r12[0x34],r8
80008078:	99 e8       	st.w	r12[0x38],r8
8000807a:	f9 48 00 48 	st.w	r12[72],r8
8000807e:	3f f8       	mov	r8,-1
80008080:	b8 78       	st.h	r12[0xe],r8
80008082:	30 18       	mov	r8,1
80008084:	b8 68       	st.h	r12[0xc],r8
80008086:	d8 22       	popm	r4-r7,pc

80008088 <__sinit>:
80008088:	d4 21       	pushm	r4-r7,lr
8000808a:	18 96       	mov	r6,r12
8000808c:	78 67       	ld.w	r7,r12[0x18]
8000808e:	58 07       	cp.w	r7,0
80008090:	c4 91       	brne	80008122 <__sinit+0x9a>
80008092:	fe c8 00 aa 	sub	r8,pc,170
80008096:	30 15       	mov	r5,1
80008098:	99 a8       	st.w	r12[0x28],r8
8000809a:	f9 47 00 d8 	st.w	r12[216],r7
8000809e:	f9 47 00 dc 	st.w	r12[220],r7
800080a2:	f9 47 00 e0 	st.w	r12[224],r7
800080a6:	99 65       	st.w	r12[0x18],r5
800080a8:	cb af       	rcall	8000801c <__sfp>
800080aa:	8d 0c       	st.w	r6[0x0],r12
800080ac:	0c 9c       	mov	r12,r6
800080ae:	cb 7f       	rcall	8000801c <__sfp>
800080b0:	8d 1c       	st.w	r6[0x4],r12
800080b2:	0c 9c       	mov	r12,r6
800080b4:	cb 4f       	rcall	8000801c <__sfp>
800080b6:	6c 09       	ld.w	r9,r6[0x0]
800080b8:	30 48       	mov	r8,4
800080ba:	93 07       	st.w	r9[0x0],r7
800080bc:	b2 68       	st.h	r9[0xc],r8
800080be:	93 17       	st.w	r9[0x4],r7
800080c0:	93 27       	st.w	r9[0x8],r7
800080c2:	6c 18       	ld.w	r8,r6[0x4]
800080c4:	b2 77       	st.h	r9[0xe],r7
800080c6:	93 47       	st.w	r9[0x10],r7
800080c8:	93 57       	st.w	r9[0x14],r7
800080ca:	93 67       	st.w	r9[0x18],r7
800080cc:	93 89       	st.w	r9[0x20],r9
800080ce:	91 07       	st.w	r8[0x0],r7
800080d0:	91 17       	st.w	r8[0x4],r7
800080d2:	91 27       	st.w	r8[0x8],r7
800080d4:	fe ce f3 24 	sub	lr,pc,-3292
800080d8:	fe cb f3 54 	sub	r11,pc,-3244
800080dc:	93 9e       	st.w	r9[0x24],lr
800080de:	93 ab       	st.w	r9[0x28],r11
800080e0:	fe ca f3 7c 	sub	r10,pc,-3204
800080e4:	fe c4 f3 88 	sub	r4,pc,-3192
800080e8:	93 ba       	st.w	r9[0x2c],r10
800080ea:	93 c4       	st.w	r9[0x30],r4
800080ec:	30 99       	mov	r9,9
800080ee:	b0 69       	st.h	r8[0xc],r9
800080f0:	b0 75       	st.h	r8[0xe],r5
800080f2:	91 c4       	st.w	r8[0x30],r4
800080f4:	91 47       	st.w	r8[0x10],r7
800080f6:	91 57       	st.w	r8[0x14],r7
800080f8:	91 67       	st.w	r8[0x18],r7
800080fa:	91 88       	st.w	r8[0x20],r8
800080fc:	91 9e       	st.w	r8[0x24],lr
800080fe:	91 ab       	st.w	r8[0x28],r11
80008100:	91 ba       	st.w	r8[0x2c],r10
80008102:	8d 2c       	st.w	r6[0x8],r12
80008104:	31 28       	mov	r8,18
80008106:	99 07       	st.w	r12[0x0],r7
80008108:	b8 68       	st.h	r12[0xc],r8
8000810a:	99 17       	st.w	r12[0x4],r7
8000810c:	99 27       	st.w	r12[0x8],r7
8000810e:	30 28       	mov	r8,2
80008110:	b8 78       	st.h	r12[0xe],r8
80008112:	99 c4       	st.w	r12[0x30],r4
80008114:	99 67       	st.w	r12[0x18],r7
80008116:	99 9e       	st.w	r12[0x24],lr
80008118:	99 ab       	st.w	r12[0x28],r11
8000811a:	99 ba       	st.w	r12[0x2c],r10
8000811c:	99 47       	st.w	r12[0x10],r7
8000811e:	99 57       	st.w	r12[0x14],r7
80008120:	99 8c       	st.w	r12[0x20],r12
80008122:	d8 22       	popm	r4-r7,pc

80008124 <_malloc_trim_r>:
80008124:	d4 21       	pushm	r4-r7,lr
80008126:	16 95       	mov	r5,r11
80008128:	18 97       	mov	r7,r12
8000812a:	fe b0 d7 75 	rcall	80003014 <__malloc_lock>
8000812e:	e0 64 01 20 	mov	r4,288
80008132:	68 28       	ld.w	r8,r4[0x8]
80008134:	70 16       	ld.w	r6,r8[0x4]
80008136:	e0 16 ff fc 	andl	r6,0xfffc
8000813a:	ec c8 ff 91 	sub	r8,r6,-111
8000813e:	f0 05 01 05 	sub	r5,r8,r5
80008142:	e0 15 ff 80 	andl	r5,0xff80
80008146:	ea c5 00 80 	sub	r5,r5,128
8000814a:	e0 45 00 7f 	cp.w	r5,127
8000814e:	e0 8a 00 25 	brle	80008198 <_malloc_trim_r+0x74>
80008152:	30 0b       	mov	r11,0
80008154:	0e 9c       	mov	r12,r7
80008156:	fe b0 e5 43 	rcall	80004bdc <_sbrk_r>
8000815a:	68 28       	ld.w	r8,r4[0x8]
8000815c:	0c 08       	add	r8,r6
8000815e:	10 3c       	cp.w	r12,r8
80008160:	c1 c1       	brne	80008198 <_malloc_trim_r+0x74>
80008162:	ea 0b 11 00 	rsub	r11,r5,0
80008166:	0e 9c       	mov	r12,r7
80008168:	fe b0 e5 3a 	rcall	80004bdc <_sbrk_r>
8000816c:	5b fc       	cp.w	r12,-1
8000816e:	c1 91       	brne	800081a0 <_malloc_trim_r+0x7c>
80008170:	30 0b       	mov	r11,0
80008172:	0e 9c       	mov	r12,r7
80008174:	fe b0 e5 34 	rcall	80004bdc <_sbrk_r>
80008178:	68 28       	ld.w	r8,r4[0x8]
8000817a:	f8 08 01 09 	sub	r9,r12,r8
8000817e:	58 f9       	cp.w	r9,15
80008180:	e0 8a 00 0c 	brle	80008198 <_malloc_trim_r+0x74>
80008184:	a1 a9       	sbr	r9,0x0
80008186:	91 19       	st.w	r8[0x4],r9
80008188:	e0 68 05 2c 	mov	r8,1324
8000818c:	70 09       	ld.w	r9,r8[0x0]
8000818e:	e0 68 07 a8 	mov	r8,1960
80008192:	f8 09 01 09 	sub	r9,r12,r9
80008196:	91 09       	st.w	r8[0x0],r9
80008198:	0e 9c       	mov	r12,r7
8000819a:	fe b0 d7 41 	rcall	8000301c <__malloc_unlock>
8000819e:	d8 2a       	popm	r4-r7,pc,r12=0
800081a0:	68 28       	ld.w	r8,r4[0x8]
800081a2:	0a 16       	sub	r6,r5
800081a4:	a1 a6       	sbr	r6,0x0
800081a6:	91 16       	st.w	r8[0x4],r6
800081a8:	e0 68 07 a8 	mov	r8,1960
800081ac:	70 09       	ld.w	r9,r8[0x0]
800081ae:	0a 19       	sub	r9,r5
800081b0:	0e 9c       	mov	r12,r7
800081b2:	91 09       	st.w	r8[0x0],r9
800081b4:	fe b0 d7 34 	rcall	8000301c <__malloc_unlock>
800081b8:	da 2a       	popm	r4-r7,pc,r12=1
800081ba:	d7 03       	nop

800081bc <_free_r>:
800081bc:	d4 21       	pushm	r4-r7,lr
800081be:	16 96       	mov	r6,r11
800081c0:	18 97       	mov	r7,r12
800081c2:	58 0b       	cp.w	r11,0
800081c4:	e0 80 00 c0 	breq	80008344 <_free_r+0x188>
800081c8:	fe b0 d7 26 	rcall	80003014 <__malloc_lock>
800081cc:	20 86       	sub	r6,8
800081ce:	e0 6a 01 20 	mov	r10,288
800081d2:	6c 18       	ld.w	r8,r6[0x4]
800081d4:	74 2e       	ld.w	lr,r10[0x8]
800081d6:	f9 d8 c0 01 	bfextu	r12,r8,0x0,0x1
800081da:	a1 c8       	cbr	r8,0x0
800081dc:	ec 08 00 09 	add	r9,r6,r8
800081e0:	72 1b       	ld.w	r11,r9[0x4]
800081e2:	e0 1b ff fc 	andl	r11,0xfffc
800081e6:	1c 39       	cp.w	r9,lr
800081e8:	c1 e1       	brne	80008224 <_free_r+0x68>
800081ea:	f6 08 00 08 	add	r8,r11,r8
800081ee:	58 0c       	cp.w	r12,0
800081f0:	c0 81       	brne	80008200 <_free_r+0x44>
800081f2:	6c 09       	ld.w	r9,r6[0x0]
800081f4:	12 16       	sub	r6,r9
800081f6:	12 08       	add	r8,r9
800081f8:	6c 3b       	ld.w	r11,r6[0xc]
800081fa:	6c 29       	ld.w	r9,r6[0x8]
800081fc:	97 29       	st.w	r11[0x8],r9
800081fe:	93 3b       	st.w	r9[0xc],r11
80008200:	10 99       	mov	r9,r8
80008202:	95 26       	st.w	r10[0x8],r6
80008204:	a1 a9       	sbr	r9,0x0
80008206:	8d 19       	st.w	r6[0x4],r9
80008208:	e0 69 05 28 	mov	r9,1320
8000820c:	72 09       	ld.w	r9,r9[0x0]
8000820e:	12 38       	cp.w	r8,r9
80008210:	c0 63       	brcs	8000821c <_free_r+0x60>
80008212:	e0 68 07 a4 	mov	r8,1956
80008216:	0e 9c       	mov	r12,r7
80008218:	70 0b       	ld.w	r11,r8[0x0]
8000821a:	c8 5f       	rcall	80008124 <_malloc_trim_r>
8000821c:	0e 9c       	mov	r12,r7
8000821e:	fe b0 d6 ff 	rcall	8000301c <__malloc_unlock>
80008222:	d8 22       	popm	r4-r7,pc
80008224:	93 1b       	st.w	r9[0x4],r11
80008226:	58 0c       	cp.w	r12,0
80008228:	c0 30       	breq	8000822e <_free_r+0x72>
8000822a:	30 0c       	mov	r12,0
8000822c:	c1 08       	rjmp	8000824c <_free_r+0x90>
8000822e:	6c 0e       	ld.w	lr,r6[0x0]
80008230:	f4 c5 ff f8 	sub	r5,r10,-8
80008234:	1c 16       	sub	r6,lr
80008236:	1c 08       	add	r8,lr
80008238:	6c 2e       	ld.w	lr,r6[0x8]
8000823a:	0a 3e       	cp.w	lr,r5
8000823c:	f9 bc 00 01 	moveq	r12,1
80008240:	ed f5 10 03 	ld.wne	r5,r6[0xc]
80008244:	eb fe 1a 02 	st.wne	r5[0x8],lr
80008248:	fd f5 1a 03 	st.wne	lr[0xc],r5
8000824c:	f2 0b 00 0e 	add	lr,r9,r11
80008250:	7c 1e       	ld.w	lr,lr[0x4]
80008252:	ed be 00 00 	bld	lr,0x0
80008256:	c1 40       	breq	8000827e <_free_r+0xc2>
80008258:	16 08       	add	r8,r11
8000825a:	58 0c       	cp.w	r12,0
8000825c:	c0 d1       	brne	80008276 <_free_r+0xba>
8000825e:	e0 6e 01 20 	mov	lr,288
80008262:	72 2b       	ld.w	r11,r9[0x8]
80008264:	2f 8e       	sub	lr,-8
80008266:	1c 3b       	cp.w	r11,lr
80008268:	c0 71       	brne	80008276 <_free_r+0xba>
8000826a:	97 36       	st.w	r11[0xc],r6
8000826c:	97 26       	st.w	r11[0x8],r6
8000826e:	8d 2b       	st.w	r6[0x8],r11
80008270:	8d 3b       	st.w	r6[0xc],r11
80008272:	30 1c       	mov	r12,1
80008274:	c0 58       	rjmp	8000827e <_free_r+0xc2>
80008276:	72 2b       	ld.w	r11,r9[0x8]
80008278:	72 39       	ld.w	r9,r9[0xc]
8000827a:	93 2b       	st.w	r9[0x8],r11
8000827c:	97 39       	st.w	r11[0xc],r9
8000827e:	10 99       	mov	r9,r8
80008280:	ec 08 09 08 	st.w	r6[r8],r8
80008284:	a1 a9       	sbr	r9,0x0
80008286:	8d 19       	st.w	r6[0x4],r9
80008288:	58 0c       	cp.w	r12,0
8000828a:	c5 a1       	brne	8000833e <_free_r+0x182>
8000828c:	e0 48 01 ff 	cp.w	r8,511
80008290:	e0 8b 00 13 	brhi	800082b6 <_free_r+0xfa>
80008294:	a3 98       	lsr	r8,0x3
80008296:	f4 08 00 39 	add	r9,r10,r8<<0x3
8000829a:	72 2b       	ld.w	r11,r9[0x8]
8000829c:	8d 39       	st.w	r6[0xc],r9
8000829e:	8d 2b       	st.w	r6[0x8],r11
800082a0:	97 36       	st.w	r11[0xc],r6
800082a2:	93 26       	st.w	r9[0x8],r6
800082a4:	a3 48       	asr	r8,0x2
800082a6:	74 19       	ld.w	r9,r10[0x4]
800082a8:	30 1b       	mov	r11,1
800082aa:	f6 08 09 48 	lsl	r8,r11,r8
800082ae:	f3 e8 10 08 	or	r8,r9,r8
800082b2:	95 18       	st.w	r10[0x4],r8
800082b4:	c4 58       	rjmp	8000833e <_free_r+0x182>
800082b6:	f0 0b 16 09 	lsr	r11,r8,0x9
800082ba:	58 4b       	cp.w	r11,4
800082bc:	e0 8b 00 06 	brhi	800082c8 <_free_r+0x10c>
800082c0:	f0 0b 16 06 	lsr	r11,r8,0x6
800082c4:	2c 8b       	sub	r11,-56
800082c6:	c2 08       	rjmp	80008306 <_free_r+0x14a>
800082c8:	59 4b       	cp.w	r11,20
800082ca:	e0 8b 00 04 	brhi	800082d2 <_free_r+0x116>
800082ce:	2a 5b       	sub	r11,-91
800082d0:	c1 b8       	rjmp	80008306 <_free_r+0x14a>
800082d2:	e0 4b 00 54 	cp.w	r11,84
800082d6:	e0 8b 00 06 	brhi	800082e2 <_free_r+0x126>
800082da:	f0 0b 16 0c 	lsr	r11,r8,0xc
800082de:	29 2b       	sub	r11,-110
800082e0:	c1 38       	rjmp	80008306 <_free_r+0x14a>
800082e2:	e0 4b 01 54 	cp.w	r11,340
800082e6:	e0 8b 00 06 	brhi	800082f2 <_free_r+0x136>
800082ea:	f0 0b 16 0f 	lsr	r11,r8,0xf
800082ee:	28 9b       	sub	r11,-119
800082f0:	c0 b8       	rjmp	80008306 <_free_r+0x14a>
800082f2:	e0 4b 05 54 	cp.w	r11,1364
800082f6:	e0 88 00 05 	brls	80008300 <_free_r+0x144>
800082fa:	37 eb       	mov	r11,126
800082fc:	c0 58       	rjmp	80008306 <_free_r+0x14a>
800082fe:	d7 03       	nop
80008300:	f0 0b 16 12 	lsr	r11,r8,0x12
80008304:	28 4b       	sub	r11,-124
80008306:	f4 0b 00 3c 	add	r12,r10,r11<<0x3
8000830a:	78 29       	ld.w	r9,r12[0x8]
8000830c:	18 39       	cp.w	r9,r12
8000830e:	c0 e1       	brne	8000832a <_free_r+0x16e>
80008310:	74 18       	ld.w	r8,r10[0x4]
80008312:	a3 4b       	asr	r11,0x2
80008314:	30 1c       	mov	r12,1
80008316:	f8 0b 09 4b 	lsl	r11,r12,r11
8000831a:	f1 eb 10 0b 	or	r11,r8,r11
8000831e:	12 98       	mov	r8,r9
80008320:	95 1b       	st.w	r10[0x4],r11
80008322:	c0 a8       	rjmp	80008336 <_free_r+0x17a>
80008324:	72 29       	ld.w	r9,r9[0x8]
80008326:	18 39       	cp.w	r9,r12
80008328:	c0 60       	breq	80008334 <_free_r+0x178>
8000832a:	72 1a       	ld.w	r10,r9[0x4]
8000832c:	e0 1a ff fc 	andl	r10,0xfffc
80008330:	14 38       	cp.w	r8,r10
80008332:	cf 93       	brcs	80008324 <_free_r+0x168>
80008334:	72 38       	ld.w	r8,r9[0xc]
80008336:	8d 38       	st.w	r6[0xc],r8
80008338:	8d 29       	st.w	r6[0x8],r9
8000833a:	93 36       	st.w	r9[0xc],r6
8000833c:	91 26       	st.w	r8[0x8],r6
8000833e:	0e 9c       	mov	r12,r7
80008340:	fe b0 d6 6e 	rcall	8000301c <__malloc_unlock>
80008344:	d8 22       	popm	r4-r7,pc
80008346:	d7 03       	nop

80008348 <__sfvwrite_r>:
80008348:	d4 31       	pushm	r0-r7,lr
8000834a:	20 3d       	sub	sp,12
8000834c:	14 94       	mov	r4,r10
8000834e:	18 95       	mov	r5,r12
80008350:	16 97       	mov	r7,r11
80008352:	74 28       	ld.w	r8,r10[0x8]
80008354:	58 08       	cp.w	r8,0
80008356:	e0 80 01 40 	breq	800085d6 <__sfvwrite_r+0x28e>
8000835a:	96 68       	ld.sh	r8,r11[0xc]
8000835c:	ed b8 00 03 	bld	r8,0x3
80008360:	c0 41       	brne	80008368 <__sfvwrite_r+0x20>
80008362:	76 48       	ld.w	r8,r11[0x10]
80008364:	58 08       	cp.w	r8,0
80008366:	c0 c1       	brne	8000837e <__sfvwrite_r+0x36>
80008368:	0e 9b       	mov	r11,r7
8000836a:	0a 9c       	mov	r12,r5
8000836c:	fe b0 f6 0c 	rcall	80006f84 <__swsetup_r>
80008370:	c0 70       	breq	8000837e <__sfvwrite_r+0x36>
80008372:	8e 68       	ld.sh	r8,r7[0xc]
80008374:	a7 a8       	sbr	r8,0x6
80008376:	ae 68       	st.h	r7[0xc],r8
80008378:	30 98       	mov	r8,9
8000837a:	8b 38       	st.w	r5[0xc],r8
8000837c:	c2 b9       	rjmp	800085d2 <__sfvwrite_r+0x28a>
8000837e:	8e 63       	ld.sh	r3,r7[0xc]
80008380:	68 00       	ld.w	r0,r4[0x0]
80008382:	06 96       	mov	r6,r3
80008384:	e2 16 00 02 	andl	r6,0x2,COH
80008388:	c2 10       	breq	800083ca <__sfvwrite_r+0x82>
8000838a:	30 03       	mov	r3,0
8000838c:	e0 62 04 00 	mov	r2,1024
80008390:	06 96       	mov	r6,r3
80008392:	c0 48       	rjmp	8000839a <__sfvwrite_r+0x52>
80008394:	60 03       	ld.w	r3,r0[0x0]
80008396:	60 16       	ld.w	r6,r0[0x4]
80008398:	2f 80       	sub	r0,-8
8000839a:	58 06       	cp.w	r6,0
8000839c:	cf c0       	breq	80008394 <__sfvwrite_r+0x4c>
8000839e:	e0 46 04 00 	cp.w	r6,1024
800083a2:	ec 09 17 80 	movls	r9,r6
800083a6:	e4 09 17 b0 	movhi	r9,r2
800083aa:	06 9a       	mov	r10,r3
800083ac:	6e a8       	ld.w	r8,r7[0x28]
800083ae:	6e 8b       	ld.w	r11,r7[0x20]
800083b0:	0a 9c       	mov	r12,r5
800083b2:	5d 18       	icall	r8
800083b4:	18 16       	sub	r6,r12
800083b6:	58 0c       	cp.w	r12,0
800083b8:	e0 8a 01 0a 	brle	800085cc <__sfvwrite_r+0x284>
800083bc:	68 28       	ld.w	r8,r4[0x8]
800083be:	18 18       	sub	r8,r12
800083c0:	89 28       	st.w	r4[0x8],r8
800083c2:	e0 80 01 0a 	breq	800085d6 <__sfvwrite_r+0x28e>
800083c6:	18 03       	add	r3,r12
800083c8:	ce 9b       	rjmp	8000839a <__sfvwrite_r+0x52>
800083ca:	e7 d3 c0 01 	bfextu	r3,r3,0x0,0x1
800083ce:	c0 70       	breq	800083dc <__sfvwrite_r+0x94>
800083d0:	50 06       	stdsp	sp[0x0],r6
800083d2:	0c 93       	mov	r3,r6
800083d4:	0c 91       	mov	r1,r6
800083d6:	50 15       	stdsp	sp[0x4],r5
800083d8:	08 92       	mov	r2,r4
800083da:	c9 c8       	rjmp	80008512 <__sfvwrite_r+0x1ca>
800083dc:	06 96       	mov	r6,r3
800083de:	08 91       	mov	r1,r4
800083e0:	c0 48       	rjmp	800083e8 <__sfvwrite_r+0xa0>
800083e2:	60 03       	ld.w	r3,r0[0x0]
800083e4:	60 16       	ld.w	r6,r0[0x4]
800083e6:	2f 80       	sub	r0,-8
800083e8:	58 06       	cp.w	r6,0
800083ea:	cf c0       	breq	800083e2 <__sfvwrite_r+0x9a>
800083ec:	8e 68       	ld.sh	r8,r7[0xc]
800083ee:	6e 24       	ld.w	r4,r7[0x8]
800083f0:	10 99       	mov	r9,r8
800083f2:	e2 19 02 00 	andl	r9,0x200,COH
800083f6:	c5 50       	breq	800084a0 <__sfvwrite_r+0x158>
800083f8:	08 36       	cp.w	r6,r4
800083fa:	c4 43       	brcs	80008482 <__sfvwrite_r+0x13a>
800083fc:	10 99       	mov	r9,r8
800083fe:	e2 19 04 80 	andl	r9,0x480,COH
80008402:	c4 00       	breq	80008482 <__sfvwrite_r+0x13a>
80008404:	6e 4b       	ld.w	r11,r7[0x10]
80008406:	6e 09       	ld.w	r9,r7[0x0]
80008408:	16 19       	sub	r9,r11
8000840a:	50 09       	stdsp	sp[0x0],r9
8000840c:	6e 59       	ld.w	r9,r7[0x14]
8000840e:	10 9c       	mov	r12,r8
80008410:	f2 09 00 1a 	add	r10,r9,r9<<0x1
80008414:	30 28       	mov	r8,2
80008416:	f4 08 0c 08 	divs	r8,r10,r8
8000841a:	fa e9 00 04 	st.d	sp[4],r8
8000841e:	10 94       	mov	r4,r8
80008420:	40 09       	lddsp	r9,sp[0x0]
80008422:	e2 1c 04 00 	andl	r12,0x400,COH
80008426:	2f f9       	sub	r9,-1
80008428:	0c 09       	add	r9,r6
8000842a:	12 38       	cp.w	r8,r9
8000842c:	f2 04 17 30 	movlo	r4,r9
80008430:	58 0c       	cp.w	r12,0
80008432:	c1 10       	breq	80008454 <__sfvwrite_r+0x10c>
80008434:	08 9b       	mov	r11,r4
80008436:	0a 9c       	mov	r12,r5
80008438:	fe b0 df aa 	rcall	8000438c <_malloc_r>
8000843c:	18 92       	mov	r2,r12
8000843e:	c1 40       	breq	80008466 <__sfvwrite_r+0x11e>
80008440:	40 0a       	lddsp	r10,sp[0x0]
80008442:	6e 4b       	ld.w	r11,r7[0x10]
80008444:	fe b0 e1 c0 	rcall	800047c4 <memcpy>
80008448:	8e 68       	ld.sh	r8,r7[0xc]
8000844a:	e0 18 fb 7f 	andl	r8,0xfb7f
8000844e:	a7 b8       	sbr	r8,0x7
80008450:	ae 68       	st.h	r7[0xc],r8
80008452:	c0 d8       	rjmp	8000846c <__sfvwrite_r+0x124>
80008454:	08 9a       	mov	r10,r4
80008456:	0a 9c       	mov	r12,r5
80008458:	fe b0 e2 62 	rcall	8000491c <_realloc_r>
8000845c:	18 92       	mov	r2,r12
8000845e:	c0 71       	brne	8000846c <__sfvwrite_r+0x124>
80008460:	6e 4b       	ld.w	r11,r7[0x10]
80008462:	0a 9c       	mov	r12,r5
80008464:	ca ce       	rcall	800081bc <_free_r>
80008466:	30 c8       	mov	r8,12
80008468:	8b 38       	st.w	r5[0xc],r8
8000846a:	cb 18       	rjmp	800085cc <__sfvwrite_r+0x284>
8000846c:	40 0a       	lddsp	r10,sp[0x0]
8000846e:	40 09       	lddsp	r9,sp[0x0]
80008470:	e8 0a 01 0a 	sub	r10,r4,r10
80008474:	e4 09 00 08 	add	r8,r2,r9
80008478:	8f 54       	st.w	r7[0x14],r4
8000847a:	8f 2a       	st.w	r7[0x8],r10
8000847c:	8f 08       	st.w	r7[0x0],r8
8000847e:	8f 42       	st.w	r7[0x10],r2
80008480:	0c 94       	mov	r4,r6
80008482:	08 36       	cp.w	r6,r4
80008484:	ec 04 17 30 	movlo	r4,r6
80008488:	06 9b       	mov	r11,r3
8000848a:	08 9a       	mov	r10,r4
8000848c:	6e 0c       	ld.w	r12,r7[0x0]
8000848e:	c3 ad       	rcall	80008702 <memmove>
80008490:	6e 08       	ld.w	r8,r7[0x0]
80008492:	08 08       	add	r8,r4
80008494:	8f 08       	st.w	r7[0x0],r8
80008496:	6e 28       	ld.w	r8,r7[0x8]
80008498:	08 18       	sub	r8,r4
8000849a:	0c 94       	mov	r4,r6
8000849c:	8f 28       	st.w	r7[0x8],r8
8000849e:	c2 e8       	rjmp	800084fa <__sfvwrite_r+0x1b2>
800084a0:	08 36       	cp.w	r6,r4
800084a2:	5f ba       	srhi	r10
800084a4:	6e 0c       	ld.w	r12,r7[0x0]
800084a6:	6e 48       	ld.w	r8,r7[0x10]
800084a8:	10 3c       	cp.w	r12,r8
800084aa:	5f b8       	srhi	r8
800084ac:	f5 e8 00 08 	and	r8,r10,r8
800084b0:	f2 08 18 00 	cp.b	r8,r9
800084b4:	c0 d0       	breq	800084ce <__sfvwrite_r+0x186>
800084b6:	06 9b       	mov	r11,r3
800084b8:	08 9a       	mov	r10,r4
800084ba:	c2 4d       	rcall	80008702 <memmove>
800084bc:	6e 08       	ld.w	r8,r7[0x0]
800084be:	08 08       	add	r8,r4
800084c0:	0e 9b       	mov	r11,r7
800084c2:	8f 08       	st.w	r7[0x0],r8
800084c4:	0a 9c       	mov	r12,r5
800084c6:	fe b0 fd 09 	rcall	80007ed8 <_fflush_r>
800084ca:	c1 80       	breq	800084fa <__sfvwrite_r+0x1b2>
800084cc:	c8 08       	rjmp	800085cc <__sfvwrite_r+0x284>
800084ce:	6e 59       	ld.w	r9,r7[0x14]
800084d0:	12 36       	cp.w	r6,r9
800084d2:	c0 a3       	brcs	800084e6 <__sfvwrite_r+0x19e>
800084d4:	6e a8       	ld.w	r8,r7[0x28]
800084d6:	06 9a       	mov	r10,r3
800084d8:	6e 8b       	ld.w	r11,r7[0x20]
800084da:	0a 9c       	mov	r12,r5
800084dc:	5d 18       	icall	r8
800084de:	18 94       	mov	r4,r12
800084e0:	e0 89 00 0d 	brgt	800084fa <__sfvwrite_r+0x1b2>
800084e4:	c7 48       	rjmp	800085cc <__sfvwrite_r+0x284>
800084e6:	0c 9a       	mov	r10,r6
800084e8:	06 9b       	mov	r11,r3
800084ea:	c0 cd       	rcall	80008702 <memmove>
800084ec:	6e 08       	ld.w	r8,r7[0x0]
800084ee:	0c 08       	add	r8,r6
800084f0:	0c 94       	mov	r4,r6
800084f2:	8f 08       	st.w	r7[0x0],r8
800084f4:	6e 28       	ld.w	r8,r7[0x8]
800084f6:	0c 18       	sub	r8,r6
800084f8:	8f 28       	st.w	r7[0x8],r8
800084fa:	62 28       	ld.w	r8,r1[0x8]
800084fc:	08 18       	sub	r8,r4
800084fe:	83 28       	st.w	r1[0x8],r8
80008500:	c6 b0       	breq	800085d6 <__sfvwrite_r+0x28e>
80008502:	08 16       	sub	r6,r4
80008504:	08 03       	add	r3,r4
80008506:	c7 1b       	rjmp	800083e8 <__sfvwrite_r+0xa0>
80008508:	60 03       	ld.w	r3,r0[0x0]
8000850a:	60 11       	ld.w	r1,r0[0x4]
8000850c:	30 08       	mov	r8,0
8000850e:	2f 80       	sub	r0,-8
80008510:	50 08       	stdsp	sp[0x0],r8
80008512:	58 01       	cp.w	r1,0
80008514:	cf a0       	breq	80008508 <__sfvwrite_r+0x1c0>
80008516:	40 0a       	lddsp	r10,sp[0x0]
80008518:	58 0a       	cp.w	r10,0
8000851a:	c1 41       	brne	80008542 <__sfvwrite_r+0x1fa>
8000851c:	e2 c6 ff ff 	sub	r6,r1,-1
80008520:	02 9a       	mov	r10,r1
80008522:	30 ab       	mov	r11,10
80008524:	06 9c       	mov	r12,r3
80008526:	ce 3c       	rcall	800086ec <memchr>
80008528:	f8 c8 ff ff 	sub	r8,r12,-1
8000852c:	58 0c       	cp.w	r12,0
8000852e:	f1 d3 e1 16 	subne	r6,r8,r3
80008532:	f9 b9 01 01 	movne	r9,1
80008536:	fb f9 1a 00 	st.wne	sp[0x0],r9
8000853a:	f9 b8 00 01 	moveq	r8,1
8000853e:	fb f8 0a 00 	st.weq	sp[0x0],r8
80008542:	02 36       	cp.w	r6,r1
80008544:	ec 04 17 80 	movls	r4,r6
80008548:	e2 04 17 b0 	movhi	r4,r1
8000854c:	6e 59       	ld.w	r9,r7[0x14]
8000854e:	6e 25       	ld.w	r5,r7[0x8]
80008550:	f2 05 00 05 	add	r5,r9,r5
80008554:	0a 34       	cp.w	r4,r5
80008556:	5f 9a       	srgt	r10
80008558:	6e 0c       	ld.w	r12,r7[0x0]
8000855a:	6e 48       	ld.w	r8,r7[0x10]
8000855c:	10 3c       	cp.w	r12,r8
8000855e:	5f b8       	srhi	r8
80008560:	f5 e8 00 08 	and	r8,r10,r8
80008564:	30 0a       	mov	r10,0
80008566:	f4 08 18 00 	cp.b	r8,r10
8000856a:	c0 d0       	breq	80008584 <__sfvwrite_r+0x23c>
8000856c:	06 9b       	mov	r11,r3
8000856e:	0a 9a       	mov	r10,r5
80008570:	cc 9c       	rcall	80008702 <memmove>
80008572:	6e 08       	ld.w	r8,r7[0x0]
80008574:	0a 08       	add	r8,r5
80008576:	0e 9b       	mov	r11,r7
80008578:	8f 08       	st.w	r7[0x0],r8
8000857a:	40 1c       	lddsp	r12,sp[0x4]
8000857c:	fe b0 fc ae 	rcall	80007ed8 <_fflush_r>
80008580:	c1 70       	breq	800085ae <__sfvwrite_r+0x266>
80008582:	c2 58       	rjmp	800085cc <__sfvwrite_r+0x284>
80008584:	12 34       	cp.w	r4,r9
80008586:	c0 a5       	brlt	8000859a <__sfvwrite_r+0x252>
80008588:	6e a8       	ld.w	r8,r7[0x28]
8000858a:	06 9a       	mov	r10,r3
8000858c:	6e 8b       	ld.w	r11,r7[0x20]
8000858e:	40 1c       	lddsp	r12,sp[0x4]
80008590:	5d 18       	icall	r8
80008592:	18 95       	mov	r5,r12
80008594:	e0 89 00 0d 	brgt	800085ae <__sfvwrite_r+0x266>
80008598:	c1 a8       	rjmp	800085cc <__sfvwrite_r+0x284>
8000859a:	08 9a       	mov	r10,r4
8000859c:	06 9b       	mov	r11,r3
8000859e:	cb 2c       	rcall	80008702 <memmove>
800085a0:	6e 08       	ld.w	r8,r7[0x0]
800085a2:	08 08       	add	r8,r4
800085a4:	08 95       	mov	r5,r4
800085a6:	8f 08       	st.w	r7[0x0],r8
800085a8:	6e 28       	ld.w	r8,r7[0x8]
800085aa:	08 18       	sub	r8,r4
800085ac:	8f 28       	st.w	r7[0x8],r8
800085ae:	0a 16       	sub	r6,r5
800085b0:	c0 71       	brne	800085be <__sfvwrite_r+0x276>
800085b2:	0e 9b       	mov	r11,r7
800085b4:	40 1c       	lddsp	r12,sp[0x4]
800085b6:	fe b0 fc 91 	rcall	80007ed8 <_fflush_r>
800085ba:	c0 91       	brne	800085cc <__sfvwrite_r+0x284>
800085bc:	50 06       	stdsp	sp[0x0],r6
800085be:	64 28       	ld.w	r8,r2[0x8]
800085c0:	0a 18       	sub	r8,r5
800085c2:	85 28       	st.w	r2[0x8],r8
800085c4:	c0 90       	breq	800085d6 <__sfvwrite_r+0x28e>
800085c6:	0a 11       	sub	r1,r5
800085c8:	0a 03       	add	r3,r5
800085ca:	ca 4b       	rjmp	80008512 <__sfvwrite_r+0x1ca>
800085cc:	8e 68       	ld.sh	r8,r7[0xc]
800085ce:	a7 a8       	sbr	r8,0x6
800085d0:	ae 68       	st.h	r7[0xc],r8
800085d2:	3f fc       	mov	r12,-1
800085d4:	c0 28       	rjmp	800085d8 <__sfvwrite_r+0x290>
800085d6:	30 0c       	mov	r12,0
800085d8:	2f dd       	sub	sp,-12
800085da:	d8 32       	popm	r0-r7,pc

800085dc <_fwalk>:
800085dc:	d4 31       	pushm	r0-r7,lr
800085de:	30 05       	mov	r5,0
800085e0:	16 91       	mov	r1,r11
800085e2:	f8 c7 ff 28 	sub	r7,r12,-216
800085e6:	0a 92       	mov	r2,r5
800085e8:	fe b0 fc fe 	rcall	80007fe4 <__sfp_lock_acquire>
800085ec:	3f f3       	mov	r3,-1
800085ee:	c1 68       	rjmp	8000861a <_fwalk+0x3e>
800085f0:	6e 26       	ld.w	r6,r7[0x8]
800085f2:	6e 14       	ld.w	r4,r7[0x4]
800085f4:	2f 46       	sub	r6,-12
800085f6:	c0 c8       	rjmp	8000860e <_fwalk+0x32>
800085f8:	8c 08       	ld.sh	r8,r6[0x0]
800085fa:	e4 08 19 00 	cp.h	r8,r2
800085fe:	c0 70       	breq	8000860c <_fwalk+0x30>
80008600:	8c 18       	ld.sh	r8,r6[0x2]
80008602:	e6 08 19 00 	cp.h	r8,r3
80008606:	c0 30       	breq	8000860c <_fwalk+0x30>
80008608:	5d 11       	icall	r1
8000860a:	18 45       	or	r5,r12
8000860c:	2a 46       	sub	r6,-92
8000860e:	20 14       	sub	r4,1
80008610:	ec cc 00 0c 	sub	r12,r6,12
80008614:	58 04       	cp.w	r4,0
80008616:	cf 14       	brge	800085f8 <_fwalk+0x1c>
80008618:	6e 07       	ld.w	r7,r7[0x0]
8000861a:	58 07       	cp.w	r7,0
8000861c:	ce a1       	brne	800085f0 <_fwalk+0x14>
8000861e:	fe b0 fc e4 	rcall	80007fe6 <__sfp_lock_release>
80008622:	0a 9c       	mov	r12,r5
80008624:	d8 32       	popm	r0-r7,pc
80008626:	d7 03       	nop

80008628 <_localeconv_r>:
80008628:	fe cc e6 f8 	sub	r12,pc,-6408
8000862c:	5e fc       	retal	r12
8000862e:	d7 03       	nop

80008630 <__smakebuf_r>:
80008630:	d4 21       	pushm	r4-r7,lr
80008632:	20 fd       	sub	sp,60
80008634:	96 68       	ld.sh	r8,r11[0xc]
80008636:	16 97       	mov	r7,r11
80008638:	18 96       	mov	r6,r12
8000863a:	e2 18 00 02 	andl	r8,0x2,COH
8000863e:	c3 d1       	brne	800086b8 <__smakebuf_r+0x88>
80008640:	96 7b       	ld.sh	r11,r11[0xe]
80008642:	f0 0b 19 00 	cp.h	r11,r8
80008646:	c0 55       	brlt	80008650 <__smakebuf_r+0x20>
80008648:	1a 9a       	mov	r10,sp
8000864a:	e0 a0 04 81 	rcall	80008f4c <_fstat_r>
8000864e:	c0 f4       	brge	8000866c <__smakebuf_r+0x3c>
80008650:	8e 65       	ld.sh	r5,r7[0xc]
80008652:	0a 98       	mov	r8,r5
80008654:	ab b8       	sbr	r8,0xb
80008656:	e2 15 00 80 	andl	r5,0x80,COH
8000865a:	ae 68       	st.h	r7[0xc],r8
8000865c:	30 04       	mov	r4,0
8000865e:	e0 68 04 00 	mov	r8,1024
80008662:	f9 b5 01 40 	movne	r5,64
80008666:	f0 05 17 00 	moveq	r5,r8
8000866a:	c1 c8       	rjmp	800086a2 <__smakebuf_r+0x72>
8000866c:	40 18       	lddsp	r8,sp[0x4]
8000866e:	e2 18 f0 00 	andl	r8,0xf000,COH
80008672:	e0 48 20 00 	cp.w	r8,8192
80008676:	5f 04       	sreq	r4
80008678:	e0 48 80 00 	cp.w	r8,32768
8000867c:	c0 e1       	brne	80008698 <__smakebuf_r+0x68>
8000867e:	6e b9       	ld.w	r9,r7[0x2c]
80008680:	fe c8 f9 1c 	sub	r8,pc,-1764
80008684:	10 39       	cp.w	r9,r8
80008686:	c0 91       	brne	80008698 <__smakebuf_r+0x68>
80008688:	8e 68       	ld.sh	r8,r7[0xc]
8000868a:	e0 65 04 00 	mov	r5,1024
8000868e:	ab a8       	sbr	r8,0xa
80008690:	ef 45 00 50 	st.w	r7[80],r5
80008694:	ae 68       	st.h	r7[0xc],r8
80008696:	c0 68       	rjmp	800086a2 <__smakebuf_r+0x72>
80008698:	8e 68       	ld.sh	r8,r7[0xc]
8000869a:	e0 65 04 00 	mov	r5,1024
8000869e:	ab b8       	sbr	r8,0xb
800086a0:	ae 68       	st.h	r7[0xc],r8
800086a2:	0a 9b       	mov	r11,r5
800086a4:	0c 9c       	mov	r12,r6
800086a6:	fe b0 de 73 	rcall	8000438c <_malloc_r>
800086aa:	8e 68       	ld.sh	r8,r7[0xc]
800086ac:	c0 d1       	brne	800086c6 <__smakebuf_r+0x96>
800086ae:	ed b8 00 09 	bld	r8,0x9
800086b2:	c1 b0       	breq	800086e8 <__smakebuf_r+0xb8>
800086b4:	a1 b8       	sbr	r8,0x1
800086b6:	ae 68       	st.h	r7[0xc],r8
800086b8:	ee c8 ff b9 	sub	r8,r7,-71
800086bc:	8f 48       	st.w	r7[0x10],r8
800086be:	8f 08       	st.w	r7[0x0],r8
800086c0:	30 18       	mov	r8,1
800086c2:	8f 58       	st.w	r7[0x14],r8
800086c4:	c1 28       	rjmp	800086e8 <__smakebuf_r+0xb8>
800086c6:	a7 b8       	sbr	r8,0x7
800086c8:	8f 4c       	st.w	r7[0x10],r12
800086ca:	ae 68       	st.h	r7[0xc],r8
800086cc:	8f 55       	st.w	r7[0x14],r5
800086ce:	fe c8 06 e6 	sub	r8,pc,1766
800086d2:	8f 0c       	st.w	r7[0x0],r12
800086d4:	8d a8       	st.w	r6[0x28],r8
800086d6:	58 04       	cp.w	r4,0
800086d8:	c0 80       	breq	800086e8 <__smakebuf_r+0xb8>
800086da:	8e 7c       	ld.sh	r12,r7[0xe]
800086dc:	fe b0 e2 dc 	rcall	80004c94 <isatty>
800086e0:	c0 40       	breq	800086e8 <__smakebuf_r+0xb8>
800086e2:	8e 68       	ld.sh	r8,r7[0xc]
800086e4:	a1 a8       	sbr	r8,0x0
800086e6:	ae 68       	st.h	r7[0xc],r8
800086e8:	2f 1d       	sub	sp,-60
800086ea:	d8 22       	popm	r4-r7,pc

800086ec <memchr>:
800086ec:	f7 db c0 08 	bfextu	r11,r11,0x0,0x8
800086f0:	c0 68       	rjmp	800086fc <memchr+0x10>
800086f2:	20 1a       	sub	r10,1
800086f4:	19 88       	ld.ub	r8,r12[0x0]
800086f6:	16 38       	cp.w	r8,r11
800086f8:	5e 0c       	reteq	r12
800086fa:	2f fc       	sub	r12,-1
800086fc:	58 0a       	cp.w	r10,0
800086fe:	cf a1       	brne	800086f2 <memchr+0x6>
80008700:	5e fa       	retal	r10

80008702 <memmove>:
80008702:	d4 01       	pushm	lr
80008704:	18 3b       	cp.w	r11,r12
80008706:	c1 92       	brcc	80008738 <memmove+0x36>
80008708:	f6 0a 00 09 	add	r9,r11,r10
8000870c:	12 3c       	cp.w	r12,r9
8000870e:	c1 52       	brcc	80008738 <memmove+0x36>
80008710:	f8 0a 00 0b 	add	r11,r12,r10
80008714:	30 08       	mov	r8,0
80008716:	c0 68       	rjmp	80008722 <memmove+0x20>
80008718:	f2 08 07 0e 	ld.ub	lr,r9[r8]
8000871c:	20 1a       	sub	r10,1
8000871e:	f6 08 0b 0e 	st.b	r11[r8],lr
80008722:	20 18       	sub	r8,1
80008724:	58 0a       	cp.w	r10,0
80008726:	cf 91       	brne	80008718 <memmove+0x16>
80008728:	d8 02       	popm	pc
8000872a:	f6 08 07 09 	ld.ub	r9,r11[r8]
8000872e:	20 1a       	sub	r10,1
80008730:	f8 08 0b 09 	st.b	r12[r8],r9
80008734:	2f f8       	sub	r8,-1
80008736:	c0 28       	rjmp	8000873a <memmove+0x38>
80008738:	30 08       	mov	r8,0
8000873a:	58 0a       	cp.w	r10,0
8000873c:	cf 71       	brne	8000872a <memmove+0x28>
8000873e:	d8 02       	popm	pc

80008740 <__hi0bits>:
80008740:	18 98       	mov	r8,r12
80008742:	e0 1c 00 00 	andl	r12,0x0
80008746:	f0 09 15 10 	lsl	r9,r8,0x10
8000874a:	58 0c       	cp.w	r12,0
8000874c:	f2 08 17 00 	moveq	r8,r9
80008750:	f9 bc 00 10 	moveq	r12,16
80008754:	f9 bc 01 00 	movne	r12,0
80008758:	10 9a       	mov	r10,r8
8000875a:	f0 09 15 08 	lsl	r9,r8,0x8
8000875e:	e6 1a ff 00 	andh	r10,0xff00,COH
80008762:	f7 bc 00 f8 	subeq	r12,-8
80008766:	f2 08 17 00 	moveq	r8,r9
8000876a:	10 9a       	mov	r10,r8
8000876c:	f0 09 15 04 	lsl	r9,r8,0x4
80008770:	e6 1a f0 00 	andh	r10,0xf000,COH
80008774:	f7 bc 00 fc 	subeq	r12,-4
80008778:	f2 08 17 00 	moveq	r8,r9
8000877c:	10 9a       	mov	r10,r8
8000877e:	f0 09 15 02 	lsl	r9,r8,0x2
80008782:	e6 1a c0 00 	andh	r10,0xc000,COH
80008786:	f7 bc 00 fe 	subeq	r12,-2
8000878a:	f2 08 17 00 	moveq	r8,r9
8000878e:	58 08       	cp.w	r8,0
80008790:	5e 5c       	retlt	r12
80008792:	ed b8 00 1e 	bld	r8,0x1e
80008796:	f9 bc 01 20 	movne	r12,32
8000879a:	f7 bc 00 ff 	subeq	r12,-1
8000879e:	5e fc       	retal	r12

800087a0 <__lo0bits>:
800087a0:	18 99       	mov	r9,r12
800087a2:	78 08       	ld.w	r8,r12[0x0]
800087a4:	f9 d8 c0 03 	bfextu	r12,r8,0x0,0x3
800087a8:	c1 50       	breq	800087d2 <__lo0bits+0x32>
800087aa:	ed b8 00 00 	bld	r8,0x0
800087ae:	c0 21       	brne	800087b2 <__lo0bits+0x12>
800087b0:	5e fd       	retal	0
800087b2:	10 9b       	mov	r11,r8
800087b4:	f0 0a 16 01 	lsr	r10,r8,0x1
800087b8:	e2 1b 00 02 	andl	r11,0x2,COH
800087bc:	a3 88       	lsr	r8,0x2
800087be:	58 0b       	cp.w	r11,0
800087c0:	f3 fa 1a 00 	st.wne	r9[0x0],r10
800087c4:	f9 bc 01 01 	movne	r12,1
800087c8:	f3 f8 0a 00 	st.weq	r9[0x0],r8
800087cc:	f9 bc 00 02 	moveq	r12,2
800087d0:	5e fc       	retal	r12
800087d2:	f5 d8 c0 10 	bfextu	r10,r8,0x0,0x10
800087d6:	f0 0b 16 10 	lsr	r11,r8,0x10
800087da:	58 0a       	cp.w	r10,0
800087dc:	f6 08 17 00 	moveq	r8,r11
800087e0:	f9 bc 00 10 	moveq	r12,16
800087e4:	f7 d8 c0 08 	bfextu	r11,r8,0x0,0x8
800087e8:	f0 0a 16 08 	lsr	r10,r8,0x8
800087ec:	58 0b       	cp.w	r11,0
800087ee:	f7 bc 00 f8 	subeq	r12,-8
800087f2:	f4 08 17 00 	moveq	r8,r10
800087f6:	f7 d8 c0 04 	bfextu	r11,r8,0x0,0x4
800087fa:	f0 0a 16 04 	lsr	r10,r8,0x4
800087fe:	58 0b       	cp.w	r11,0
80008800:	f7 bc 00 fc 	subeq	r12,-4
80008804:	f4 08 17 00 	moveq	r8,r10
80008808:	f7 d8 c0 02 	bfextu	r11,r8,0x0,0x2
8000880c:	f0 0a 16 02 	lsr	r10,r8,0x2
80008810:	58 0b       	cp.w	r11,0
80008812:	f7 bc 00 fe 	subeq	r12,-2
80008816:	f4 08 17 00 	moveq	r8,r10
8000881a:	ed b8 00 00 	bld	r8,0x0
8000881e:	c0 60       	breq	8000882a <__lo0bits+0x8a>
80008820:	a1 98       	lsr	r8,0x1
80008822:	c0 31       	brne	80008828 <__lo0bits+0x88>
80008824:	32 0c       	mov	r12,32
80008826:	5e fc       	retal	r12
80008828:	2f fc       	sub	r12,-1
8000882a:	93 08       	st.w	r9[0x0],r8
8000882c:	5e fc       	retal	r12

8000882e <__mcmp>:
8000882e:	d4 01       	pushm	lr
80008830:	18 98       	mov	r8,r12
80008832:	76 49       	ld.w	r9,r11[0x10]
80008834:	78 4c       	ld.w	r12,r12[0x10]
80008836:	12 1c       	sub	r12,r9
80008838:	c1 31       	brne	8000885e <__mcmp+0x30>
8000883a:	2f b9       	sub	r9,-5
8000883c:	a3 69       	lsl	r9,0x2
8000883e:	12 0b       	add	r11,r9
80008840:	f0 09 00 09 	add	r9,r8,r9
80008844:	2e c8       	sub	r8,-20
80008846:	13 4e       	ld.w	lr,--r9
80008848:	17 4a       	ld.w	r10,--r11
8000884a:	14 3e       	cp.w	lr,r10
8000884c:	c0 60       	breq	80008858 <__mcmp+0x2a>
8000884e:	f9 bc 03 ff 	movlo	r12,-1
80008852:	f9 bc 02 01 	movhs	r12,1
80008856:	d8 02       	popm	pc
80008858:	10 39       	cp.w	r9,r8
8000885a:	fe 9b ff f6 	brhi	80008846 <__mcmp+0x18>
8000885e:	d8 02       	popm	pc

80008860 <_Bfree>:
80008860:	d4 21       	pushm	r4-r7,lr
80008862:	18 97       	mov	r7,r12
80008864:	16 95       	mov	r5,r11
80008866:	78 96       	ld.w	r6,r12[0x24]
80008868:	58 06       	cp.w	r6,0
8000886a:	c0 91       	brne	8000887c <_Bfree+0x1c>
8000886c:	31 0c       	mov	r12,16
8000886e:	fe b0 dd 87 	rcall	8000437c <malloc>
80008872:	99 36       	st.w	r12[0xc],r6
80008874:	8f 9c       	st.w	r7[0x24],r12
80008876:	99 16       	st.w	r12[0x4],r6
80008878:	99 26       	st.w	r12[0x8],r6
8000887a:	99 06       	st.w	r12[0x0],r6
8000887c:	58 05       	cp.w	r5,0
8000887e:	c0 90       	breq	80008890 <_Bfree+0x30>
80008880:	6a 19       	ld.w	r9,r5[0x4]
80008882:	6e 98       	ld.w	r8,r7[0x24]
80008884:	70 38       	ld.w	r8,r8[0xc]
80008886:	f0 09 03 2a 	ld.w	r10,r8[r9<<0x2]
8000888a:	8b 0a       	st.w	r5[0x0],r10
8000888c:	f0 09 09 25 	st.w	r8[r9<<0x2],r5
80008890:	d8 22       	popm	r4-r7,pc
80008892:	d7 03       	nop

80008894 <_Balloc>:
80008894:	d4 21       	pushm	r4-r7,lr
80008896:	18 97       	mov	r7,r12
80008898:	16 96       	mov	r6,r11
8000889a:	78 95       	ld.w	r5,r12[0x24]
8000889c:	58 05       	cp.w	r5,0
8000889e:	c0 91       	brne	800088b0 <_Balloc+0x1c>
800088a0:	31 0c       	mov	r12,16
800088a2:	fe b0 dd 6d 	rcall	8000437c <malloc>
800088a6:	99 35       	st.w	r12[0xc],r5
800088a8:	8f 9c       	st.w	r7[0x24],r12
800088aa:	99 15       	st.w	r12[0x4],r5
800088ac:	99 25       	st.w	r12[0x8],r5
800088ae:	99 05       	st.w	r12[0x0],r5
800088b0:	6e 95       	ld.w	r5,r7[0x24]
800088b2:	6a 38       	ld.w	r8,r5[0xc]
800088b4:	58 08       	cp.w	r8,0
800088b6:	c0 b1       	brne	800088cc <_Balloc+0x38>
800088b8:	31 0a       	mov	r10,16
800088ba:	30 4b       	mov	r11,4
800088bc:	0e 9c       	mov	r12,r7
800088be:	e0 a0 02 a7 	rcall	80008e0c <_calloc_r>
800088c2:	8b 3c       	st.w	r5[0xc],r12
800088c4:	6e 98       	ld.w	r8,r7[0x24]
800088c6:	70 3c       	ld.w	r12,r8[0xc]
800088c8:	58 0c       	cp.w	r12,0
800088ca:	c1 b0       	breq	80008900 <_Balloc+0x6c>
800088cc:	6e 98       	ld.w	r8,r7[0x24]
800088ce:	70 38       	ld.w	r8,r8[0xc]
800088d0:	f0 06 00 28 	add	r8,r8,r6<<0x2
800088d4:	70 0c       	ld.w	r12,r8[0x0]
800088d6:	58 0c       	cp.w	r12,0
800088d8:	c0 40       	breq	800088e0 <_Balloc+0x4c>
800088da:	78 09       	ld.w	r9,r12[0x0]
800088dc:	91 09       	st.w	r8[0x0],r9
800088de:	c0 e8       	rjmp	800088fa <_Balloc+0x66>
800088e0:	0e 9c       	mov	r12,r7
800088e2:	30 17       	mov	r7,1
800088e4:	0e 9b       	mov	r11,r7
800088e6:	ee 06 09 47 	lsl	r7,r7,r6
800088ea:	ee ca ff fb 	sub	r10,r7,-5
800088ee:	a3 6a       	lsl	r10,0x2
800088f0:	e0 a0 02 8e 	rcall	80008e0c <_calloc_r>
800088f4:	c0 60       	breq	80008900 <_Balloc+0x6c>
800088f6:	99 16       	st.w	r12[0x4],r6
800088f8:	99 27       	st.w	r12[0x8],r7
800088fa:	30 08       	mov	r8,0
800088fc:	99 38       	st.w	r12[0xc],r8
800088fe:	99 48       	st.w	r12[0x10],r8
80008900:	d8 22       	popm	r4-r7,pc
80008902:	d7 03       	nop

80008904 <__d2b>:
80008904:	d4 31       	pushm	r0-r7,lr
80008906:	20 2d       	sub	sp,8
80008908:	16 93       	mov	r3,r11
8000890a:	12 96       	mov	r6,r9
8000890c:	10 95       	mov	r5,r8
8000890e:	14 92       	mov	r2,r10
80008910:	30 1b       	mov	r11,1
80008912:	cc 1f       	rcall	80008894 <_Balloc>
80008914:	f3 d3 c0 14 	bfextu	r9,r3,0x0,0x14
80008918:	50 09       	stdsp	sp[0x0],r9
8000891a:	f1 d3 c0 1f 	bfextu	r8,r3,0x0,0x1f
8000891e:	b5 a9       	sbr	r9,0x14
80008920:	f0 01 16 14 	lsr	r1,r8,0x14
80008924:	fb f9 1a 00 	st.wne	sp[0x0],r9
80008928:	18 94       	mov	r4,r12
8000892a:	58 02       	cp.w	r2,0
8000892c:	c1 d0       	breq	80008966 <__d2b+0x62>
8000892e:	fa cc ff f8 	sub	r12,sp,-8
80008932:	18 d2       	st.w	--r12,r2
80008934:	c3 6f       	rcall	800087a0 <__lo0bits>
80008936:	40 18       	lddsp	r8,sp[0x4]
80008938:	c0 d0       	breq	80008952 <__d2b+0x4e>
8000893a:	40 09       	lddsp	r9,sp[0x0]
8000893c:	f8 0a 11 20 	rsub	r10,r12,32
80008940:	f2 0a 09 4a 	lsl	r10,r9,r10
80008944:	f5 e8 10 08 	or	r8,r10,r8
80008948:	89 58       	st.w	r4[0x14],r8
8000894a:	f2 0c 0a 49 	lsr	r9,r9,r12
8000894e:	50 09       	stdsp	sp[0x0],r9
80008950:	c0 28       	rjmp	80008954 <__d2b+0x50>
80008952:	89 58       	st.w	r4[0x14],r8
80008954:	40 08       	lddsp	r8,sp[0x0]
80008956:	58 08       	cp.w	r8,0
80008958:	f9 b3 01 02 	movne	r3,2
8000895c:	f9 b3 00 01 	moveq	r3,1
80008960:	89 68       	st.w	r4[0x18],r8
80008962:	89 43       	st.w	r4[0x10],r3
80008964:	c0 88       	rjmp	80008974 <__d2b+0x70>
80008966:	1a 9c       	mov	r12,sp
80008968:	c1 cf       	rcall	800087a0 <__lo0bits>
8000896a:	30 13       	mov	r3,1
8000896c:	40 08       	lddsp	r8,sp[0x0]
8000896e:	2e 0c       	sub	r12,-32
80008970:	89 43       	st.w	r4[0x10],r3
80008972:	89 58       	st.w	r4[0x14],r8
80008974:	58 01       	cp.w	r1,0
80008976:	c0 90       	breq	80008988 <__d2b+0x84>
80008978:	e2 c1 04 33 	sub	r1,r1,1075
8000897c:	18 01       	add	r1,r12
8000897e:	8d 01       	st.w	r6[0x0],r1
80008980:	f8 0c 11 35 	rsub	r12,r12,53
80008984:	8b 0c       	st.w	r5[0x0],r12
80008986:	c0 c8       	rjmp	8000899e <__d2b+0x9a>
80008988:	e6 c8 ff fc 	sub	r8,r3,-4
8000898c:	f8 cc 04 32 	sub	r12,r12,1074
80008990:	a5 73       	lsl	r3,0x5
80008992:	8d 0c       	st.w	r6[0x0],r12
80008994:	e8 08 03 2c 	ld.w	r12,r4[r8<<0x2]
80008998:	cd 4e       	rcall	80008740 <__hi0bits>
8000899a:	18 13       	sub	r3,r12
8000899c:	8b 03       	st.w	r5[0x0],r3
8000899e:	08 9c       	mov	r12,r4
800089a0:	2f ed       	sub	sp,-8
800089a2:	d8 32       	popm	r0-r7,pc

800089a4 <__mdiff>:
800089a4:	d4 31       	pushm	r0-r7,lr
800089a6:	74 48       	ld.w	r8,r10[0x10]
800089a8:	76 45       	ld.w	r5,r11[0x10]
800089aa:	16 97       	mov	r7,r11
800089ac:	14 96       	mov	r6,r10
800089ae:	10 15       	sub	r5,r8
800089b0:	c1 31       	brne	800089d6 <__mdiff+0x32>
800089b2:	2f b8       	sub	r8,-5
800089b4:	ee ce ff ec 	sub	lr,r7,-20
800089b8:	a3 68       	lsl	r8,0x2
800089ba:	f4 08 00 0b 	add	r11,r10,r8
800089be:	ee 08 00 08 	add	r8,r7,r8
800089c2:	11 4a       	ld.w	r10,--r8
800089c4:	17 49       	ld.w	r9,--r11
800089c6:	12 3a       	cp.w	r10,r9
800089c8:	c0 30       	breq	800089ce <__mdiff+0x2a>
800089ca:	c0 e2       	brcc	800089e6 <__mdiff+0x42>
800089cc:	c0 78       	rjmp	800089da <__mdiff+0x36>
800089ce:	1c 38       	cp.w	r8,lr
800089d0:	fe 9b ff f9 	brhi	800089c2 <__mdiff+0x1e>
800089d4:	c4 98       	rjmp	80008a66 <__mdiff+0xc2>
800089d6:	58 05       	cp.w	r5,0
800089d8:	c0 64       	brge	800089e4 <__mdiff+0x40>
800089da:	0e 98       	mov	r8,r7
800089dc:	30 15       	mov	r5,1
800089de:	0c 97       	mov	r7,r6
800089e0:	10 96       	mov	r6,r8
800089e2:	c0 28       	rjmp	800089e6 <__mdiff+0x42>
800089e4:	30 05       	mov	r5,0
800089e6:	6e 1b       	ld.w	r11,r7[0x4]
800089e8:	c5 6f       	rcall	80008894 <_Balloc>
800089ea:	6e 49       	ld.w	r9,r7[0x10]
800089ec:	6c 44       	ld.w	r4,r6[0x10]
800089ee:	99 35       	st.w	r12[0xc],r5
800089f0:	2f b4       	sub	r4,-5
800089f2:	f2 c5 ff fb 	sub	r5,r9,-5
800089f6:	ec 04 00 24 	add	r4,r6,r4<<0x2
800089fa:	ee 05 00 25 	add	r5,r7,r5<<0x2
800089fe:	2e c6       	sub	r6,-20
80008a00:	2e c7       	sub	r7,-20
80008a02:	f8 c8 ff ec 	sub	r8,r12,-20
80008a06:	30 0a       	mov	r10,0
80008a08:	0f 0e       	ld.w	lr,r7++
80008a0a:	0d 0b       	ld.w	r11,r6++
80008a0c:	fc 02 16 10 	lsr	r2,lr,0x10
80008a10:	f6 03 16 10 	lsr	r3,r11,0x10
80008a14:	fd de c0 10 	bfextu	lr,lr,0x0,0x10
80008a18:	e4 03 01 03 	sub	r3,r2,r3
80008a1c:	f7 db c0 10 	bfextu	r11,r11,0x0,0x10
80008a20:	fc 0b 01 0b 	sub	r11,lr,r11
80008a24:	f6 0a 00 0a 	add	r10,r11,r10
80008a28:	b0 1a       	st.h	r8[0x2],r10
80008a2a:	b1 4a       	asr	r10,0x10
80008a2c:	e6 0a 00 0a 	add	r10,r3,r10
80008a30:	b0 0a       	st.h	r8[0x0],r10
80008a32:	2f c8       	sub	r8,-4
80008a34:	b1 4a       	asr	r10,0x10
80008a36:	08 36       	cp.w	r6,r4
80008a38:	ce 83       	brcs	80008a08 <__mdiff+0x64>
80008a3a:	c0 d8       	rjmp	80008a54 <__mdiff+0xb0>
80008a3c:	0f 0b       	ld.w	r11,r7++
80008a3e:	f6 0e 16 10 	lsr	lr,r11,0x10
80008a42:	f7 db c0 10 	bfextu	r11,r11,0x0,0x10
80008a46:	16 0a       	add	r10,r11
80008a48:	b0 1a       	st.h	r8[0x2],r10
80008a4a:	b1 4a       	asr	r10,0x10
80008a4c:	1c 0a       	add	r10,lr
80008a4e:	b0 0a       	st.h	r8[0x0],r10
80008a50:	2f c8       	sub	r8,-4
80008a52:	b1 4a       	asr	r10,0x10
80008a54:	0a 37       	cp.w	r7,r5
80008a56:	cf 33       	brcs	80008a3c <__mdiff+0x98>
80008a58:	c0 28       	rjmp	80008a5c <__mdiff+0xb8>
80008a5a:	20 19       	sub	r9,1
80008a5c:	11 4a       	ld.w	r10,--r8
80008a5e:	58 0a       	cp.w	r10,0
80008a60:	cf d0       	breq	80008a5a <__mdiff+0xb6>
80008a62:	99 49       	st.w	r12[0x10],r9
80008a64:	d8 32       	popm	r0-r7,pc
80008a66:	30 0b       	mov	r11,0
80008a68:	c1 6f       	rcall	80008894 <_Balloc>
80008a6a:	30 18       	mov	r8,1
80008a6c:	99 48       	st.w	r12[0x10],r8
80008a6e:	30 08       	mov	r8,0
80008a70:	99 58       	st.w	r12[0x14],r8
80008a72:	d8 32       	popm	r0-r7,pc

80008a74 <__lshift>:
80008a74:	d4 31       	pushm	r0-r7,lr
80008a76:	16 97       	mov	r7,r11
80008a78:	76 46       	ld.w	r6,r11[0x10]
80008a7a:	f4 02 14 05 	asr	r2,r10,0x5
80008a7e:	2f f6       	sub	r6,-1
80008a80:	14 93       	mov	r3,r10
80008a82:	18 94       	mov	r4,r12
80008a84:	04 06       	add	r6,r2
80008a86:	76 1b       	ld.w	r11,r11[0x4]
80008a88:	6e 28       	ld.w	r8,r7[0x8]
80008a8a:	c0 38       	rjmp	80008a90 <__lshift+0x1c>
80008a8c:	2f fb       	sub	r11,-1
80008a8e:	a1 78       	lsl	r8,0x1
80008a90:	10 36       	cp.w	r6,r8
80008a92:	fe 99 ff fd 	brgt	80008a8c <__lshift+0x18>
80008a96:	08 9c       	mov	r12,r4
80008a98:	cf ee       	rcall	80008894 <_Balloc>
80008a9a:	30 09       	mov	r9,0
80008a9c:	18 95       	mov	r5,r12
80008a9e:	f8 c8 ff ec 	sub	r8,r12,-20
80008aa2:	12 9a       	mov	r10,r9
80008aa4:	c0 38       	rjmp	80008aaa <__lshift+0x36>
80008aa6:	10 aa       	st.w	r8++,r10
80008aa8:	2f f9       	sub	r9,-1
80008aaa:	04 39       	cp.w	r9,r2
80008aac:	cf d5       	brlt	80008aa6 <__lshift+0x32>
80008aae:	6e 4b       	ld.w	r11,r7[0x10]
80008ab0:	e7 d3 c0 05 	bfextu	r3,r3,0x0,0x5
80008ab4:	2f bb       	sub	r11,-5
80008ab6:	ee c9 ff ec 	sub	r9,r7,-20
80008aba:	ee 0b 00 2b 	add	r11,r7,r11<<0x2
80008abe:	58 03       	cp.w	r3,0
80008ac0:	c1 30       	breq	80008ae6 <__lshift+0x72>
80008ac2:	e6 0c 11 20 	rsub	r12,r3,32
80008ac6:	30 0a       	mov	r10,0
80008ac8:	72 02       	ld.w	r2,r9[0x0]
80008aca:	e4 03 09 42 	lsl	r2,r2,r3
80008ace:	04 4a       	or	r10,r2
80008ad0:	10 aa       	st.w	r8++,r10
80008ad2:	13 0a       	ld.w	r10,r9++
80008ad4:	f4 0c 0a 4a 	lsr	r10,r10,r12
80008ad8:	16 39       	cp.w	r9,r11
80008ada:	cf 73       	brcs	80008ac8 <__lshift+0x54>
80008adc:	91 0a       	st.w	r8[0x0],r10
80008ade:	58 0a       	cp.w	r10,0
80008ae0:	c0 70       	breq	80008aee <__lshift+0x7a>
80008ae2:	2f f6       	sub	r6,-1
80008ae4:	c0 58       	rjmp	80008aee <__lshift+0x7a>
80008ae6:	13 0a       	ld.w	r10,r9++
80008ae8:	10 aa       	st.w	r8++,r10
80008aea:	16 39       	cp.w	r9,r11
80008aec:	cf d3       	brcs	80008ae6 <__lshift+0x72>
80008aee:	08 9c       	mov	r12,r4
80008af0:	20 16       	sub	r6,1
80008af2:	0e 9b       	mov	r11,r7
80008af4:	8b 46       	st.w	r5[0x10],r6
80008af6:	cb 5e       	rcall	80008860 <_Bfree>
80008af8:	0a 9c       	mov	r12,r5
80008afa:	d8 32       	popm	r0-r7,pc

80008afc <__multiply>:
80008afc:	d4 31       	pushm	r0-r7,lr
80008afe:	20 2d       	sub	sp,8
80008b00:	76 49       	ld.w	r9,r11[0x10]
80008b02:	74 48       	ld.w	r8,r10[0x10]
80008b04:	16 96       	mov	r6,r11
80008b06:	14 95       	mov	r5,r10
80008b08:	10 39       	cp.w	r9,r8
80008b0a:	ec 08 17 50 	movlt	r8,r6
80008b0e:	ea 06 17 50 	movlt	r6,r5
80008b12:	f0 05 17 50 	movlt	r5,r8
80008b16:	6c 28       	ld.w	r8,r6[0x8]
80008b18:	76 43       	ld.w	r3,r11[0x10]
80008b1a:	74 42       	ld.w	r2,r10[0x10]
80008b1c:	76 1b       	ld.w	r11,r11[0x4]
80008b1e:	e4 03 00 07 	add	r7,r2,r3
80008b22:	10 37       	cp.w	r7,r8
80008b24:	f7 bb 09 ff 	subgt	r11,-1
80008b28:	cb 6e       	rcall	80008894 <_Balloc>
80008b2a:	ee c4 ff fb 	sub	r4,r7,-5
80008b2e:	f8 c9 ff ec 	sub	r9,r12,-20
80008b32:	f8 04 00 24 	add	r4,r12,r4<<0x2
80008b36:	30 0a       	mov	r10,0
80008b38:	12 98       	mov	r8,r9
80008b3a:	c0 28       	rjmp	80008b3e <__multiply+0x42>
80008b3c:	10 aa       	st.w	r8++,r10
80008b3e:	08 38       	cp.w	r8,r4
80008b40:	cf e3       	brcs	80008b3c <__multiply+0x40>
80008b42:	2f b3       	sub	r3,-5
80008b44:	2f b2       	sub	r2,-5
80008b46:	ec 03 00 23 	add	r3,r6,r3<<0x2
80008b4a:	ea 02 00 22 	add	r2,r5,r2<<0x2
80008b4e:	ec cb ff ec 	sub	r11,r6,-20
80008b52:	50 12       	stdsp	sp[0x4],r2
80008b54:	ea ca ff ec 	sub	r10,r5,-20
80008b58:	c4 48       	rjmp	80008be0 <__multiply+0xe4>
80008b5a:	94 95       	ld.uh	r5,r10[0x2]
80008b5c:	58 05       	cp.w	r5,0
80008b5e:	c2 00       	breq	80008b9e <__multiply+0xa2>
80008b60:	12 98       	mov	r8,r9
80008b62:	16 96       	mov	r6,r11
80008b64:	30 0e       	mov	lr,0
80008b66:	50 09       	stdsp	sp[0x0],r9
80008b68:	0d 02       	ld.w	r2,r6++
80008b6a:	e4 00 16 10 	lsr	r0,r2,0x10
80008b6e:	70 01       	ld.w	r1,r8[0x0]
80008b70:	70 09       	ld.w	r9,r8[0x0]
80008b72:	b1 81       	lsr	r1,0x10
80008b74:	e5 d2 c0 10 	bfextu	r2,r2,0x0,0x10
80008b78:	e0 05 03 41 	mac	r1,r0,r5
80008b7c:	ab 32       	mul	r2,r5
80008b7e:	e1 d9 c0 10 	bfextu	r0,r9,0x0,0x10
80008b82:	00 02       	add	r2,r0
80008b84:	e4 0e 00 0e 	add	lr,r2,lr
80008b88:	b0 1e       	st.h	r8[0x2],lr
80008b8a:	b1 8e       	lsr	lr,0x10
80008b8c:	1c 01       	add	r1,lr
80008b8e:	b0 01       	st.h	r8[0x0],r1
80008b90:	e2 0e 16 10 	lsr	lr,r1,0x10
80008b94:	2f c8       	sub	r8,-4
80008b96:	06 36       	cp.w	r6,r3
80008b98:	ce 83       	brcs	80008b68 <__multiply+0x6c>
80008b9a:	40 09       	lddsp	r9,sp[0x0]
80008b9c:	91 0e       	st.w	r8[0x0],lr
80008b9e:	94 86       	ld.uh	r6,r10[0x0]
80008ba0:	58 06       	cp.w	r6,0
80008ba2:	c1 d0       	breq	80008bdc <__multiply+0xe0>
80008ba4:	72 02       	ld.w	r2,r9[0x0]
80008ba6:	12 98       	mov	r8,r9
80008ba8:	16 9e       	mov	lr,r11
80008baa:	30 05       	mov	r5,0
80008bac:	b0 12       	st.h	r8[0x2],r2
80008bae:	1d 01       	ld.w	r1,lr++
80008bb0:	90 82       	ld.uh	r2,r8[0x0]
80008bb2:	e1 d1 c0 10 	bfextu	r0,r1,0x0,0x10
80008bb6:	ad 30       	mul	r0,r6
80008bb8:	e0 02 00 02 	add	r2,r0,r2
80008bbc:	e4 05 00 05 	add	r5,r2,r5
80008bc0:	b0 05       	st.h	r8[0x0],r5
80008bc2:	b1 85       	lsr	r5,0x10
80008bc4:	b1 81       	lsr	r1,0x10
80008bc6:	2f c8       	sub	r8,-4
80008bc8:	ad 31       	mul	r1,r6
80008bca:	90 92       	ld.uh	r2,r8[0x2]
80008bcc:	e2 02 00 02 	add	r2,r1,r2
80008bd0:	0a 02       	add	r2,r5
80008bd2:	e4 05 16 10 	lsr	r5,r2,0x10
80008bd6:	06 3e       	cp.w	lr,r3
80008bd8:	ce a3       	brcs	80008bac <__multiply+0xb0>
80008bda:	91 02       	st.w	r8[0x0],r2
80008bdc:	2f ca       	sub	r10,-4
80008bde:	2f c9       	sub	r9,-4
80008be0:	40 18       	lddsp	r8,sp[0x4]
80008be2:	10 3a       	cp.w	r10,r8
80008be4:	cb b3       	brcs	80008b5a <__multiply+0x5e>
80008be6:	c0 28       	rjmp	80008bea <__multiply+0xee>
80008be8:	20 17       	sub	r7,1
80008bea:	58 07       	cp.w	r7,0
80008bec:	e0 8a 00 05 	brle	80008bf6 <__multiply+0xfa>
80008bf0:	09 48       	ld.w	r8,--r4
80008bf2:	58 08       	cp.w	r8,0
80008bf4:	cf a0       	breq	80008be8 <__multiply+0xec>
80008bf6:	99 47       	st.w	r12[0x10],r7
80008bf8:	2f ed       	sub	sp,-8
80008bfa:	d8 32       	popm	r0-r7,pc

80008bfc <__i2b>:
80008bfc:	d4 21       	pushm	r4-r7,lr
80008bfe:	16 97       	mov	r7,r11
80008c00:	30 1b       	mov	r11,1
80008c02:	c4 9e       	rcall	80008894 <_Balloc>
80008c04:	30 19       	mov	r9,1
80008c06:	99 57       	st.w	r12[0x14],r7
80008c08:	99 49       	st.w	r12[0x10],r9
80008c0a:	d8 22       	popm	r4-r7,pc

80008c0c <__multadd>:
80008c0c:	d4 31       	pushm	r0-r7,lr
80008c0e:	30 08       	mov	r8,0
80008c10:	12 95       	mov	r5,r9
80008c12:	16 97       	mov	r7,r11
80008c14:	18 96       	mov	r6,r12
80008c16:	76 44       	ld.w	r4,r11[0x10]
80008c18:	f6 c9 ff ec 	sub	r9,r11,-20
80008c1c:	72 0b       	ld.w	r11,r9[0x0]
80008c1e:	f6 0c 16 10 	lsr	r12,r11,0x10
80008c22:	f7 db c0 10 	bfextu	r11,r11,0x0,0x10
80008c26:	f4 0c 02 4c 	mul	r12,r10,r12
80008c2a:	f4 0b 03 45 	mac	r5,r10,r11
80008c2e:	f7 d5 c0 10 	bfextu	r11,r5,0x0,0x10
80008c32:	b1 85       	lsr	r5,0x10
80008c34:	18 05       	add	r5,r12
80008c36:	ea 0c 15 10 	lsl	r12,r5,0x10
80008c3a:	f8 0b 00 0b 	add	r11,r12,r11
80008c3e:	12 ab       	st.w	r9++,r11
80008c40:	2f f8       	sub	r8,-1
80008c42:	b1 85       	lsr	r5,0x10
80008c44:	08 38       	cp.w	r8,r4
80008c46:	ce b5       	brlt	80008c1c <__multadd+0x10>
80008c48:	58 05       	cp.w	r5,0
80008c4a:	c1 c0       	breq	80008c82 <__multadd+0x76>
80008c4c:	6e 28       	ld.w	r8,r7[0x8]
80008c4e:	10 34       	cp.w	r4,r8
80008c50:	c1 35       	brlt	80008c76 <__multadd+0x6a>
80008c52:	6e 1b       	ld.w	r11,r7[0x4]
80008c54:	0c 9c       	mov	r12,r6
80008c56:	2f fb       	sub	r11,-1
80008c58:	c1 ee       	rcall	80008894 <_Balloc>
80008c5a:	6e 4a       	ld.w	r10,r7[0x10]
80008c5c:	ee cb ff f4 	sub	r11,r7,-12
80008c60:	18 93       	mov	r3,r12
80008c62:	2f ea       	sub	r10,-2
80008c64:	2f 4c       	sub	r12,-12
80008c66:	a3 6a       	lsl	r10,0x2
80008c68:	fe b0 dd ae 	rcall	800047c4 <memcpy>
80008c6c:	0e 9b       	mov	r11,r7
80008c6e:	0c 9c       	mov	r12,r6
80008c70:	fe b0 fd f8 	rcall	80008860 <_Bfree>
80008c74:	06 97       	mov	r7,r3
80008c76:	e8 c8 ff ff 	sub	r8,r4,-1
80008c7a:	2f b4       	sub	r4,-5
80008c7c:	8f 48       	st.w	r7[0x10],r8
80008c7e:	ee 04 09 25 	st.w	r7[r4<<0x2],r5
80008c82:	0e 9c       	mov	r12,r7
80008c84:	d8 32       	popm	r0-r7,pc
80008c86:	d7 03       	nop

80008c88 <__pow5mult>:
80008c88:	d4 31       	pushm	r0-r7,lr
80008c8a:	14 96       	mov	r6,r10
80008c8c:	18 97       	mov	r7,r12
80008c8e:	16 94       	mov	r4,r11
80008c90:	f1 da c0 02 	bfextu	r8,r10,0x0,0x2
80008c94:	c0 90       	breq	80008ca6 <__pow5mult+0x1e>
80008c96:	20 18       	sub	r8,1
80008c98:	fe c9 ed 28 	sub	r9,pc,-4824
80008c9c:	f2 08 03 2a 	ld.w	r10,r9[r8<<0x2]
80008ca0:	30 09       	mov	r9,0
80008ca2:	cb 5f       	rcall	80008c0c <__multadd>
80008ca4:	18 94       	mov	r4,r12
80008ca6:	a3 46       	asr	r6,0x2
80008ca8:	c3 40       	breq	80008d10 <__pow5mult+0x88>
80008caa:	6e 95       	ld.w	r5,r7[0x24]
80008cac:	58 05       	cp.w	r5,0
80008cae:	c0 91       	brne	80008cc0 <__pow5mult+0x38>
80008cb0:	31 0c       	mov	r12,16
80008cb2:	fe b0 db 65 	rcall	8000437c <malloc>
80008cb6:	99 35       	st.w	r12[0xc],r5
80008cb8:	8f 9c       	st.w	r7[0x24],r12
80008cba:	99 15       	st.w	r12[0x4],r5
80008cbc:	99 25       	st.w	r12[0x8],r5
80008cbe:	99 05       	st.w	r12[0x0],r5
80008cc0:	6e 93       	ld.w	r3,r7[0x24]
80008cc2:	66 25       	ld.w	r5,r3[0x8]
80008cc4:	58 05       	cp.w	r5,0
80008cc6:	c0 c1       	brne	80008cde <__pow5mult+0x56>
80008cc8:	e0 6b 02 71 	mov	r11,625
80008ccc:	0e 9c       	mov	r12,r7
80008cce:	c9 7f       	rcall	80008bfc <__i2b>
80008cd0:	87 2c       	st.w	r3[0x8],r12
80008cd2:	30 08       	mov	r8,0
80008cd4:	18 95       	mov	r5,r12
80008cd6:	99 08       	st.w	r12[0x0],r8
80008cd8:	c0 38       	rjmp	80008cde <__pow5mult+0x56>
80008cda:	06 9c       	mov	r12,r3
80008cdc:	18 95       	mov	r5,r12
80008cde:	ed b6 00 00 	bld	r6,0x0
80008ce2:	c0 b1       	brne	80008cf8 <__pow5mult+0x70>
80008ce4:	08 9b       	mov	r11,r4
80008ce6:	0a 9a       	mov	r10,r5
80008ce8:	0e 9c       	mov	r12,r7
80008cea:	c0 9f       	rcall	80008afc <__multiply>
80008cec:	08 9b       	mov	r11,r4
80008cee:	18 93       	mov	r3,r12
80008cf0:	0e 9c       	mov	r12,r7
80008cf2:	06 94       	mov	r4,r3
80008cf4:	fe b0 fd b6 	rcall	80008860 <_Bfree>
80008cf8:	a1 56       	asr	r6,0x1
80008cfa:	c0 b0       	breq	80008d10 <__pow5mult+0x88>
80008cfc:	6a 03       	ld.w	r3,r5[0x0]
80008cfe:	58 03       	cp.w	r3,0
80008d00:	ce d1       	brne	80008cda <__pow5mult+0x52>
80008d02:	0a 9a       	mov	r10,r5
80008d04:	0a 9b       	mov	r11,r5
80008d06:	0e 9c       	mov	r12,r7
80008d08:	cf ae       	rcall	80008afc <__multiply>
80008d0a:	8b 0c       	st.w	r5[0x0],r12
80008d0c:	99 03       	st.w	r12[0x0],r3
80008d0e:	ce 7b       	rjmp	80008cdc <__pow5mult+0x54>
80008d10:	08 9c       	mov	r12,r4
80008d12:	d8 32       	popm	r0-r7,pc

80008d14 <__isinfd>:
80008d14:	14 98       	mov	r8,r10
80008d16:	fc 19 7f f0 	movh	r9,0x7ff0
80008d1a:	f5 db c0 1f 	bfextu	r10,r11,0x0,0x1f
80008d1e:	f0 0b 11 00 	rsub	r11,r8,0
80008d22:	f7 e8 10 08 	or	r8,r11,r8
80008d26:	f5 e8 13 f8 	or	r8,r10,r8>>0x1f
80008d2a:	f2 08 01 08 	sub	r8,r9,r8
80008d2e:	f0 0c 11 00 	rsub	r12,r8,0
80008d32:	f9 e8 10 08 	or	r8,r12,r8
80008d36:	f0 0c 14 1f 	asr	r12,r8,0x1f
80008d3a:	2f fc       	sub	r12,-1
80008d3c:	5e fc       	retal	r12

80008d3e <__isnand>:
80008d3e:	14 98       	mov	r8,r10
80008d40:	f5 db c0 1f 	bfextu	r10,r11,0x0,0x1f
80008d44:	f0 0c 11 00 	rsub	r12,r8,0
80008d48:	10 4c       	or	r12,r8
80008d4a:	fc 18 7f f0 	movh	r8,0x7ff0
80008d4e:	f5 ec 13 fc 	or	r12,r10,r12>>0x1f
80008d52:	f0 0c 01 0c 	sub	r12,r8,r12
80008d56:	bf 9c       	lsr	r12,0x1f
80008d58:	5e fc       	retal	r12
80008d5a:	d7 03       	nop

80008d5c <__sclose>:
80008d5c:	d4 01       	pushm	lr
80008d5e:	96 7b       	ld.sh	r11,r11[0xe]
80008d60:	c8 2c       	rcall	80008e64 <_close_r>
80008d62:	d8 02       	popm	pc

80008d64 <__sseek>:
80008d64:	d4 21       	pushm	r4-r7,lr
80008d66:	16 97       	mov	r7,r11
80008d68:	96 7b       	ld.sh	r11,r11[0xe]
80008d6a:	c0 3d       	rcall	80008f70 <_lseek_r>
80008d6c:	8e 68       	ld.sh	r8,r7[0xc]
80008d6e:	10 99       	mov	r9,r8
80008d70:	ad c8       	cbr	r8,0xc
80008d72:	ad a9       	sbr	r9,0xc
80008d74:	5b fc       	cp.w	r12,-1
80008d76:	ef f8 0c 06 	st.heq	r7[0xc],r8
80008d7a:	ef f9 1c 06 	st.hne	r7[0xc],r9
80008d7e:	ef fc 1a 15 	st.wne	r7[0x54],r12
80008d82:	d8 22       	popm	r4-r7,pc

80008d84 <__swrite>:
80008d84:	d4 21       	pushm	r4-r7,lr
80008d86:	96 68       	ld.sh	r8,r11[0xc]
80008d88:	16 97       	mov	r7,r11
80008d8a:	14 95       	mov	r5,r10
80008d8c:	12 94       	mov	r4,r9
80008d8e:	e2 18 01 00 	andl	r8,0x100,COH
80008d92:	18 96       	mov	r6,r12
80008d94:	c0 50       	breq	80008d9e <__swrite+0x1a>
80008d96:	30 29       	mov	r9,2
80008d98:	30 0a       	mov	r10,0
80008d9a:	96 7b       	ld.sh	r11,r11[0xe]
80008d9c:	ce ac       	rcall	80008f70 <_lseek_r>
80008d9e:	8e 68       	ld.sh	r8,r7[0xc]
80008da0:	ad c8       	cbr	r8,0xc
80008da2:	08 99       	mov	r9,r4
80008da4:	0a 9a       	mov	r10,r5
80008da6:	8e 7b       	ld.sh	r11,r7[0xe]
80008da8:	0c 9c       	mov	r12,r6
80008daa:	ae 68       	st.h	r7[0xc],r8
80008dac:	c1 cc       	rcall	80008de4 <_write_r>
80008dae:	d8 22       	popm	r4-r7,pc

80008db0 <__sread>:
80008db0:	d4 21       	pushm	r4-r7,lr
80008db2:	16 97       	mov	r7,r11
80008db4:	96 7b       	ld.sh	r11,r11[0xe]
80008db6:	cf 1c       	rcall	80008f98 <_read_r>
80008db8:	c0 65       	brlt	80008dc4 <__sread+0x14>
80008dba:	6f 58       	ld.w	r8,r7[0x54]
80008dbc:	18 08       	add	r8,r12
80008dbe:	ef 48 00 54 	st.w	r7[84],r8
80008dc2:	d8 22       	popm	r4-r7,pc
80008dc4:	8e 68       	ld.sh	r8,r7[0xc]
80008dc6:	ad c8       	cbr	r8,0xc
80008dc8:	ae 68       	st.h	r7[0xc],r8
80008dca:	d8 22       	popm	r4-r7,pc

80008dcc <strlen>:
80008dcc:	30 09       	mov	r9,0
80008dce:	18 98       	mov	r8,r12
80008dd0:	c0 28       	rjmp	80008dd4 <strlen+0x8>
80008dd2:	2f f8       	sub	r8,-1
80008dd4:	11 8a       	ld.ub	r10,r8[0x0]
80008dd6:	f2 0a 18 00 	cp.b	r10,r9
80008dda:	cf c1       	brne	80008dd2 <strlen+0x6>
80008ddc:	f0 0c 01 0c 	sub	r12,r8,r12
80008de0:	5e fc       	retal	r12
80008de2:	d7 03       	nop

80008de4 <_write_r>:
80008de4:	d4 21       	pushm	r4-r7,lr
80008de6:	16 98       	mov	r8,r11
80008de8:	18 97       	mov	r7,r12
80008dea:	10 9c       	mov	r12,r8
80008dec:	30 08       	mov	r8,0
80008dee:	14 9b       	mov	r11,r10
80008df0:	e0 66 07 d8 	mov	r6,2008
80008df4:	12 9a       	mov	r10,r9
80008df6:	8d 08       	st.w	r6[0x0],r8
80008df8:	fe b0 d1 3a 	rcall	8000306c <_write>
80008dfc:	5b fc       	cp.w	r12,-1
80008dfe:	c0 51       	brne	80008e08 <_write_r+0x24>
80008e00:	6c 08       	ld.w	r8,r6[0x0]
80008e02:	58 08       	cp.w	r8,0
80008e04:	ef f8 1a 03 	st.wne	r7[0xc],r8
80008e08:	d8 22       	popm	r4-r7,pc
80008e0a:	d7 03       	nop

80008e0c <_calloc_r>:
80008e0c:	d4 21       	pushm	r4-r7,lr
80008e0e:	f4 0b 02 4b 	mul	r11,r10,r11
80008e12:	fe b0 da bd 	rcall	8000438c <_malloc_r>
80008e16:	18 97       	mov	r7,r12
80008e18:	c2 30       	breq	80008e5e <_calloc_r+0x52>
80008e1a:	f8 fa ff fc 	ld.w	r10,r12[-4]
80008e1e:	e0 1a ff fc 	andl	r10,0xfffc
80008e22:	20 4a       	sub	r10,4
80008e24:	e0 4a 00 24 	cp.w	r10,36
80008e28:	e0 8b 00 18 	brhi	80008e58 <_calloc_r+0x4c>
80008e2c:	18 98       	mov	r8,r12
80008e2e:	59 3a       	cp.w	r10,19
80008e30:	e0 88 00 0f 	brls	80008e4e <_calloc_r+0x42>
80008e34:	30 09       	mov	r9,0
80008e36:	10 a9       	st.w	r8++,r9
80008e38:	10 a9       	st.w	r8++,r9
80008e3a:	59 ba       	cp.w	r10,27
80008e3c:	e0 88 00 09 	brls	80008e4e <_calloc_r+0x42>
80008e40:	10 a9       	st.w	r8++,r9
80008e42:	10 a9       	st.w	r8++,r9
80008e44:	e0 4a 00 24 	cp.w	r10,36
80008e48:	c0 31       	brne	80008e4e <_calloc_r+0x42>
80008e4a:	10 a9       	st.w	r8++,r9
80008e4c:	10 a9       	st.w	r8++,r9
80008e4e:	30 09       	mov	r9,0
80008e50:	10 a9       	st.w	r8++,r9
80008e52:	91 19       	st.w	r8[0x4],r9
80008e54:	91 09       	st.w	r8[0x0],r9
80008e56:	c0 48       	rjmp	80008e5e <_calloc_r+0x52>
80008e58:	30 0b       	mov	r11,0
80008e5a:	fe b0 dd 59 	rcall	8000490c <memset>
80008e5e:	0e 9c       	mov	r12,r7
80008e60:	d8 22       	popm	r4-r7,pc
80008e62:	d7 03       	nop

80008e64 <_close_r>:
80008e64:	d4 21       	pushm	r4-r7,lr
80008e66:	30 08       	mov	r8,0
80008e68:	18 97       	mov	r7,r12
80008e6a:	e0 66 07 d8 	mov	r6,2008
80008e6e:	16 9c       	mov	r12,r11
80008e70:	8d 08       	st.w	r6[0x0],r8
80008e72:	fe b0 de fd 	rcall	80004c6c <_close>
80008e76:	5b fc       	cp.w	r12,-1
80008e78:	c0 51       	brne	80008e82 <_close_r+0x1e>
80008e7a:	6c 08       	ld.w	r8,r6[0x0]
80008e7c:	58 08       	cp.w	r8,0
80008e7e:	ef f8 1a 03 	st.wne	r7[0xc],r8
80008e82:	d8 22       	popm	r4-r7,pc

80008e84 <_fclose_r>:
80008e84:	d4 21       	pushm	r4-r7,lr
80008e86:	18 96       	mov	r6,r12
80008e88:	16 97       	mov	r7,r11
80008e8a:	58 0b       	cp.w	r11,0
80008e8c:	c0 31       	brne	80008e92 <_fclose_r+0xe>
80008e8e:	16 95       	mov	r5,r11
80008e90:	c5 38       	rjmp	80008f36 <_fclose_r+0xb2>
80008e92:	fe b0 f8 a9 	rcall	80007fe4 <__sfp_lock_acquire>
80008e96:	58 06       	cp.w	r6,0
80008e98:	c0 70       	breq	80008ea6 <_fclose_r+0x22>
80008e9a:	6c 68       	ld.w	r8,r6[0x18]
80008e9c:	58 08       	cp.w	r8,0
80008e9e:	c0 41       	brne	80008ea6 <_fclose_r+0x22>
80008ea0:	0c 9c       	mov	r12,r6
80008ea2:	fe b0 f8 f3 	rcall	80008088 <__sinit>
80008ea6:	fe c8 ef d6 	sub	r8,pc,-4138
80008eaa:	10 37       	cp.w	r7,r8
80008eac:	c0 31       	brne	80008eb2 <_fclose_r+0x2e>
80008eae:	6c 07       	ld.w	r7,r6[0x0]
80008eb0:	c0 c8       	rjmp	80008ec8 <_fclose_r+0x44>
80008eb2:	fe c8 ef c2 	sub	r8,pc,-4158
80008eb6:	10 37       	cp.w	r7,r8
80008eb8:	c0 31       	brne	80008ebe <_fclose_r+0x3a>
80008eba:	6c 17       	ld.w	r7,r6[0x4]
80008ebc:	c0 68       	rjmp	80008ec8 <_fclose_r+0x44>
80008ebe:	fe c8 ef ae 	sub	r8,pc,-4178
80008ec2:	10 37       	cp.w	r7,r8
80008ec4:	ed f7 00 02 	ld.weq	r7,r6[0x8]
80008ec8:	8e 69       	ld.sh	r9,r7[0xc]
80008eca:	30 08       	mov	r8,0
80008ecc:	f0 09 19 00 	cp.h	r9,r8
80008ed0:	c0 51       	brne	80008eda <_fclose_r+0x56>
80008ed2:	fe b0 f8 8a 	rcall	80007fe6 <__sfp_lock_release>
80008ed6:	30 05       	mov	r5,0
80008ed8:	c2 f8       	rjmp	80008f36 <_fclose_r+0xb2>
80008eda:	0e 9b       	mov	r11,r7
80008edc:	0c 9c       	mov	r12,r6
80008ede:	fe b0 f7 fd 	rcall	80007ed8 <_fflush_r>
80008ee2:	6e c8       	ld.w	r8,r7[0x30]
80008ee4:	18 95       	mov	r5,r12
80008ee6:	58 08       	cp.w	r8,0
80008ee8:	c0 60       	breq	80008ef4 <_fclose_r+0x70>
80008eea:	6e 8b       	ld.w	r11,r7[0x20]
80008eec:	0c 9c       	mov	r12,r6
80008eee:	5d 18       	icall	r8
80008ef0:	f9 b5 05 ff 	movlt	r5,-1
80008ef4:	8e 68       	ld.sh	r8,r7[0xc]
80008ef6:	ed b8 00 07 	bld	r8,0x7
80008efa:	c0 51       	brne	80008f04 <_fclose_r+0x80>
80008efc:	6e 4b       	ld.w	r11,r7[0x10]
80008efe:	0c 9c       	mov	r12,r6
80008f00:	fe b0 f9 5e 	rcall	800081bc <_free_r>
80008f04:	6e db       	ld.w	r11,r7[0x34]
80008f06:	58 0b       	cp.w	r11,0
80008f08:	c0 a0       	breq	80008f1c <_fclose_r+0x98>
80008f0a:	ee c8 ff bc 	sub	r8,r7,-68
80008f0e:	10 3b       	cp.w	r11,r8
80008f10:	c0 40       	breq	80008f18 <_fclose_r+0x94>
80008f12:	0c 9c       	mov	r12,r6
80008f14:	fe b0 f9 54 	rcall	800081bc <_free_r>
80008f18:	30 08       	mov	r8,0
80008f1a:	8f d8       	st.w	r7[0x34],r8
80008f1c:	6f 2b       	ld.w	r11,r7[0x48]
80008f1e:	58 0b       	cp.w	r11,0
80008f20:	c0 70       	breq	80008f2e <_fclose_r+0xaa>
80008f22:	0c 9c       	mov	r12,r6
80008f24:	fe b0 f9 4c 	rcall	800081bc <_free_r>
80008f28:	30 08       	mov	r8,0
80008f2a:	ef 48 00 48 	st.w	r7[72],r8
80008f2e:	30 08       	mov	r8,0
80008f30:	ae 68       	st.h	r7[0xc],r8
80008f32:	fe b0 f8 5a 	rcall	80007fe6 <__sfp_lock_release>
80008f36:	0a 9c       	mov	r12,r5
80008f38:	d8 22       	popm	r4-r7,pc
80008f3a:	d7 03       	nop

80008f3c <fclose>:
80008f3c:	d4 01       	pushm	lr
80008f3e:	e0 68 01 1c 	mov	r8,284
80008f42:	18 9b       	mov	r11,r12
80008f44:	70 0c       	ld.w	r12,r8[0x0]
80008f46:	c9 ff       	rcall	80008e84 <_fclose_r>
80008f48:	d8 02       	popm	pc
80008f4a:	d7 03       	nop

80008f4c <_fstat_r>:
80008f4c:	d4 21       	pushm	r4-r7,lr
80008f4e:	16 98       	mov	r8,r11
80008f50:	18 97       	mov	r7,r12
80008f52:	10 9c       	mov	r12,r8
80008f54:	30 08       	mov	r8,0
80008f56:	e0 66 07 d8 	mov	r6,2008
80008f5a:	14 9b       	mov	r11,r10
80008f5c:	8d 08       	st.w	r6[0x0],r8
80008f5e:	fe b0 de af 	rcall	80004cbc <_fstat>
80008f62:	5b fc       	cp.w	r12,-1
80008f64:	c0 51       	brne	80008f6e <_fstat_r+0x22>
80008f66:	6c 08       	ld.w	r8,r6[0x0]
80008f68:	58 08       	cp.w	r8,0
80008f6a:	ef f8 1a 03 	st.wne	r7[0xc],r8
80008f6e:	d8 22       	popm	r4-r7,pc

80008f70 <_lseek_r>:
80008f70:	d4 21       	pushm	r4-r7,lr
80008f72:	16 98       	mov	r8,r11
80008f74:	18 97       	mov	r7,r12
80008f76:	10 9c       	mov	r12,r8
80008f78:	30 08       	mov	r8,0
80008f7a:	14 9b       	mov	r11,r10
80008f7c:	e0 66 07 d8 	mov	r6,2008
80008f80:	12 9a       	mov	r10,r9
80008f82:	8d 08       	st.w	r6[0x0],r8
80008f84:	fe b0 de 7e 	rcall	80004c80 <_lseek>
80008f88:	5b fc       	cp.w	r12,-1
80008f8a:	c0 51       	brne	80008f94 <_lseek_r+0x24>
80008f8c:	6c 08       	ld.w	r8,r6[0x0]
80008f8e:	58 08       	cp.w	r8,0
80008f90:	ef f8 1a 03 	st.wne	r7[0xc],r8
80008f94:	d8 22       	popm	r4-r7,pc
80008f96:	d7 03       	nop

80008f98 <_read_r>:
80008f98:	d4 21       	pushm	r4-r7,lr
80008f9a:	16 98       	mov	r8,r11
80008f9c:	18 97       	mov	r7,r12
80008f9e:	10 9c       	mov	r12,r8
80008fa0:	30 08       	mov	r8,0
80008fa2:	14 9b       	mov	r11,r10
80008fa4:	e0 66 07 d8 	mov	r6,2008
80008fa8:	12 9a       	mov	r10,r9
80008faa:	8d 08       	st.w	r6[0x0],r8
80008fac:	fe b0 d0 46 	rcall	80003038 <_read>
80008fb0:	5b fc       	cp.w	r12,-1
80008fb2:	c0 51       	brne	80008fbc <_read_r+0x24>
80008fb4:	6c 08       	ld.w	r8,r6[0x0]
80008fb6:	58 08       	cp.w	r8,0
80008fb8:	ef f8 1a 03 	st.wne	r7[0xc],r8
80008fbc:	d8 22       	popm	r4-r7,pc
80008fbe:	d7 03       	nop

80008fc0 <__avr32_f64_cmp_eq>:
80008fc0:	10 3a       	cp.w	r10,r8
80008fc2:	f2 0b 13 00 	cpc	r11,r9
80008fc6:	c0 80       	breq	80008fd6 <__avr32_f64_cmp_eq+0x16>
80008fc8:	a1 7b       	lsl	r11,0x1
80008fca:	a1 79       	lsl	r9,0x1
80008fcc:	14 4b       	or	r11,r10
80008fce:	12 4b       	or	r11,r9
80008fd0:	10 4b       	or	r11,r8
80008fd2:	5e 0f       	reteq	1
80008fd4:	5e fd       	retal	0
80008fd6:	a1 7b       	lsl	r11,0x1
80008fd8:	fc 1c ff e0 	movh	r12,0xffe0
80008fdc:	58 0a       	cp.w	r10,0
80008fde:	f8 0b 13 00 	cpc	r11,r12
80008fe2:	5e 8f       	retls	1
80008fe4:	5e fd       	retal	0

80008fe6 <__avr32_f64_cmp_ge>:
80008fe6:	1a de       	st.w	--sp,lr
80008fe8:	1a d7       	st.w	--sp,r7
80008fea:	a1 7b       	lsl	r11,0x1
80008fec:	5f 3c       	srlo	r12
80008fee:	a1 79       	lsl	r9,0x1
80008ff0:	5f 37       	srlo	r7
80008ff2:	5c fc       	rol	r12
80008ff4:	fc 1e ff e0 	movh	lr,0xffe0
80008ff8:	58 0a       	cp.w	r10,0
80008ffa:	fc 0b 13 00 	cpc	r11,lr
80008ffe:	e0 8b 00 1d 	brhi	80009038 <__avr32_f64_cmp_ge+0x52>
80009002:	58 08       	cp.w	r8,0
80009004:	fc 09 13 00 	cpc	r9,lr
80009008:	e0 8b 00 18 	brhi	80009038 <__avr32_f64_cmp_ge+0x52>
8000900c:	58 0b       	cp.w	r11,0
8000900e:	f5 ba 00 00 	subfeq	r10,0
80009012:	c1 50       	breq	8000903c <__avr32_f64_cmp_ge+0x56>
80009014:	1b 07       	ld.w	r7,sp++
80009016:	1b 0e       	ld.w	lr,sp++
80009018:	58 3c       	cp.w	r12,3
8000901a:	c0 a0       	breq	8000902e <__avr32_f64_cmp_ge+0x48>
8000901c:	58 1c       	cp.w	r12,1
8000901e:	c0 33       	brcs	80009024 <__avr32_f64_cmp_ge+0x3e>
80009020:	5e 0f       	reteq	1
80009022:	5e 1d       	retne	0
80009024:	10 3a       	cp.w	r10,r8
80009026:	f2 0b 13 00 	cpc	r11,r9
8000902a:	5e 2f       	reths	1
8000902c:	5e 3d       	retlo	0
8000902e:	14 38       	cp.w	r8,r10
80009030:	f6 09 13 00 	cpc	r9,r11
80009034:	5e 2f       	reths	1
80009036:	5e 3d       	retlo	0
80009038:	1b 07       	ld.w	r7,sp++
8000903a:	d8 0a       	popm	pc,r12=0
8000903c:	58 17       	cp.w	r7,1
8000903e:	5f 0c       	sreq	r12
80009040:	58 09       	cp.w	r9,0
80009042:	f5 b8 00 00 	subfeq	r8,0
80009046:	1b 07       	ld.w	r7,sp++
80009048:	1b 0e       	ld.w	lr,sp++
8000904a:	5e 0f       	reteq	1
8000904c:	5e fc       	retal	r12

8000904e <__avr32_udiv64>:
8000904e:	d4 31       	pushm	r0-r7,lr
80009050:	1a 97       	mov	r7,sp
80009052:	20 3d       	sub	sp,12
80009054:	10 9c       	mov	r12,r8
80009056:	12 9e       	mov	lr,r9
80009058:	14 93       	mov	r3,r10
8000905a:	58 09       	cp.w	r9,0
8000905c:	e0 81 00 bd 	brne	800091d6 <__avr32_udiv64+0x188>
80009060:	16 38       	cp.w	r8,r11
80009062:	e0 88 00 40 	brls	800090e2 <__avr32_udiv64+0x94>
80009066:	f0 08 12 00 	clz	r8,r8
8000906a:	c0 d0       	breq	80009084 <__avr32_udiv64+0x36>
8000906c:	f6 08 09 4b 	lsl	r11,r11,r8
80009070:	f0 09 11 20 	rsub	r9,r8,32
80009074:	f8 08 09 4c 	lsl	r12,r12,r8
80009078:	f4 09 0a 49 	lsr	r9,r10,r9
8000907c:	f4 08 09 43 	lsl	r3,r10,r8
80009080:	f3 eb 10 0b 	or	r11,r9,r11
80009084:	f8 0e 16 10 	lsr	lr,r12,0x10
80009088:	f5 dc c0 10 	bfextu	r10,r12,0x0,0x10
8000908c:	f6 0e 0d 00 	divu	r0,r11,lr
80009090:	e6 0b 16 10 	lsr	r11,r3,0x10
80009094:	00 99       	mov	r9,r0
80009096:	f7 e1 11 0b 	or	r11,r11,r1<<0x10
8000909a:	e0 0a 02 48 	mul	r8,r0,r10
8000909e:	10 3b       	cp.w	r11,r8
800090a0:	c0 a2       	brcc	800090b4 <__avr32_udiv64+0x66>
800090a2:	20 19       	sub	r9,1
800090a4:	18 0b       	add	r11,r12
800090a6:	18 3b       	cp.w	r11,r12
800090a8:	c0 63       	brcs	800090b4 <__avr32_udiv64+0x66>
800090aa:	10 3b       	cp.w	r11,r8
800090ac:	f7 b9 03 01 	sublo	r9,1
800090b0:	f7 dc e3 0b 	addcs	r11,r11,r12
800090b4:	f6 08 01 01 	sub	r1,r11,r8
800090b8:	e7 d3 c0 10 	bfextu	r3,r3,0x0,0x10
800090bc:	e2 0e 0d 00 	divu	r0,r1,lr
800090c0:	e7 e1 11 03 	or	r3,r3,r1<<0x10
800090c4:	00 98       	mov	r8,r0
800090c6:	e0 0a 02 4a 	mul	r10,r0,r10
800090ca:	14 33       	cp.w	r3,r10
800090cc:	c0 82       	brcc	800090dc <__avr32_udiv64+0x8e>
800090ce:	20 18       	sub	r8,1
800090d0:	18 03       	add	r3,r12
800090d2:	18 33       	cp.w	r3,r12
800090d4:	c0 43       	brcs	800090dc <__avr32_udiv64+0x8e>
800090d6:	14 33       	cp.w	r3,r10
800090d8:	f7 b8 03 01 	sublo	r8,1
800090dc:	f1 e9 11 08 	or	r8,r8,r9<<0x10
800090e0:	cd f8       	rjmp	8000929e <__avr32_udiv64+0x250>
800090e2:	58 08       	cp.w	r8,0
800090e4:	c0 51       	brne	800090ee <__avr32_udiv64+0xa0>
800090e6:	30 19       	mov	r9,1
800090e8:	f2 08 0d 08 	divu	r8,r9,r8
800090ec:	10 9c       	mov	r12,r8
800090ee:	f8 06 12 00 	clz	r6,r12
800090f2:	c0 41       	brne	800090fa <__avr32_udiv64+0xac>
800090f4:	18 1b       	sub	r11,r12
800090f6:	30 19       	mov	r9,1
800090f8:	c4 08       	rjmp	80009178 <__avr32_udiv64+0x12a>
800090fa:	ec 01 11 20 	rsub	r1,r6,32
800090fe:	f4 01 0a 49 	lsr	r9,r10,r1
80009102:	f8 06 09 4c 	lsl	r12,r12,r6
80009106:	f6 06 09 48 	lsl	r8,r11,r6
8000910a:	f6 01 0a 41 	lsr	r1,r11,r1
8000910e:	f3 e8 10 08 	or	r8,r9,r8
80009112:	f8 03 16 10 	lsr	r3,r12,0x10
80009116:	eb dc c0 10 	bfextu	r5,r12,0x0,0x10
8000911a:	e2 03 0d 00 	divu	r0,r1,r3
8000911e:	f0 0b 16 10 	lsr	r11,r8,0x10
80009122:	00 9e       	mov	lr,r0
80009124:	f7 e1 11 0b 	or	r11,r11,r1<<0x10
80009128:	e0 05 02 49 	mul	r9,r0,r5
8000912c:	12 3b       	cp.w	r11,r9
8000912e:	c0 a2       	brcc	80009142 <__avr32_udiv64+0xf4>
80009130:	20 1e       	sub	lr,1
80009132:	18 0b       	add	r11,r12
80009134:	18 3b       	cp.w	r11,r12
80009136:	c0 63       	brcs	80009142 <__avr32_udiv64+0xf4>
80009138:	12 3b       	cp.w	r11,r9
8000913a:	f7 be 03 01 	sublo	lr,1
8000913e:	f7 dc e3 0b 	addcs	r11,r11,r12
80009142:	12 1b       	sub	r11,r9
80009144:	f1 d8 c0 10 	bfextu	r8,r8,0x0,0x10
80009148:	f6 03 0d 02 	divu	r2,r11,r3
8000914c:	f1 e3 11 08 	or	r8,r8,r3<<0x10
80009150:	04 99       	mov	r9,r2
80009152:	e4 05 02 4b 	mul	r11,r2,r5
80009156:	16 38       	cp.w	r8,r11
80009158:	c0 a2       	brcc	8000916c <__avr32_udiv64+0x11e>
8000915a:	20 19       	sub	r9,1
8000915c:	18 08       	add	r8,r12
8000915e:	18 38       	cp.w	r8,r12
80009160:	c0 63       	brcs	8000916c <__avr32_udiv64+0x11e>
80009162:	16 38       	cp.w	r8,r11
80009164:	f7 b9 03 01 	sublo	r9,1
80009168:	f1 dc e3 08 	addcs	r8,r8,r12
8000916c:	f4 06 09 43 	lsl	r3,r10,r6
80009170:	f0 0b 01 0b 	sub	r11,r8,r11
80009174:	f3 ee 11 09 	or	r9,r9,lr<<0x10
80009178:	f8 06 16 10 	lsr	r6,r12,0x10
8000917c:	fd dc c0 10 	bfextu	lr,r12,0x0,0x10
80009180:	f6 06 0d 00 	divu	r0,r11,r6
80009184:	e6 0b 16 10 	lsr	r11,r3,0x10
80009188:	00 9a       	mov	r10,r0
8000918a:	f7 e1 11 0b 	or	r11,r11,r1<<0x10
8000918e:	e0 0e 02 48 	mul	r8,r0,lr
80009192:	10 3b       	cp.w	r11,r8
80009194:	c0 a2       	brcc	800091a8 <__avr32_udiv64+0x15a>
80009196:	20 1a       	sub	r10,1
80009198:	18 0b       	add	r11,r12
8000919a:	18 3b       	cp.w	r11,r12
8000919c:	c0 63       	brcs	800091a8 <__avr32_udiv64+0x15a>
8000919e:	10 3b       	cp.w	r11,r8
800091a0:	f7 ba 03 01 	sublo	r10,1
800091a4:	f7 dc e3 0b 	addcs	r11,r11,r12
800091a8:	f6 08 01 01 	sub	r1,r11,r8
800091ac:	e7 d3 c0 10 	bfextu	r3,r3,0x0,0x10
800091b0:	e2 06 0d 00 	divu	r0,r1,r6
800091b4:	e7 e1 11 03 	or	r3,r3,r1<<0x10
800091b8:	00 98       	mov	r8,r0
800091ba:	e0 0e 02 4b 	mul	r11,r0,lr
800091be:	16 33       	cp.w	r3,r11
800091c0:	c0 82       	brcc	800091d0 <__avr32_udiv64+0x182>
800091c2:	20 18       	sub	r8,1
800091c4:	18 03       	add	r3,r12
800091c6:	18 33       	cp.w	r3,r12
800091c8:	c0 43       	brcs	800091d0 <__avr32_udiv64+0x182>
800091ca:	16 33       	cp.w	r3,r11
800091cc:	f7 b8 03 01 	sublo	r8,1
800091d0:	f1 ea 11 08 	or	r8,r8,r10<<0x10
800091d4:	c6 98       	rjmp	800092a6 <__avr32_udiv64+0x258>
800091d6:	16 39       	cp.w	r9,r11
800091d8:	e0 8b 00 65 	brhi	800092a2 <__avr32_udiv64+0x254>
800091dc:	f2 09 12 00 	clz	r9,r9
800091e0:	c0 b1       	brne	800091f6 <__avr32_udiv64+0x1a8>
800091e2:	10 3a       	cp.w	r10,r8
800091e4:	5f 2a       	srhs	r10
800091e6:	1c 3b       	cp.w	r11,lr
800091e8:	5f b8       	srhi	r8
800091ea:	10 4a       	or	r10,r8
800091ec:	f2 0a 18 00 	cp.b	r10,r9
800091f0:	c5 90       	breq	800092a2 <__avr32_udiv64+0x254>
800091f2:	30 18       	mov	r8,1
800091f4:	c5 98       	rjmp	800092a6 <__avr32_udiv64+0x258>
800091f6:	f0 09 09 46 	lsl	r6,r8,r9
800091fa:	f2 03 11 20 	rsub	r3,r9,32
800091fe:	fc 09 09 4e 	lsl	lr,lr,r9
80009202:	f0 03 0a 48 	lsr	r8,r8,r3
80009206:	f6 09 09 4c 	lsl	r12,r11,r9
8000920a:	f4 03 0a 42 	lsr	r2,r10,r3
8000920e:	ef 46 ff f4 	st.w	r7[-12],r6
80009212:	f6 03 0a 43 	lsr	r3,r11,r3
80009216:	18 42       	or	r2,r12
80009218:	f1 ee 10 0c 	or	r12,r8,lr
8000921c:	f8 01 16 10 	lsr	r1,r12,0x10
80009220:	ed dc c0 10 	bfextu	r6,r12,0x0,0x10
80009224:	e6 01 0d 04 	divu	r4,r3,r1
80009228:	e4 03 16 10 	lsr	r3,r2,0x10
8000922c:	08 9e       	mov	lr,r4
8000922e:	e7 e5 11 03 	or	r3,r3,r5<<0x10
80009232:	e8 06 02 48 	mul	r8,r4,r6
80009236:	10 33       	cp.w	r3,r8
80009238:	c0 a2       	brcc	8000924c <__avr32_udiv64+0x1fe>
8000923a:	20 1e       	sub	lr,1
8000923c:	18 03       	add	r3,r12
8000923e:	18 33       	cp.w	r3,r12
80009240:	c0 63       	brcs	8000924c <__avr32_udiv64+0x1fe>
80009242:	10 33       	cp.w	r3,r8
80009244:	f7 be 03 01 	sublo	lr,1
80009248:	e7 dc e3 03 	addcs	r3,r3,r12
8000924c:	10 13       	sub	r3,r8
8000924e:	f7 d2 c0 10 	bfextu	r11,r2,0x0,0x10
80009252:	e6 01 0d 00 	divu	r0,r3,r1
80009256:	f7 e1 11 0b 	or	r11,r11,r1<<0x10
8000925a:	00 98       	mov	r8,r0
8000925c:	e0 06 02 46 	mul	r6,r0,r6
80009260:	0c 3b       	cp.w	r11,r6
80009262:	c0 a2       	brcc	80009276 <__avr32_udiv64+0x228>
80009264:	20 18       	sub	r8,1
80009266:	18 0b       	add	r11,r12
80009268:	18 3b       	cp.w	r11,r12
8000926a:	c0 63       	brcs	80009276 <__avr32_udiv64+0x228>
8000926c:	0c 3b       	cp.w	r11,r6
8000926e:	f7 dc e3 0b 	addcs	r11,r11,r12
80009272:	f7 b8 03 01 	sublo	r8,1
80009276:	f1 ee 11 08 	or	r8,r8,lr<<0x10
8000927a:	ee f4 ff f4 	ld.w	r4,r7[-12]
8000927e:	0c 1b       	sub	r11,r6
80009280:	f0 04 06 42 	mulu.d	r2,r8,r4
80009284:	06 95       	mov	r5,r3
80009286:	16 35       	cp.w	r5,r11
80009288:	e0 8b 00 0a 	brhi	8000929c <__avr32_udiv64+0x24e>
8000928c:	5f 0b       	sreq	r11
8000928e:	f4 09 09 49 	lsl	r9,r10,r9
80009292:	12 32       	cp.w	r2,r9
80009294:	5f b9       	srhi	r9
80009296:	f7 e9 00 09 	and	r9,r11,r9
8000929a:	c0 60       	breq	800092a6 <__avr32_udiv64+0x258>
8000929c:	20 18       	sub	r8,1
8000929e:	30 09       	mov	r9,0
800092a0:	c0 38       	rjmp	800092a6 <__avr32_udiv64+0x258>
800092a2:	30 09       	mov	r9,0
800092a4:	12 98       	mov	r8,r9
800092a6:	10 9a       	mov	r10,r8
800092a8:	12 93       	mov	r3,r9
800092aa:	10 92       	mov	r2,r8
800092ac:	12 9b       	mov	r11,r9
800092ae:	2f dd       	sub	sp,-12
800092b0:	d8 32       	popm	r0-r7,pc

800092b2 <__avr32_umod64>:
800092b2:	d4 31       	pushm	r0-r7,lr
800092b4:	1a 97       	mov	r7,sp
800092b6:	20 3d       	sub	sp,12
800092b8:	10 9c       	mov	r12,r8
800092ba:	12 95       	mov	r5,r9
800092bc:	14 9e       	mov	lr,r10
800092be:	16 91       	mov	r1,r11
800092c0:	16 96       	mov	r6,r11
800092c2:	58 09       	cp.w	r9,0
800092c4:	e0 81 00 81 	brne	800093c6 <__avr32_umod64+0x114>
800092c8:	16 38       	cp.w	r8,r11
800092ca:	e0 88 00 12 	brls	800092ee <__avr32_umod64+0x3c>
800092ce:	f0 08 12 00 	clz	r8,r8
800092d2:	c4 e0       	breq	8000936e <__avr32_umod64+0xbc>
800092d4:	f6 08 09 46 	lsl	r6,r11,r8
800092d8:	f8 08 09 4c 	lsl	r12,r12,r8
800092dc:	f0 0b 11 20 	rsub	r11,r8,32
800092e0:	f4 08 09 4e 	lsl	lr,r10,r8
800092e4:	f4 0b 0a 4b 	lsr	r11,r10,r11
800092e8:	f7 e6 10 06 	or	r6,r11,r6
800092ec:	c4 18       	rjmp	8000936e <__avr32_umod64+0xbc>
800092ee:	58 08       	cp.w	r8,0
800092f0:	c0 51       	brne	800092fa <__avr32_umod64+0x48>
800092f2:	30 19       	mov	r9,1
800092f4:	f2 08 0d 08 	divu	r8,r9,r8
800092f8:	10 9c       	mov	r12,r8
800092fa:	f8 08 12 00 	clz	r8,r12
800092fe:	c0 31       	brne	80009304 <__avr32_umod64+0x52>
80009300:	18 16       	sub	r6,r12
80009302:	c3 68       	rjmp	8000936e <__avr32_umod64+0xbc>
80009304:	f0 03 11 20 	rsub	r3,r8,32
80009308:	f4 03 0a 4b 	lsr	r11,r10,r3
8000930c:	f8 08 09 4c 	lsl	r12,r12,r8
80009310:	ec 08 09 49 	lsl	r9,r6,r8
80009314:	ec 03 0a 43 	lsr	r3,r6,r3
80009318:	f7 e9 10 09 	or	r9,r11,r9
8000931c:	f8 05 16 10 	lsr	r5,r12,0x10
80009320:	ed dc c0 10 	bfextu	r6,r12,0x0,0x10
80009324:	e6 05 0d 02 	divu	r2,r3,r5
80009328:	f2 0e 16 10 	lsr	lr,r9,0x10
8000932c:	ec 02 02 4b 	mul	r11,r6,r2
80009330:	fd e3 11 0e 	or	lr,lr,r3<<0x10
80009334:	16 3e       	cp.w	lr,r11
80009336:	c0 72       	brcc	80009344 <__avr32_umod64+0x92>
80009338:	18 0e       	add	lr,r12
8000933a:	18 3e       	cp.w	lr,r12
8000933c:	c0 43       	brcs	80009344 <__avr32_umod64+0x92>
8000933e:	16 3e       	cp.w	lr,r11
80009340:	fd dc e3 0e 	addcs	lr,lr,r12
80009344:	fc 0b 01 03 	sub	r3,lr,r11
80009348:	f3 d9 c0 10 	bfextu	r9,r9,0x0,0x10
8000934c:	e6 05 0d 02 	divu	r2,r3,r5
80009350:	f3 e3 11 09 	or	r9,r9,r3<<0x10
80009354:	a5 36       	mul	r6,r2
80009356:	0c 39       	cp.w	r9,r6
80009358:	c0 72       	brcc	80009366 <__avr32_umod64+0xb4>
8000935a:	18 09       	add	r9,r12
8000935c:	18 39       	cp.w	r9,r12
8000935e:	c0 43       	brcs	80009366 <__avr32_umod64+0xb4>
80009360:	0c 39       	cp.w	r9,r6
80009362:	f3 dc e3 09 	addcs	r9,r9,r12
80009366:	f2 06 01 06 	sub	r6,r9,r6
8000936a:	f4 08 09 4e 	lsl	lr,r10,r8
8000936e:	f8 0a 16 10 	lsr	r10,r12,0x10
80009372:	eb dc c0 10 	bfextu	r5,r12,0x0,0x10
80009376:	ec 0a 0d 02 	divu	r2,r6,r10
8000937a:	fc 09 16 10 	lsr	r9,lr,0x10
8000937e:	ea 02 02 4b 	mul	r11,r5,r2
80009382:	f3 e3 11 09 	or	r9,r9,r3<<0x10
80009386:	16 39       	cp.w	r9,r11
80009388:	c0 72       	brcc	80009396 <__avr32_umod64+0xe4>
8000938a:	18 09       	add	r9,r12
8000938c:	18 39       	cp.w	r9,r12
8000938e:	c0 43       	brcs	80009396 <__avr32_umod64+0xe4>
80009390:	16 39       	cp.w	r9,r11
80009392:	f3 dc e3 09 	addcs	r9,r9,r12
80009396:	f2 0b 01 0b 	sub	r11,r9,r11
8000939a:	fd de c0 10 	bfextu	lr,lr,0x0,0x10
8000939e:	f6 0a 0d 0a 	divu	r10,r11,r10
800093a2:	fd eb 11 0e 	or	lr,lr,r11<<0x10
800093a6:	ea 0a 02 4a 	mul	r10,r5,r10
800093aa:	14 3e       	cp.w	lr,r10
800093ac:	c0 72       	brcc	800093ba <__avr32_umod64+0x108>
800093ae:	18 0e       	add	lr,r12
800093b0:	18 3e       	cp.w	lr,r12
800093b2:	c0 43       	brcs	800093ba <__avr32_umod64+0x108>
800093b4:	14 3e       	cp.w	lr,r10
800093b6:	fd dc e3 0e 	addcs	lr,lr,r12
800093ba:	fc 0a 01 0a 	sub	r10,lr,r10
800093be:	30 0b       	mov	r11,0
800093c0:	f4 08 0a 4a 	lsr	r10,r10,r8
800093c4:	c7 b8       	rjmp	800094ba <__avr32_umod64+0x208>
800093c6:	16 39       	cp.w	r9,r11
800093c8:	e0 8b 00 79 	brhi	800094ba <__avr32_umod64+0x208>
800093cc:	f2 09 12 00 	clz	r9,r9
800093d0:	c1 21       	brne	800093f4 <__avr32_umod64+0x142>
800093d2:	10 3a       	cp.w	r10,r8
800093d4:	5f 2b       	srhs	r11
800093d6:	0a 31       	cp.w	r1,r5
800093d8:	5f ba       	srhi	r10
800093da:	f7 ea 10 0a 	or	r10,r11,r10
800093de:	f2 0a 18 00 	cp.b	r10,r9
800093e2:	c0 60       	breq	800093ee <__avr32_umod64+0x13c>
800093e4:	fc 08 01 0c 	sub	r12,lr,r8
800093e8:	e2 05 01 46 	sbc	r6,r1,r5
800093ec:	18 9e       	mov	lr,r12
800093ee:	0c 9b       	mov	r11,r6
800093f0:	1c 9a       	mov	r10,lr
800093f2:	c6 48       	rjmp	800094ba <__avr32_umod64+0x208>
800093f4:	ea 09 09 4c 	lsl	r12,r5,r9
800093f8:	f2 06 11 20 	rsub	r6,r9,32
800093fc:	f6 09 09 4b 	lsl	r11,r11,r9
80009400:	f0 09 09 42 	lsl	r2,r8,r9
80009404:	ef 46 ff f4 	st.w	r7[-12],r6
80009408:	f0 06 0a 48 	lsr	r8,r8,r6
8000940c:	18 48       	or	r8,r12
8000940e:	e2 06 0a 4c 	lsr	r12,r1,r6
80009412:	f4 09 09 43 	lsl	r3,r10,r9
80009416:	fd d8 c0 10 	bfextu	lr,r8,0x0,0x10
8000941a:	f4 06 0a 4a 	lsr	r10,r10,r6
8000941e:	16 4a       	or	r10,r11
80009420:	f0 0b 16 10 	lsr	r11,r8,0x10
80009424:	f8 0b 0d 04 	divu	r4,r12,r11
80009428:	f4 0c 16 10 	lsr	r12,r10,0x10
8000942c:	08 91       	mov	r1,r4
8000942e:	f9 e5 11 0c 	or	r12,r12,r5<<0x10
80009432:	e8 0e 02 46 	mul	r6,r4,lr
80009436:	0c 3c       	cp.w	r12,r6
80009438:	c0 a2       	brcc	8000944c <__avr32_umod64+0x19a>
8000943a:	20 11       	sub	r1,1
8000943c:	10 0c       	add	r12,r8
8000943e:	10 3c       	cp.w	r12,r8
80009440:	c0 63       	brcs	8000944c <__avr32_umod64+0x19a>
80009442:	0c 3c       	cp.w	r12,r6
80009444:	f7 b1 03 01 	sublo	r1,1
80009448:	f9 d8 e3 0c 	addcs	r12,r12,r8
8000944c:	0c 1c       	sub	r12,r6
8000944e:	f5 da c0 10 	bfextu	r10,r10,0x0,0x10
80009452:	f8 0b 0d 04 	divu	r4,r12,r11
80009456:	f5 e5 11 0b 	or	r11,r10,r5<<0x10
8000945a:	08 96       	mov	r6,r4
8000945c:	e8 0e 02 4e 	mul	lr,r4,lr
80009460:	1c 3b       	cp.w	r11,lr
80009462:	c0 a2       	brcc	80009476 <__avr32_umod64+0x1c4>
80009464:	20 16       	sub	r6,1
80009466:	10 0b       	add	r11,r8
80009468:	10 3b       	cp.w	r11,r8
8000946a:	c0 63       	brcs	80009476 <__avr32_umod64+0x1c4>
8000946c:	1c 3b       	cp.w	r11,lr
8000946e:	f7 b6 03 01 	sublo	r6,1
80009472:	f7 d8 e3 0b 	addcs	r11,r11,r8
80009476:	ed e1 11 01 	or	r1,r6,r1<<0x10
8000947a:	1c 1b       	sub	r11,lr
8000947c:	e2 02 06 40 	mulu.d	r0,r1,r2
80009480:	00 9e       	mov	lr,r0
80009482:	02 9c       	mov	r12,r1
80009484:	16 3c       	cp.w	r12,r11
80009486:	e0 8b 00 08 	brhi	80009496 <__avr32_umod64+0x1e4>
8000948a:	5f 06       	sreq	r6
8000948c:	06 30       	cp.w	r0,r3
8000948e:	5f ba       	srhi	r10
80009490:	ed ea 00 0a 	and	r10,r6,r10
80009494:	c0 60       	breq	800094a0 <__avr32_umod64+0x1ee>
80009496:	fc 02 01 04 	sub	r4,lr,r2
8000949a:	f8 08 01 4c 	sbc	r12,r12,r8
8000949e:	08 9e       	mov	lr,r4
800094a0:	e6 0e 01 0a 	sub	r10,r3,lr
800094a4:	f6 0c 01 4c 	sbc	r12,r11,r12
800094a8:	ee f1 ff f4 	ld.w	r1,r7[-12]
800094ac:	f8 09 0a 4b 	lsr	r11,r12,r9
800094b0:	f4 09 0a 4a 	lsr	r10,r10,r9
800094b4:	f8 01 09 4c 	lsl	r12,r12,r1
800094b8:	18 4a       	or	r10,r12
800094ba:	2f dd       	sub	sp,-12
800094bc:	d8 32       	popm	r0-r7,pc
800094be:	d7 03       	nop

800094c0 <__do_global_ctors_aux>:
800094c0:	d4 21       	pushm	r4-r7,lr
800094c2:	30 c7       	mov	r7,12
800094c4:	c0 28       	rjmp	800094c8 <__do_global_ctors_aux+0x8>
800094c6:	5d 18       	icall	r8
800094c8:	20 47       	sub	r7,4
800094ca:	6e 08       	ld.w	r8,r7[0x0]
800094cc:	5b f8       	cp.w	r8,-1
800094ce:	cf c1       	brne	800094c6 <__do_global_ctors_aux+0x6>
800094d0:	d8 22       	popm	r4-r7,pc
800094d2:	d7 03       	nop

Disassembly of section .exception:

80009600 <_evba>:
80009600:	c0 08       	rjmp	80009600 <_evba>
	...

80009604 <_handle_TLB_Multiple_Hit>:
80009604:	c0 08       	rjmp	80009604 <_handle_TLB_Multiple_Hit>
	...

80009608 <_handle_Bus_Error_Data_Fetch>:
80009608:	c0 08       	rjmp	80009608 <_handle_Bus_Error_Data_Fetch>
	...

8000960c <_handle_Bus_Error_Instruction_Fetch>:
8000960c:	c0 08       	rjmp	8000960c <_handle_Bus_Error_Instruction_Fetch>
	...

80009610 <_handle_NMI>:
80009610:	c0 08       	rjmp	80009610 <_handle_NMI>
	...

80009614 <_handle_Instruction_Address>:
80009614:	c0 08       	rjmp	80009614 <_handle_Instruction_Address>
	...

80009618 <_handle_ITLB_Protection>:
80009618:	c0 08       	rjmp	80009618 <_handle_ITLB_Protection>
	...

8000961c <_handle_Breakpoint>:
8000961c:	c0 08       	rjmp	8000961c <_handle_Breakpoint>
	...

80009620 <_handle_Illegal_Opcode>:
80009620:	c0 08       	rjmp	80009620 <_handle_Illegal_Opcode>
	...

80009624 <_handle_Unimplemented_Instruction>:
80009624:	c0 08       	rjmp	80009624 <_handle_Unimplemented_Instruction>
	...

80009628 <_handle_Privilege_Violation>:
80009628:	c0 08       	rjmp	80009628 <_handle_Privilege_Violation>
	...

8000962c <_handle_Floating_Point>:
8000962c:	c0 08       	rjmp	8000962c <_handle_Floating_Point>
	...

80009630 <_handle_Coprocessor_Absent>:
80009630:	c0 08       	rjmp	80009630 <_handle_Coprocessor_Absent>
	...

80009634 <_handle_Data_Address_Read>:
80009634:	c0 08       	rjmp	80009634 <_handle_Data_Address_Read>
	...

80009638 <_handle_Data_Address_Write>:
80009638:	c0 08       	rjmp	80009638 <_handle_Data_Address_Write>
	...

8000963c <_handle_DTLB_Protection_Read>:
8000963c:	c0 08       	rjmp	8000963c <_handle_DTLB_Protection_Read>
	...

80009640 <_handle_DTLB_Protection_Write>:
80009640:	c0 08       	rjmp	80009640 <_handle_DTLB_Protection_Write>
	...

80009644 <_handle_DTLB_Modified>:
80009644:	c0 08       	rjmp	80009644 <_handle_DTLB_Modified>
	...

80009650 <_handle_ITLB_Miss>:
80009650:	c0 08       	rjmp	80009650 <_handle_ITLB_Miss>
	...

80009660 <_handle_DTLB_Miss_Read>:
80009660:	c0 08       	rjmp	80009660 <_handle_DTLB_Miss_Read>
	...

80009670 <_handle_DTLB_Miss_Write>:
80009670:	c0 08       	rjmp	80009670 <_handle_DTLB_Miss_Write>
	...

80009700 <_handle_Supervisor_Call>:
80009700:	fe cf 68 04 	sub	pc,pc,26628

80009704 <_int0>:
80009704:	30 0c       	mov	r12,0
80009706:	fe b0 c8 77 	rcall	800027f4 <_get_interrupt_handler>
8000970a:	58 0c       	cp.w	r12,0
8000970c:	f8 0f 17 10 	movne	pc,r12
80009710:	d6 03       	rete

80009712 <_int1>:
80009712:	30 1c       	mov	r12,1
80009714:	fe b0 c8 70 	rcall	800027f4 <_get_interrupt_handler>
80009718:	58 0c       	cp.w	r12,0
8000971a:	f8 0f 17 10 	movne	pc,r12
8000971e:	d6 03       	rete

80009720 <_int2>:
80009720:	30 2c       	mov	r12,2
80009722:	fe b0 c8 69 	rcall	800027f4 <_get_interrupt_handler>
80009726:	58 0c       	cp.w	r12,0
80009728:	f8 0f 17 10 	movne	pc,r12
8000972c:	d6 03       	rete

8000972e <_int3>:
8000972e:	30 3c       	mov	r12,3
80009730:	fe b0 c8 62 	rcall	800027f4 <_get_interrupt_handler>
80009734:	58 0c       	cp.w	r12,0
80009736:	f8 0f 17 10 	movne	pc,r12
8000973a:	d6 03       	rete
8000973c:	d7 03       	nop
8000973e:	d7 03       	nop
80009740:	d7 03       	nop
80009742:	d7 03       	nop
80009744:	d7 03       	nop
80009746:	d7 03       	nop
80009748:	d7 03       	nop
8000974a:	d7 03       	nop
8000974c:	d7 03       	nop
8000974e:	d7 03       	nop
80009750:	d7 03       	nop
80009752:	d7 03       	nop
80009754:	d7 03       	nop
80009756:	d7 03       	nop
80009758:	d7 03       	nop
8000975a:	d7 03       	nop
8000975c:	d7 03       	nop
8000975e:	d7 03       	nop
80009760:	d7 03       	nop
80009762:	d7 03       	nop
80009764:	d7 03       	nop
80009766:	d7 03       	nop
80009768:	d7 03       	nop
8000976a:	d7 03       	nop
8000976c:	d7 03       	nop
8000976e:	d7 03       	nop
80009770:	d7 03       	nop
80009772:	d7 03       	nop
80009774:	d7 03       	nop
80009776:	d7 03       	nop
80009778:	d7 03       	nop
8000977a:	d7 03       	nop
8000977c:	d7 03       	nop
8000977e:	d7 03       	nop
80009780:	d7 03       	nop
80009782:	d7 03       	nop
80009784:	d7 03       	nop
80009786:	d7 03       	nop
80009788:	d7 03       	nop
8000978a:	d7 03       	nop
8000978c:	d7 03       	nop
8000978e:	d7 03       	nop
80009790:	d7 03       	nop
80009792:	d7 03       	nop
80009794:	d7 03       	nop
80009796:	d7 03       	nop
80009798:	d7 03       	nop
8000979a:	d7 03       	nop
8000979c:	d7 03       	nop
8000979e:	d7 03       	nop
800097a0:	d7 03       	nop
800097a2:	d7 03       	nop
800097a4:	d7 03       	nop
800097a6:	d7 03       	nop
800097a8:	d7 03       	nop
800097aa:	d7 03       	nop
800097ac:	d7 03       	nop
800097ae:	d7 03       	nop
800097b0:	d7 03       	nop
800097b2:	d7 03       	nop
800097b4:	d7 03       	nop
800097b6:	d7 03       	nop
800097b8:	d7 03       	nop
800097ba:	d7 03       	nop
800097bc:	d7 03       	nop
800097be:	d7 03       	nop
800097c0:	d7 03       	nop
800097c2:	d7 03       	nop
800097c4:	d7 03       	nop
800097c6:	d7 03       	nop
800097c8:	d7 03       	nop
800097ca:	d7 03       	nop
800097cc:	d7 03       	nop
800097ce:	d7 03       	nop
800097d0:	d7 03       	nop
800097d2:	d7 03       	nop
800097d4:	d7 03       	nop
800097d6:	d7 03       	nop
800097d8:	d7 03       	nop
800097da:	d7 03       	nop
800097dc:	d7 03       	nop
800097de:	d7 03       	nop
800097e0:	d7 03       	nop
800097e2:	d7 03       	nop
800097e4:	d7 03       	nop
800097e6:	d7 03       	nop
800097e8:	d7 03       	nop
800097ea:	d7 03       	nop
800097ec:	d7 03       	nop
800097ee:	d7 03       	nop
800097f0:	d7 03       	nop
800097f2:	d7 03       	nop
800097f4:	d7 03       	nop
800097f6:	d7 03       	nop
800097f8:	d7 03       	nop
800097fa:	d7 03       	nop
800097fc:	d7 03       	nop
800097fe:	d7 03       	nop

Disassembly of section .fini:

80009800 <_fini>:
80009800:	eb cd 40 40 	pushm	r6,lr
80009804:	48 26       	lddpc	r6,8000980c <_fini+0xc>
80009806:	1e 26       	rsub	r6,pc
80009808:	c0 48       	rjmp	80009810 <_fini+0x10>
8000980a:	d7 03       	nop
8000980c:	80 00       	ld.sh	r0,r0[0x0]
8000980e:	97 ea       	st.w	r11[0x38],r10
80009810:	fe b0 c4 3c 	rcall	80002088 <__do_global_dtors_aux>
80009814:	e3 cd 80 40 	ldm	sp++,r6,pc
